 tbb_debug

 Timestamp is 5f523cda (Fri Sep  4 16:10:50 2020)

 Preferred load address is 10000000

 Start         Length     Name                   Class
 0001:00000000 00000110H .text$di                CODE
 0001:00000110 00045230H .text$mn                CODE
 0001:00045340 00001950H .text$x                 CODE
 0001:00046c90 00000036H .text$yd                CODE
 0002:00000000 00000214H .idata$5                DATA
 0002:00000214 00000008H .00cfg                  DATA
 0002:0000021c 00000004H .CRT$XCA                DATA
 0002:00000220 00000020H .CRT$XCU                DATA
 0002:00000240 00000004H .CRT$XCZ                DATA
 0002:00000244 00000004H .CRT$XIA                DATA
 0002:00000248 00000004H .CRT$XIC                DATA
 0002:0000024c 00000004H .CRT$XIZ                DATA
 0002:00000250 00000004H .CRT$XLA                DATA
 0002:00000254 00000004H .CRT$XLZ                DATA
 0002:00000258 00000004H .CRT$XPA                DATA
 0002:0000025c 00000004H .CRT$XPZ                DATA
 0002:00000260 00000004H .CRT$XTA                DATA
 0002:00000264 0000000cH .CRT$XTZ                DATA
 0002:00000268 00000000H .gfids$y                DATA
 0002:00000270 0001f730H .rdata                  DATA
 0002:0001f9a0 00000018H .rdata$T                DATA
 0002:0001f9b8 00001234H .rdata$r                DATA
 0002:00020bec 0000025cH .rdata$sxdata           DATA
 0002:00020e48 000003d4H .rdata$zzzdbg           DATA
 0002:0002121c 00000004H .rtc$IAA                DATA
 0002:00021220 0000008cH .rtc$IMZ                DATA
 0002:000212ac 00000004H .rtc$IZZ                DATA
 0002:000212b0 00000004H .rtc$TAA                DATA
 0002:000212b4 0000008cH .rtc$TMZ                DATA
 0002:00021340 00000004H .rtc$TZZ                DATA
 0002:00021344 00000004H .tls                    DATA
 0002:00021348 00000004H .tls$                   DATA
 0002:0002134c 00000004H .tls$ZZZ                DATA
 0002:00021350 00001f90H .xdata$x                DATA
 0002:000232e0 000040d4H .edata                  DATA
 0002:000273b4 00000050H .idata$2                DATA
 0002:00027404 00000014H .idata$3                DATA
 0002:00027418 00000214H .idata$4                DATA
 0002:0002762c 00000a06H .idata$6                DATA
 0003:00000000 00001398H .data                   DATA
 0003:00001398 000009d0H .data$r                 DATA
 0003:00001d68 00001b44H .bss                    DATA
 0004:00000000 000000a0H .rsrc$01                DATA
 0004:000000a0 00000560H .rsrc$02                DATA

  Address         Publics by Value              Rva+Base       Lib:Object

 0000:00000000       ___arm64x_redirection_metadata 00000000     <absolute>
 0000:00000000       ___enclave_config          00000000     <absolute>
 0000:00000000       ___volatile_metadata       00000000     <absolute>
 0000:00000000       ___dynamic_value_reloc_table 00000000     <absolute>
 0000:00000000       ___hybrid_auxiliary_iat    00000000     <absolute>
 0000:00000000       ___guard_fids_count        00000000     <absolute>
 0000:00000000       ___arm64x_extra_rfe_table  00000000     <absolute>
 0000:00000000       ___guard_longjmp_table     00000000     <absolute>
 0000:00000000       ___x64_code_ranges_to_entry_points 00000000     <absolute>
 0000:00000000       ___x64_code_ranges_to_entry_points_count 00000000     <absolute>
 0000:00000000       ___guard_longjmp_count     00000000     <absolute>
 0000:00000000       ___guard_eh_cont_count     00000000     <absolute>
 0000:00000000       ___hybrid_code_map_count   00000000     <absolute>
 0000:00000000       ___guard_eh_cont_table     00000000     <absolute>
 0000:00000000       ___arm64x_native_entrypoint 00000000     <absolute>
 0000:00000000       ___hybrid_code_map         00000000     <absolute>
 0000:00000000       ___arm64x_redirection_metadata_count 00000000     <absolute>
 0000:00000000       ___AbsoluteZero            00000000     <absolute>
 0000:00000000       ___guard_iat_table         00000000     <absolute>
 0000:00000000       ___arm64x_extra_rfe_table_size 00000000     <absolute>
 0000:00000000       ___guard_fids_table        00000000     <absolute>
 0000:00000000       ___guard_iat_count         00000000     <absolute>
 0000:0000002c       __tls_array                0000002c     <absolute>
 0000:00000097       ___safe_se_handler_count   00000097     <absolute>
 0000:00000100       ___guard_flags             00000100     <absolute>
 0000:00000000       ___ImageBase               10000000     <linker-defined>
 0001:00000110       ?internal_grow_predicate@hash_map_segment_base@internal@tbb@@QBE_NXZ 10001110 f   concurrent_hash_map.obj
 0001:00000170       ??$__TBB_load_with_acquire@H@internal@tbb@@YAHADH@Z 10001170 f i concurrent_hash_map.obj
 0001:00000190       ??$to_bits_ref@$$CDI@?$atomic_impl@I@internal@tbb@@CAAAHADI@Z 10001190 f i concurrent_hash_map.obj
 0001:000001c0       ??$to_value@I@?$atomic_impl@I@internal@tbb@@CAIH@Z 100011c0 f i concurrent_hash_map.obj
 0001:00000230       ??0?$converter@I@?$atomic_impl@I@internal@tbb@@QAE@XZ 10001230 f i concurrent_hash_map.obj
 0001:00000250       ??0?$ptr_converter@PDI@?$atomic_impl@I@internal@tbb@@QAE@PDI@Z 10001250 f i concurrent_hash_map.obj
 0001:00000270       ??B?$atomic_impl@I@internal@tbb@@QDEIXZ 10001270 f i concurrent_hash_map.obj
 0001:000002b0       ?__empty_global_delete@@YAXPAX@Z 100012b0 f i concurrent_hash_map.obj
 0001:000002c0       ?__global_delete@@YAXPAXI@Z 100012c0 f i concurrent_hash_map.obj
 0001:000002c0       ?__empty_global_delete@@YAXPAXI@Z 100012c0 f i concurrent_hash_map.obj
 0001:000002d0       ?load_with_acquire@?$machine_load_store@H$03@internal@tbb@@SAHADH@Z 100012d0 f i concurrent_hash_map.obj
 0001:00000340       ??0concurrent_queue_base_v3@internal@tbb@@IAE@I@Z 10001340 f   concurrent_queue.obj
 0001:00000580       ??1concurrent_queue_base_v3@internal@tbb@@MAE@XZ 10001580 f   concurrent_queue.obj
 0001:00000660       ?internal_push@concurrent_queue_base_v3@internal@tbb@@IAEXPBX@Z 10001660 f   concurrent_queue.obj
 0001:00000690       ?internal_pop@concurrent_queue_base_v3@internal@tbb@@IAEXPAX@Z 10001690 f   concurrent_queue.obj
 0001:00000930       ?internal_abort@concurrent_queue_base_v3@internal@tbb@@IAEXXZ 10001930 f   concurrent_queue.obj
 0001:00000990       ?internal_push_if_not_full@concurrent_queue_base_v3@internal@tbb@@IAE_NPBX@Z 10001990 f   concurrent_queue.obj
 0001:000009c0       ?internal_pop_if_present@concurrent_queue_base_v3@internal@tbb@@IAE_NPAX@Z 100019c0 f   concurrent_queue.obj
 0001:00000a90       ?internal_size@concurrent_queue_base_v3@internal@tbb@@IBEHXZ 10001a90 f   concurrent_queue.obj
 0001:00000b10       ?internal_empty@concurrent_queue_base_v3@internal@tbb@@IBE_NXZ 10001b10 f   concurrent_queue.obj
 0001:00000ba0       ?internal_set_capacity@concurrent_queue_base_v3@internal@tbb@@IAEXHI@Z 10001ba0 f   concurrent_queue.obj
 0001:00000be0       ?internal_finish_clear@concurrent_queue_base_v3@internal@tbb@@IAEXXZ 10001be0 f   concurrent_queue.obj
 0001:00000cd0       ?internal_throw_exception@concurrent_queue_base_v3@internal@tbb@@IBEXXZ 10001cd0 f   concurrent_queue.obj
 0001:00000d00       ?assign@concurrent_queue_base_v3@internal@tbb@@IAEXABV123@@Z 10001d00 f   concurrent_queue.obj
 0001:00000d30       ?internal_insert_item@concurrent_queue_base_v3@internal@tbb@@IAEXPBXW4copy_specifics@123@@Z 10001d30 f   concurrent_queue.obj
 0001:00001040       ?internal_insert_if_not_full@concurrent_queue_base_v3@internal@tbb@@IAE_NPBXW4copy_specifics@123@@Z 10002040 f   concurrent_queue.obj
 0001:00001110       ?internal_assign@concurrent_queue_base_v3@internal@tbb@@IAEXABV123@W4copy_specifics@123@@Z 10002110 f   concurrent_queue.obj
 0001:00001270       ?move_content@concurrent_queue_base_v8@internal@tbb@@IAEXAAV123@@Z 10002270 f   concurrent_queue.obj
 0001:000012a0       ?internal_push_move_if_not_full@concurrent_queue_base_v8@internal@tbb@@IAE_NPBX@Z 100022a0 f   concurrent_queue.obj
 0001:000012d0       ?internal_push_move@concurrent_queue_base_v8@internal@tbb@@IAEXPBX@Z 100022d0 f   concurrent_queue.obj
 0001:00001300       ?initialize@concurrent_queue_iterator_base_v3@internal@tbb@@AAEXABVconcurrent_queue_base_v3@23@I@Z 10002300 f   concurrent_queue.obj
 0001:000013a0       ??0concurrent_queue_iterator_base_v3@internal@tbb@@IAE@ABVconcurrent_queue_base_v3@12@@Z 100023a0 f   concurrent_queue.obj
 0001:000013d0       ??0concurrent_queue_iterator_base_v3@internal@tbb@@IAE@ABVconcurrent_queue_base_v3@12@I@Z 100023d0 f   concurrent_queue.obj
 0001:00001410       ?assign@concurrent_queue_iterator_base_v3@internal@tbb@@IAEXABV123@@Z 10002410 f   concurrent_queue.obj
 0001:000014d0       ?advance@concurrent_queue_iterator_base_v3@internal@tbb@@IAEXXZ 100024d0 f   concurrent_queue.obj
 0001:00001630       ??1concurrent_queue_iterator_base_v3@internal@tbb@@IAE@XZ 10002630 f   concurrent_queue.obj
 0001:000016b0       ?push@micro_queue@internal@tbb@@QAEXPBXIAAVconcurrent_queue_base_v3@23@W4copy_specifics@423@@Z 100026b0 f   concurrent_queue.obj
 0001:000019f0       ?abort_push@micro_queue@internal@tbb@@QAEXIAAVconcurrent_queue_base_v3@23@@Z 100029f0 f   concurrent_queue.obj
 0001:00001a30       ?pop@micro_queue@internal@tbb@@QAE_NPAXIAAVconcurrent_queue_base_v3@23@@Z 10002a30 f   concurrent_queue.obj
 0001:00001c40       ?assign@micro_queue@internal@tbb@@QAEAAU123@ABU123@AAVconcurrent_queue_base_v3@23@W4copy_specifics@423@@Z 10002c40 f   concurrent_queue.obj
 0001:00001f50       ?make_copy@micro_queue@internal@tbb@@QAEPAUpage@concurrent_queue_base_v3@23@AAV523@PBU4523@IIAAIW4copy_specifics@523@@Z 10002f50 f   concurrent_queue.obj
 0001:00002060       ?make_invalid@micro_queue@internal@tbb@@QAEXI@Z 10003060 f   concurrent_queue.obj
 0001:00002170       ??$__TBB_load_relaxed@I@internal@tbb@@YAIADI@Z 10003170 f i concurrent_queue.obj
 0001:00002190       ??$__TBB_load_with_acquire@C@internal@tbb@@YACADC@Z 10003190 f i concurrent_queue.obj
 0001:000021b0       ??$__TBB_store_relaxed@IH@internal@tbb@@YAXACIH@Z 100031b0 f i concurrent_queue.obj
 0001:000021d0       ??$__TBB_store_with_release@CC@internal@tbb@@YAXACCC@Z 100031d0 f i concurrent_queue.obj
 0001:000021f0       ??$__TBB_store_with_release@HH@internal@tbb@@YAXACHH@Z 100031f0 f i concurrent_queue.obj
 0001:00002210       ??$compare_and_swap@$0A@@?$atomic_impl@I@internal@tbb@@QAEIII@Z 10003210 f i concurrent_queue.obj
 0001:00002260       ??$fetch_and_add@$0A@@?$atomic_impl_with_arithmetic@IID@internal@tbb@@QAEII@Z 10003260 f i concurrent_queue.obj
 0001:00002290       ??$is_aligned@$$BY07Umicro_queue@internal@tbb@@@internal@tbb@@YA_NPAY07Umicro_queue@01@I@Z 10003290 f i concurrent_queue.obj
 0001:000022c0       ??$is_aligned@U?$atomic@I@tbb@@@internal@tbb@@YA_NPAU?$atomic@I@1@I@Z 100032c0 f i concurrent_queue.obj
 0001:000022f0       ??$is_aligned@Vconcurrent_queue_rep@internal@tbb@@@internal@tbb@@YA_NPAVconcurrent_queue_rep@01@I@Z 100032f0 f i concurrent_queue.obj
 0001:00002320       ??$is_power_of_two@I@internal@tbb@@YA_NI@Z 10003320 f i concurrent_queue.obj
 0001:00002360       ??$modulo_power_of_two@II@internal@tbb@@YAIII@Z 10003360 f i concurrent_queue.obj
 0001:000023b0       ??$notify@Upredicate_leq@internal@tbb@@@concurrent_monitor@internal@tbb@@QAEXABUpredicate_leq@12@@Z 100033b0 f i concurrent_queue.obj
 0001:000023e0       ??$notify_relaxed@Upredicate_leq@internal@tbb@@@concurrent_monitor@internal@tbb@@QAEXABUpredicate_leq@12@@Z 100033e0 f i concurrent_queue.obj
 0001:000025c0       ??$punned_cast@PAVbinary_semaphore@internal@tbb@@$$CBV?$aligned_space@Vbinary_semaphore@internal@tbb@@$00@3@@internal@tbb@@YAPAVbinary_semaphore@01@PBV?$aligned_space@Vbinary_semaphore@internal@tbb@@$00@1@@Z 100035c0 f i concurrent_queue.obj
 0001:000025e0       ??$spin_wait_until_eq@U?$atomic@I@tbb@@I@internal@tbb@@YAXADU?$atomic@I@1@I@Z 100035e0 f i concurrent_queue.obj
 0001:00002660       ??$spin_wait_while_eq@U?$atomic@I@tbb@@I@internal@tbb@@YAXADU?$atomic@I@1@I@Z 10003660 f i concurrent_queue.obj
 0001:000026e0       ??$suppress_unused_warning@E@internal@tbb@@YAXABE@Z 100036e0 f i concurrent_queue.obj
 0001:000026f0       ??$to_bits@I@?$atomic_impl@I@internal@tbb@@CAHI@Z 100036f0 f i concurrent_queue.obj
 0001:00002720       ??$to_bits@PAUpage@concurrent_queue_base_v3@internal@tbb@@@?$atomic_impl@PAUpage@concurrent_queue_base_v3@internal@tbb@@@internal@tbb@@CAHPAUpage@concurrent_queue_base_v3@12@@Z 10003720 f i concurrent_queue.obj
 0001:00002750       ??$to_bits@_N@?$atomic_impl@_N@internal@tbb@@CAC_N@Z 10003750 f i concurrent_queue.obj
 0001:00002780       ??$to_bits_ref@$$CD_N@?$atomic_impl@_N@internal@tbb@@CAAACAD_N@Z 10003780 f i concurrent_queue.obj
 0001:000027b0       ??$to_bits_ref@I@?$atomic_impl@I@internal@tbb@@CAAAHAAI@Z 100037b0 f i concurrent_queue.obj
 0001:000027e0       ??$to_bits_ref@PAUpage@concurrent_queue_base_v3@internal@tbb@@@?$atomic_impl@PAUpage@concurrent_queue_base_v3@internal@tbb@@@internal@tbb@@CAAAHAAPAUpage@concurrent_queue_base_v3@12@@Z 100037e0 f i concurrent_queue.obj
 0001:00002810       ??$to_bits_ref@SAUpage@concurrent_queue_base_v3@internal@tbb@@@?$atomic_impl@PAUpage@concurrent_queue_base_v3@internal@tbb@@@internal@tbb@@CAAAHADSAUpage@concurrent_queue_base_v3@12@@Z 10003810 f i concurrent_queue.obj
 0001:00002840       ??$to_bits_ref@_N@?$atomic_impl@_N@internal@tbb@@CAAACAA_N@Z 10003840 f i concurrent_queue.obj
 0001:00002870       ??$to_value@PAUpage@concurrent_queue_base_v3@internal@tbb@@@?$atomic_impl@PAUpage@concurrent_queue_base_v3@internal@tbb@@@internal@tbb@@CAPAUpage@concurrent_queue_base_v3@12@H@Z 10003870 f i concurrent_queue.obj
 0001:000028e0       ??$to_value@_N@?$atomic_impl@_N@internal@tbb@@CA_NC@Z 100038e0 f i concurrent_queue.obj
 0001:00002950       ??0?$cache_aligned_allocator@Vconcurrent_queue_iterator_rep@internal@tbb@@@tbb@@QAE@XZ 10003950 f i concurrent_queue.obj
 0001:00002970       ??0?$cache_aligned_allocator@Vconcurrent_queue_rep@internal@tbb@@@tbb@@QAE@XZ 10003970 f i concurrent_queue.obj
 0001:00002990       ??0?$converter@I@?$atomic_impl@I@internal@tbb@@QAE@I@Z 10003990 f i concurrent_queue.obj
 0001:000029b0       ??0?$converter@PAUpage@concurrent_queue_base_v3@internal@tbb@@@?$atomic_impl@PAUpage@concurrent_queue_base_v3@internal@tbb@@@internal@tbb@@QAE@PAUpage@concurrent_queue_base_v3@23@@Z 100039b0 f i concurrent_queue.obj
 0001:000029d0       ??0?$converter@PAUpage@concurrent_queue_base_v3@internal@tbb@@@?$atomic_impl@PAUpage@concurrent_queue_base_v3@internal@tbb@@@internal@tbb@@QAE@XZ 100039d0 f i concurrent_queue.obj
 0001:000029f0       ??0?$converter@_N@?$atomic_impl@_N@internal@tbb@@QAE@XZ 100039f0 f i concurrent_queue.obj
 0001:00002a10       ??0?$converter@_N@?$atomic_impl@_N@internal@tbb@@QAE@_N@Z 10003a10 f i concurrent_queue.obj
 0001:00002a30       ??0?$ptr_converter@PAI@?$atomic_impl@I@internal@tbb@@QAE@PAI@Z 10003a30 f i concurrent_queue.obj
 0001:00002a50       ??0?$ptr_converter@PAPAUpage@concurrent_queue_base_v3@internal@tbb@@@?$atomic_impl@PAUpage@concurrent_queue_base_v3@internal@tbb@@@internal@tbb@@QAE@PAPAUpage@concurrent_queue_base_v3@23@@Z 10003a50 f i concurrent_queue.obj
 0001:00002a70       ??0?$ptr_converter@PA_N@?$atomic_impl@_N@internal@tbb@@QAE@PA_N@Z 10003a70 f i concurrent_queue.obj
 0001:00002a90       ??0?$ptr_converter@PDSAUpage@concurrent_queue_base_v3@internal@tbb@@@?$atomic_impl@PAUpage@concurrent_queue_base_v3@internal@tbb@@@internal@tbb@@QAE@PDSAUpage@concurrent_queue_base_v3@23@@Z 10003a90 f i concurrent_queue.obj
 0001:00002ab0       ??0?$ptr_converter@PD_N@?$atomic_impl@_N@internal@tbb@@QAE@PD_N@Z 10003ab0 f i concurrent_queue.obj
 0001:00002ad0       ??0atomic_backoff@internal@tbb@@QAE@XZ 10003ad0 f i concurrent_queue.obj
 0001:00002af0       ??0atomic_backoff@internal@tbb@@QAE@_N@Z 10003af0 f i concurrent_queue.obj
 0001:00002b30       ??0circular_doubly_linked_list_with_sentinel@internal@tbb@@QAE@XZ 10003b30 f i concurrent_queue.obj
 0001:00002b70       ??0concurrent_monitor@internal@tbb@@QAE@XZ 10003b70 f i concurrent_queue.obj
 0001:00002bf0       ??0concurrent_queue_iterator_rep@internal@tbb@@QAE@ABVconcurrent_queue_base_v3@12@I@Z 10003bf0 f i concurrent_queue.obj
 0001:00002c90       ??0micro_queue_pop_finalizer@internal@tbb@@QAE@AAUmicro_queue@12@AAVconcurrent_queue_base_v3@12@IPAUpage@412@@Z 10003c90 f i concurrent_queue.obj
 0001:00002cd0       ??0node_t@circular_doubly_linked_list_with_sentinel@internal@tbb@@QAE@XZ 10003cd0 f i concurrent_queue.obj
 0001:00002d00       ??0predicate_leq@internal@tbb@@QAE@I@Z 10003d00 f i concurrent_queue.obj
 0001:00002d20       ??0scoped_lock@spin_mutex@tbb@@QAE@AAV12@@Z 10003d20 f i concurrent_queue.obj
 0001:00002d70       ??0spin_mutex@tbb@@QAE@XZ  10003d70 f i concurrent_queue.obj
 0001:00002da0       ??0thread_context@concurrent_monitor@internal@tbb@@QAE@XZ 10003da0 f i concurrent_queue.obj
 0001:00002e00       ??1binary_semaphore@internal@tbb@@QAE@XZ 10003e00 f i concurrent_queue.obj
 0001:00002e40       ??1circular_doubly_linked_list_with_sentinel@internal@tbb@@QAE@XZ 10003e40 f i concurrent_queue.obj
 0001:00002ed0       ??1micro_queue_pop_finalizer@internal@tbb@@QAE@XZ 10003ed0 f i concurrent_queue.obj
 0001:00002ff0       ??1scoped_lock@spin_mutex@tbb@@QAE@XZ 10003ff0 f i concurrent_queue.obj
 0001:00003050       ??1thread_context@concurrent_monitor@internal@tbb@@QAE@XZ 10004050 f i concurrent_queue.obj
 0001:000030e0       ??2@YAPAXIPAX@Z            100040e0 f i concurrent_queue.obj
 0001:000030f0       ??4?$atomic@I@tbb@@QAEAAU01@ABU01@@Z 100040f0 f i concurrent_queue.obj
 0001:00003130       ??4?$atomic@I@tbb@@QAEII@Z 10004130 f i concurrent_queue.obj
 0001:00003160       ??4?$atomic@PAUpage@concurrent_queue_base_v3@internal@tbb@@@tbb@@QAEPAUpage@concurrent_queue_base_v3@internal@1@PAU2341@@Z 10004160 f i concurrent_queue.obj
 0001:00003190       ??4?$atomic@_N@tbb@@QAE_N_N@Z 10004190 f i concurrent_queue.obj
 0001:000031c0       ??B?$atomic_impl@PAUpage@concurrent_queue_base_v3@internal@tbb@@@internal@tbb@@QDEPAUpage@concurrent_queue_base_v3@12@XZ 100041c0 f i concurrent_queue.obj
 0001:00003200       ??B?$atomic_impl@_N@internal@tbb@@QDE_NXZ 10004200 f i concurrent_queue.obj
 0001:00003240       ??E?$atomic_impl_with_arithmetic@IID@internal@tbb@@QAEIH@Z 10004240 f i concurrent_queue.obj
 0001:00003270       ??E?$atomic_impl_with_arithmetic@IID@internal@tbb@@QAEIXZ 10004270 f i concurrent_queue.obj
 0001:000032a0       ??F?$atomic_impl_with_arithmetic@IID@internal@tbb@@QAEIH@Z 100042a0 f i concurrent_queue.obj
 0001:000032d0       ??F?$atomic_impl_with_arithmetic@IID@internal@tbb@@QAEIXZ 100042d0 f i concurrent_queue.obj
 0001:00003300       ??Rpredicate_leq@internal@tbb@@QBE_NI@Z 10004300 f i concurrent_queue.obj
 0001:00003340       ??Y?$atomic_impl_with_arithmetic@IID@internal@tbb@@QAEII@Z 10004340 f i concurrent_queue.obj
 0001:00003370       ??_Gbinary_semaphore@internal@tbb@@QAEPAXI@Z 10004370 f i concurrent_queue.obj
 0001:000033b0       ??_Econcurrent_queue_base_v3@internal@tbb@@MAEPAXI@Z 100043b0 f i concurrent_queue.obj
 0001:000033b0       ??_Gconcurrent_queue_base_v3@internal@tbb@@MAEPAXI@Z 100043b0 f i concurrent_queue.obj
 0001:000033f0       ?P@binary_semaphore@internal@tbb@@QAEXXZ 100043f0 f i concurrent_queue.obj
 0001:00003430       ?V@binary_semaphore@internal@tbb@@QAEXXZ 10004430 f i concurrent_queue.obj
 0001:00003470       ?__TBB_store_relaxed@internal@tbb@@YAXACII@Z 10004470 f i concurrent_queue.obj
 0001:00003490       ?abort_all@concurrent_monitor@internal@tbb@@QAEXXZ 10004490 f i concurrent_queue.obj
 0001:000034c0       ?add@circular_doubly_linked_list_with_sentinel@internal@tbb@@QAEXPAUnode_t@123@@Z 100044c0 f i concurrent_queue.obj
 0001:00003530       ?allocate@?$cache_aligned_allocator@Vconcurrent_queue_iterator_rep@internal@tbb@@@tbb@@QAEPAVconcurrent_queue_iterator_rep@internal@2@IPBX@Z 10004530 f i concurrent_queue.obj
 0001:00003560       ?allocate@?$cache_aligned_allocator@Vconcurrent_queue_rep@internal@tbb@@@tbb@@QAEPAVconcurrent_queue_rep@internal@2@IPBX@Z 10004560 f i concurrent_queue.obj
 0001:000035a0       ?atomic_fence@tbb@@YAXXZ   100045a0 f i concurrent_queue.obj
 0001:000035b0       ?begin@?$aligned_space@Vbinary_semaphore@internal@tbb@@$00@tbb@@QBEPAVbinary_semaphore@internal@2@XZ 100045b0 f i concurrent_queue.obj
 0001:000035e0       ?choose@concurrent_queue_rep@internal@tbb@@QAEAAUmicro_queue@23@I@Z 100045e0 f i concurrent_queue.obj
 0001:00003620       ?clear@circular_doubly_linked_list_with_sentinel@internal@tbb@@QAEXXZ 10004620 f i concurrent_queue.obj
 0001:00003670       ?commit_wait@concurrent_monitor@internal@tbb@@QAE_NAAVthread_context@123@@Z 10004670 f i concurrent_queue.obj
 0001:00003760       ?compare_and_swap@?$atomic_impl@I@internal@tbb@@QAEIII@Z 10004760 f i concurrent_queue.obj
 0001:00003790       ?compare_and_swap@?$atomic_traits@$03$0A@@internal@tbb@@SAHPCXHH@Z 10004790 f i concurrent_queue.obj
 0001:000037b0       ?deallocate@?$cache_aligned_allocator@Vconcurrent_queue_iterator_rep@internal@tbb@@@tbb@@QAEXPAVconcurrent_queue_iterator_rep@internal@2@I@Z 100047b0 f i concurrent_queue.obj
 0001:000037e0       ?deallocate@?$cache_aligned_allocator@Vconcurrent_queue_rep@internal@tbb@@@tbb@@QAEXPAVconcurrent_queue_rep@internal@2@I@Z 100047e0 f i concurrent_queue.obj
 0001:00003810       ?empty@circular_doubly_linked_list_with_sentinel@internal@tbb@@QBE_NXZ 10004810 f i concurrent_queue.obj
 0001:00003860       ?end@circular_doubly_linked_list_with_sentinel@internal@tbb@@QBEPBUnode_t@123@XZ 10004860 f i concurrent_queue.obj
 0001:00003880       ?fetch_and_add@?$atomic_impl_with_arithmetic@IID@internal@tbb@@QAEII@Z 10004880 f i concurrent_queue.obj
 0001:000038b0       ?fetch_and_add@?$atomic_traits@$03$0A@@internal@tbb@@SAHPCXH@Z 100048b0 f i concurrent_queue.obj
 0001:000038d0       ?front@circular_doubly_linked_list_with_sentinel@internal@tbb@@QBEPAUnode_t@123@XZ 100048d0 f i concurrent_queue.obj
 0001:000038f0       ?get_item@concurrent_queue_iterator_rep@internal@tbb@@QAE_NAAPAXI@Z 100048f0 f i concurrent_queue.obj
 0001:000039e0       ?index@concurrent_queue_rep@internal@tbb@@SAII@Z 100049e0 f i concurrent_queue.obj
 0001:00003a00       ?last@circular_doubly_linked_list_with_sentinel@internal@tbb@@QBEPAUnode_t@123@XZ 10004a00 f i concurrent_queue.obj
 0001:00003a20       ?load@?$machine_load_store_relaxed@I$03@internal@tbb@@SAIADI@Z 10004a20 f i concurrent_queue.obj
 0001:00003a30       ?load_with_acquire@?$machine_load_store@C$00@internal@tbb@@SACADC@Z 10004a30 f i concurrent_queue.obj
 0001:00003a50       ?pause@atomic_backoff@internal@tbb@@QAEXXZ 10004a50 f i concurrent_queue.obj
 0001:00003ab0       ?remove@circular_doubly_linked_list_with_sentinel@internal@tbb@@QAEXAAUnode_t@123@@Z 10004ab0 f i concurrent_queue.obj
 0001:00003b30       ?semaphore@thread_context@concurrent_monitor@internal@tbb@@QAEAAVbinary_semaphore@34@XZ 10004b30 f i concurrent_queue.obj
 0001:00003b60       ?size@circular_doubly_linked_list_with_sentinel@internal@tbb@@QBEIXZ 10004b60 f i concurrent_queue.obj
 0001:00003b80       ?store@?$machine_load_store_relaxed@I$03@internal@tbb@@SAXACII@Z 10004b80 f i concurrent_queue.obj
 0001:00003b90       ?store_with_release@?$atomic_impl@I@internal@tbb@@IAEII@Z 10004b90 f i concurrent_queue.obj
 0001:00003be0       ?store_with_release@?$atomic_impl@PAUpage@concurrent_queue_base_v3@internal@tbb@@@internal@tbb@@IAEPAUpage@concurrent_queue_base_v3@23@PAU4523@@Z 10004be0 f i concurrent_queue.obj
 0001:00003c30       ?store_with_release@?$atomic_impl@_N@internal@tbb@@IAE_N_N@Z 10004c30 f i concurrent_queue.obj
 0001:00003c80       ?store_with_release@?$machine_load_store@C$00@internal@tbb@@SAXACCC@Z 10004c80 f i concurrent_queue.obj
 0001:00003c90       ?store_with_release@?$machine_load_store@H$03@internal@tbb@@SAXACHH@Z 10004c90 f i concurrent_queue.obj
 0001:00003ca0       ?throw_exception@internal@tbb@@YAXW4exception_id@12@@Z 10004ca0 f i concurrent_queue.obj
 0001:00003cc0       ?to_thread_context@concurrent_monitor@internal@tbb@@AAEPAVthread_context@123@PAUnode_t@circular_doubly_linked_list_with_sentinel@23@@Z 10004cc0 f i concurrent_queue.obj
 0001:00003d90       ??1concurrent_vector_base_v3@internal@tbb@@IAE@XZ 10004d90 f   concurrent_vector.obj
 0001:00003ed0       ?internal_reserve@concurrent_vector_base_v3@internal@tbb@@IAEXIII@Z 10004ed0 f   concurrent_vector.obj
 0001:00003fd0       ?internal_capacity@concurrent_vector_base_v3@internal@tbb@@IBEIXZ 10004fd0 f   concurrent_vector.obj
 0001:00004010       ?internal_grow@concurrent_vector_base_v3@internal@tbb@@IAEXIIIP6AXPAXPBXI@Z1@Z 10005010 f   concurrent_vector.obj
 0001:000041e0       ?internal_grow_by@concurrent_vector_base_v3@internal@tbb@@IAEIIIP6AXPAXPBXI@Z1@Z 100051e0 f   concurrent_vector.obj
 0001:00004240       ?internal_push_back@concurrent_vector_base_v3@internal@tbb@@IAEPAXIAAI@Z 10005240 f   concurrent_vector.obj
 0001:00004340       ?internal_clear@concurrent_vector_base_v3@internal@tbb@@IAEIP6AXPAXI@Z@Z 10005340 f   concurrent_vector.obj
 0001:000044a0       ?internal_compact@concurrent_vector_base_v3@internal@tbb@@IAEPAXIPAXP6AX0I@ZP6AX0PBXI@Z@Z 100054a0 f   concurrent_vector.obj
 0001:00004a50       ?internal_copy@concurrent_vector_base_v3@internal@tbb@@IAEXABV123@IP6AXPAXPBXI@Z@Z 10005a50 f   concurrent_vector.obj
 0001:00004c30       ?internal_assign@concurrent_vector_base_v3@internal@tbb@@IAEXABV123@IP6AXPAXI@ZP6AX1PBXI@Z4@Z 10005c30 f   concurrent_vector.obj
 0001:00005020       ?internal_throw_exception@concurrent_vector_base_v3@internal@tbb@@IBEXI@Z 10006020 f   concurrent_vector.obj
 0001:000050e0       ?internal_swap@concurrent_vector_base_v3@internal@tbb@@IAEXAAV123@@Z 100060e0 f   concurrent_vector.obj
 0001:00005250       ?internal_resize@concurrent_vector_base_v3@internal@tbb@@IAEXIIIPBXP6AXPAXI@ZP6AX10I@Z@Z 10006250 f   concurrent_vector.obj
 0001:00005410       ?internal_grow_to_at_least_with_result@concurrent_vector_base_v3@internal@tbb@@IAEIIIP6AXPAXPBXI@Z1@Z 10006410 f   concurrent_vector.obj
 0001:00005640       ?internal_grow_to_at_least@concurrent_vector_base_v3@internal@tbb@@IAEXIIP6AXPAXPBXI@Z1@Z 10006640 f   concurrent_vector.obj
 0001:00005680       ?enable_segment@helper@concurrent_vector_base_v3@internal@tbb@@SAIAAV234@II_N@Z 10006680 f   concurrent_vector.obj
 0001:00005990       ?extend_segment_table@helper@concurrent_vector_base_v3@internal@tbb@@SAXAAV234@I@Z 10006990 f   concurrent_vector.obj
 0001:00005c10       ?cleanup@helper@concurrent_vector_base_v3@internal@tbb@@QAEXXZ 10006c10 f   concurrent_vector.obj
 0001:00005f20       ??$?9Usegment_allocated@concurrent_vector_base_v3@internal@tbb@@@internal@tbb@@YA_NABVsegment_value_t@concurrent_vector_base_v3@01@Usegment_allocated@301@@Z 10006f20 f i concurrent_vector.obj
 0001:00005f70       ??$?9Usegment_not_used@concurrent_vector_base_v3@internal@tbb@@@internal@tbb@@YA_NABVsegment_value_t@concurrent_vector_base_v3@01@Usegment_not_used@301@@Z 10006f70 f i concurrent_vector.obj
 0001:00005fc0       ??$_Adl_verify_range@PAVsegment_t@concurrent_vector_base_v3@internal@tbb@@PAV1234@@std@@YAXABQAVsegment_t@concurrent_vector_base_v3@internal@tbb@@0@Z 10006fc0 f i concurrent_vector.obj
 0001:00005fe0       ??$_Construct_in_place@Vsegment_t@concurrent_vector_base_v3@internal@tbb@@ABV1234@@std@@YAXAAVsegment_t@concurrent_vector_base_v3@internal@tbb@@ABV1234@@Z 10006fe0 f i concurrent_vector.obj
 0001:00006030       ??$_Copy_unchecked@PAVsegment_t@concurrent_vector_base_v3@internal@tbb@@PAV1234@@std@@YAPAVsegment_t@concurrent_vector_base_v3@internal@tbb@@PAV1234@00@Z 10007030 f i concurrent_vector.obj
 0001:00006070       ??$_Destroy_in_place@Vsegment_t@concurrent_vector_base_v3@internal@tbb@@@std@@YAXAAVsegment_t@concurrent_vector_base_v3@internal@tbb@@@Z 10007070 f i concurrent_vector.obj
 0001:00006090       ??$_Destroy_range@PAVsegment_t@concurrent_vector_base_v3@internal@tbb@@@std@@YAXPAVsegment_t@concurrent_vector_base_v3@internal@tbb@@QAV1234@@Z 10007090 f i concurrent_vector.obj
 0001:000060c0       ??$_Emplace_back@ABVsegment_t@concurrent_vector_base_v3@internal@tbb@@@?$_Uninitialized_backout@PAVsegment_t@concurrent_vector_base_v3@internal@tbb@@@std@@QAEXABVsegment_t@concurrent_vector_base_v3@internal@tbb@@@Z 100070c0 f i concurrent_vector.obj
 0001:00006110       ??$_Get_unwrapped@AAPAVsegment_t@concurrent_vector_base_v3@internal@tbb@@@std@@YAPAVsegment_t@concurrent_vector_base_v3@internal@tbb@@AAPAV1234@@Z 10007110 f i concurrent_vector.obj
 0001:00006120       ??$_Get_unwrapped_n@AAPAVsegment_t@concurrent_vector_base_v3@internal@tbb@@H@std@@YAPAVsegment_t@concurrent_vector_base_v3@internal@tbb@@AAPAV1234@H@Z 10007120 f i concurrent_vector.obj
 0001:00006130       ??$_Get_unwrapped_n@AAPAVsegment_t@concurrent_vector_base_v3@internal@tbb@@I@std@@YAPAVsegment_t@concurrent_vector_base_v3@internal@tbb@@AAPAV1234@I@Z 10007130 f i concurrent_vector.obj
 0001:00006140       ??$_Idl_distance@PAVsegment_t@concurrent_vector_base_v3@internal@tbb@@PAV1234@@std@@YAHABQAVsegment_t@concurrent_vector_base_v3@internal@tbb@@0@Z 10007140 f i concurrent_vector.obj
 0001:00006160       ??$_Seek_wrapped@PAVsegment_t@concurrent_vector_base_v3@internal@tbb@@AAPAV1234@@std@@YAXAAPAVsegment_t@concurrent_vector_base_v3@internal@tbb@@0@Z 10007160 f i concurrent_vector.obj
 0001:00006170       ??$_Seek_wrapped@PAVsegment_t@concurrent_vector_base_v3@internal@tbb@@PAV1234@@std@@YAXAAPAVsegment_t@concurrent_vector_base_v3@internal@tbb@@$$QAPAV1234@@Z 10007170 f i concurrent_vector.obj
 0001:00006180       ??$_Verify_range@Vsegment_t@concurrent_vector_base_v3@internal@tbb@@@std@@YAXQBVsegment_t@concurrent_vector_base_v3@internal@tbb@@0@Z 10007180 f i concurrent_vector.obj
 0001:00006200       ??$__TBB_load_relaxed@H@internal@tbb@@YAHADH@Z 10007200 f i concurrent_vector.obj
 0001:00006220       ??$__TBB_store_relaxed@HH@internal@tbb@@YAXACHH@Z 10007220 f i concurrent_vector.obj
 0001:00006240       ??$addressof@Vsegment_t@concurrent_vector_base_v3@internal@tbb@@@std@@YAPAVsegment_t@concurrent_vector_base_v3@internal@tbb@@AAV1234@@Z 10007240 f i concurrent_vector.obj
 0001:00006250       ??$apply@Udestroy_body@helper@concurrent_vector_base_v3@internal@tbb@@@helper@concurrent_vector_base_v3@internal@tbb@@QAEIABUdestroy_body@0123@@Z 10007250 f i concurrent_vector.obj
 0001:00006350       ??$apply@Uinit_body@helper@concurrent_vector_base_v3@internal@tbb@@@helper@concurrent_vector_base_v3@internal@tbb@@QAEIABUinit_body@0123@@Z 10007350 f i concurrent_vector.obj
 0001:00006450       ??$apply@Usafe_init_body@helper@concurrent_vector_base_v3@internal@tbb@@@helper@concurrent_vector_base_v3@internal@tbb@@QAEIABUsafe_init_body@0123@@Z 10007450 f i concurrent_vector.obj
 0001:00006550       ??$compare_and_swap@$0A@@?$atomic_impl@PAVsegment_t@concurrent_vector_base_v3@internal@tbb@@@internal@tbb@@QAEPAVsegment_t@concurrent_vector_base_v3@12@PAV3412@0@Z 10007550 f i concurrent_vector.obj
 0001:000065a0       ??$copy@PAVsegment_t@concurrent_vector_base_v3@internal@tbb@@PAV1234@@std@@YAPAVsegment_t@concurrent_vector_base_v3@internal@tbb@@PAV1234@00@Z 100075a0 f i concurrent_vector.obj
 0001:00006690       ??$fetch_and_add@$00@?$atomic_impl_with_arithmetic@IID@internal@tbb@@QAEII@Z 10007690 f i concurrent_vector.obj
 0001:000066c0       ??$fetch_and_increment@$00@?$atomic_impl_with_arithmetic@IID@internal@tbb@@QAEIXZ 100076c0 f i concurrent_vector.obj
 0001:000066f0       ??$fill_n@PAVsegment_t@concurrent_vector_base_v3@internal@tbb@@IV1234@@std@@YAPAVsegment_t@concurrent_vector_base_v3@internal@tbb@@PAV1234@IABV1234@@Z 100076f0 f i concurrent_vector.obj
 0001:000067a0       ??$forward@ABVsegment_t@concurrent_vector_base_v3@internal@tbb@@@std@@YAABVsegment_t@concurrent_vector_base_v3@internal@tbb@@ABV1234@@Z 100077a0 f i concurrent_vector.obj
 0001:000067b0       ??$load@$00@?$atomic_impl@I@internal@tbb@@QBEIXZ 100077b0 f i concurrent_vector.obj
 0001:000067f0       ??$load@$00@?$atomic_impl@PAVsegment_t@concurrent_vector_base_v3@internal@tbb@@@internal@tbb@@QBEPAVsegment_t@concurrent_vector_base_v3@12@XZ 100077f0 f i concurrent_vector.obj
 0001:00006830       ??$load@$00@?$atomic_impl@PAX@internal@tbb@@QBEPAXXZ 10007830 f i concurrent_vector.obj
 0001:00006870       ??$load@$00@segment_t@concurrent_vector_base_v3@internal@tbb@@QBE?AVsegment_value_t@123@XZ 10007870 f i concurrent_vector.obj
 0001:000068b0       ??$load@$02@?$atomic_impl@I@internal@tbb@@QBEIXZ 100078b0 f i concurrent_vector.obj
 0001:000068f0       ??$load@$02@?$atomic_impl@PAVsegment_t@concurrent_vector_base_v3@internal@tbb@@@internal@tbb@@QBEPAVsegment_t@concurrent_vector_base_v3@12@XZ 100078f0 f i concurrent_vector.obj
 0001:00006930       ??$load@$02@?$atomic_impl@PAX@internal@tbb@@QBEPAXXZ 10007930 f i concurrent_vector.obj
 0001:00006970       ??$load@$02@segment_t@concurrent_vector_base_v3@internal@tbb@@QBE?AVsegment_value_t@123@XZ 10007970 f i concurrent_vector.obj
 0001:000069b0       ??$load@$02I@tbb@@YAIABU?$atomic@I@0@@Z 100079b0 f i concurrent_vector.obj
 0001:000069d0       ??$load@$02PAVsegment_t@concurrent_vector_base_v3@internal@tbb@@@tbb@@YAPAVsegment_t@concurrent_vector_base_v3@internal@0@ABU?$atomic@PAVsegment_t@concurrent_vector_base_v3@internal@tbb@@@0@@Z 100079d0 f i concurrent_vector.obj
 0001:000069f0       ??$load@$02PAX@tbb@@YAPAXABU?$atomic@PAX@0@@Z 100079f0 f i concurrent_vector.obj
 0001:00006a10       ??$load@H@?$atomic_load_store_traits@$00@internal@tbb@@SAHADH@Z 10007a10 f i concurrent_vector.obj
 0001:00006a30       ??$load@H@?$atomic_load_store_traits@$02@internal@tbb@@SAHADH@Z 10007a30 f i concurrent_vector.obj
 0001:00006a50       ??$pointer@D@segment_value_t@concurrent_vector_base_v3@internal@tbb@@QBEPADXZ 10007a50 f i concurrent_vector.obj
 0001:00006a70       ??$pointer@X@segment_value_t@concurrent_vector_base_v3@internal@tbb@@QBEPAXXZ 10007a70 f i concurrent_vector.obj
 0001:00006a90       ??$publish_segment@PAX@helper@concurrent_vector_base_v3@internal@tbb@@SAXAAVsegment_t@123@PAX@Z 10007a90 f i concurrent_vector.obj
 0001:00006ad0       ??$publish_segment@Usegment_allocation_failed@concurrent_vector_base_v3@internal@tbb@@@helper@concurrent_vector_base_v3@internal@tbb@@SAXAAVsegment_t@123@Usegment_allocation_failed@123@@Z 10007ad0 f i concurrent_vector.obj
 0001:00006b10       ??$publish_segment@Usegment_not_used@concurrent_vector_base_v3@internal@tbb@@@helper@concurrent_vector_base_v3@internal@tbb@@SAXAAVsegment_t@123@Usegment_not_used@123@@Z 10007b10 f i concurrent_vector.obj
 0001:00006b50       ??$spin_wait_while@Usegment_not_used_predicate@helper@concurrent_vector_base_v3@internal@tbb@@@internal@tbb@@YAXUsegment_not_used_predicate@helper@concurrent_vector_base_v3@01@@Z 10007b50 f i concurrent_vector.obj
 0001:00006bd0       ??$spin_wait_while_eq@U?$atomic@PAVsegment_t@concurrent_vector_base_v3@internal@tbb@@@tbb@@PAVsegment_t@concurrent_vector_base_v3@internal@2@@internal@tbb@@YAXADU?$atomic@PAVsegment_t@concurrent_vector_base_v3@internal@tbb@@@1@PAVsegment_t@concurrent_vector_base_v3@01@@Z 10007bd0 f i concurrent_vector.obj
 0001:00006c50       ??$store@$01@?$atomic_impl@I@internal@tbb@@QAEXI@Z 10007c50 f i concurrent_vector.obj
 0001:00006c90       ??$store@$01@?$atomic_impl@PAX@internal@tbb@@QAEXPAX@Z 10007c90 f i concurrent_vector.obj
 0001:00006cd0       ??$store@$01@segment_t@concurrent_vector_base_v3@internal@tbb@@QAEXPAX@Z 10007cd0 f i concurrent_vector.obj
 0001:00006d80       ??$store@$01@segment_t@concurrent_vector_base_v3@internal@tbb@@QAEXUsegment_allocation_failed@123@@Z 10007d80 f i concurrent_vector.obj
 0001:00006e00       ??$store@$01@segment_t@concurrent_vector_base_v3@internal@tbb@@QAEXUsegment_not_used@123@@Z 10007e00 f i concurrent_vector.obj
 0001:00006e30       ??$store@$02@?$atomic_impl@I@internal@tbb@@QAEXI@Z 10007e30 f i concurrent_vector.obj
 0001:00006e70       ??$store@$02@?$atomic_impl@PAVsegment_t@concurrent_vector_base_v3@internal@tbb@@@internal@tbb@@QAEXPAVsegment_t@concurrent_vector_base_v3@12@@Z 10007e70 f i concurrent_vector.obj
 0001:00006eb0       ??$store@$02@?$atomic_impl@PAX@internal@tbb@@QAEXPAX@Z 10007eb0 f i concurrent_vector.obj
 0001:00006ef0       ??$store@$02@segment_t@concurrent_vector_base_v3@internal@tbb@@QAEXPAX@Z 10007ef0 f i concurrent_vector.obj
 0001:00006fa0       ??$store@$02@segment_t@concurrent_vector_base_v3@internal@tbb@@QAEXUsegment_not_used@123@@Z 10007fa0 f i concurrent_vector.obj
 0001:00006fd0       ??$store@$02I@tbb@@YAXAAU?$atomic@I@0@I@Z 10007fd0 f i concurrent_vector.obj
 0001:00006ff0       ??$store@$02PAVsegment_t@concurrent_vector_base_v3@internal@tbb@@@tbb@@YAXAAU?$atomic@PAVsegment_t@concurrent_vector_base_v3@internal@tbb@@@0@PAVsegment_t@concurrent_vector_base_v3@internal@0@@Z 10007ff0 f i concurrent_vector.obj
 0001:00007010       ??$store@$02PAX@tbb@@YAXAAU?$atomic@PAX@0@PAX@Z 10008010 f i concurrent_vector.obj
 0001:00007030       ??$store@H@?$atomic_load_store_traits@$01@internal@tbb@@SAXACHH@Z 10008030 f i concurrent_vector.obj
 0001:00007050       ??$store@H@?$atomic_load_store_traits@$02@internal@tbb@@SAXACHH@Z 10008050 f i concurrent_vector.obj
 0001:00007070       ??$swap@$02I@internal@tbb@@YAXAAU?$atomic@I@1@0@Z 10008070 f i concurrent_vector.obj
 0001:000070d0       ??$swap@$02PAVsegment_t@concurrent_vector_base_v3@internal@tbb@@@internal@tbb@@YAXAAU?$atomic@PAVsegment_t@concurrent_vector_base_v3@internal@tbb@@@1@0@Z 100080d0 f i concurrent_vector.obj
 0001:00007130       ??$swap@$02PAX@internal@tbb@@YAXAAU?$atomic@PAX@1@0@Z 10008130 f i concurrent_vector.obj
 0001:00007190       ??$to_bits@PAVsegment_t@concurrent_vector_base_v3@internal@tbb@@@?$atomic_impl@PAVsegment_t@concurrent_vector_base_v3@internal@tbb@@@internal@tbb@@CAHPAVsegment_t@concurrent_vector_base_v3@12@@Z 10008190 f i concurrent_vector.obj
 0001:000071c0       ??$to_bits@PAX@?$atomic_impl@PAX@internal@tbb@@CAHPAX@Z 100081c0 f i concurrent_vector.obj
 0001:000071f0       ??$to_bits_ref@$$CBI@?$atomic_impl@I@internal@tbb@@CAAAHABI@Z 100081f0 f i concurrent_vector.obj
 0001:00007220       ??$to_bits_ref@PAVsegment_t@concurrent_vector_base_v3@internal@tbb@@@?$atomic_impl@PAVsegment_t@concurrent_vector_base_v3@internal@tbb@@@internal@tbb@@CAAAHAAPAVsegment_t@concurrent_vector_base_v3@12@@Z 10008220 f i concurrent_vector.obj
 0001:00007250       ??$to_bits_ref@PAX@?$atomic_impl@PAX@internal@tbb@@CAAAHAAPAX@Z 10008250 f i concurrent_vector.obj
 0001:00007280       ??$to_bits_ref@QAVsegment_t@concurrent_vector_base_v3@internal@tbb@@@?$atomic_impl@PAVsegment_t@concurrent_vector_base_v3@internal@tbb@@@internal@tbb@@CAAAHABQAVsegment_t@concurrent_vector_base_v3@12@@Z 10008280 f i concurrent_vector.obj
 0001:000072b0       ??$to_bits_ref@QAX@?$atomic_impl@PAX@internal@tbb@@CAAAHABQAX@Z 100082b0 f i concurrent_vector.obj
 0001:000072e0       ??$to_bits_ref@SAVsegment_t@concurrent_vector_base_v3@internal@tbb@@@?$atomic_impl@PAVsegment_t@concurrent_vector_base_v3@internal@tbb@@@internal@tbb@@CAAAHADSAVsegment_t@concurrent_vector_base_v3@12@@Z 100082e0 f i concurrent_vector.obj
 0001:00007310       ??$to_value@PAVsegment_t@concurrent_vector_base_v3@internal@tbb@@@?$atomic_impl@PAVsegment_t@concurrent_vector_base_v3@internal@tbb@@@internal@tbb@@CAPAVsegment_t@concurrent_vector_base_v3@12@H@Z 10008310 f i concurrent_vector.obj
 0001:00007380       ??$to_value@PAX@?$atomic_impl@PAX@internal@tbb@@CAPAXH@Z 10008380 f i concurrent_vector.obj
 0001:000073f0       ??$uninitialized_fill_n@PAVsegment_t@concurrent_vector_base_v3@internal@tbb@@IV1234@@std@@YAPAVsegment_t@concurrent_vector_base_v3@internal@tbb@@PAV1234@IABV1234@@Z 100083f0 f i concurrent_vector.obj
 0001:00007510       ??0?$_Uninitialized_backout@PAVsegment_t@concurrent_vector_base_v3@internal@tbb@@@std@@QAE@PAVsegment_t@concurrent_vector_base_v3@internal@tbb@@@Z 10008510 f i concurrent_vector.obj
 0001:00007540       ??0?$converter@PAVsegment_t@concurrent_vector_base_v3@internal@tbb@@@?$atomic_impl@PAVsegment_t@concurrent_vector_base_v3@internal@tbb@@@internal@tbb@@QAE@PAVsegment_t@concurrent_vector_base_v3@23@@Z 10008540 f i concurrent_vector.obj
 0001:00007560       ??0?$converter@PAVsegment_t@concurrent_vector_base_v3@internal@tbb@@@?$atomic_impl@PAVsegment_t@concurrent_vector_base_v3@internal@tbb@@@internal@tbb@@QAE@XZ 10008560 f i concurrent_vector.obj
 0001:00007580       ??0?$converter@PAX@?$atomic_impl@PAX@internal@tbb@@QAE@PAX@Z 10008580 f i concurrent_vector.obj
 0001:000075a0       ??0?$converter@PAX@?$atomic_impl@PAX@internal@tbb@@QAE@XZ 100085a0 f i concurrent_vector.obj
 0001:000075c0       ??0?$ptr_converter@PAPAVsegment_t@concurrent_vector_base_v3@internal@tbb@@@?$atomic_impl@PAVsegment_t@concurrent_vector_base_v3@internal@tbb@@@internal@tbb@@QAE@PAPAVsegment_t@concurrent_vector_base_v3@23@@Z 100085c0 f i concurrent_vector.obj
 0001:000075e0       ??0?$ptr_converter@PAPAX@?$atomic_impl@PAX@internal@tbb@@QAE@PAPAX@Z 100085e0 f i concurrent_vector.obj
 0001:00007600       ??0?$ptr_converter@PBI@?$atomic_impl@I@internal@tbb@@QAE@PBI@Z 10008600 f i concurrent_vector.obj
 0001:00007620       ??0?$ptr_converter@PBQAVsegment_t@concurrent_vector_base_v3@internal@tbb@@@?$atomic_impl@PAVsegment_t@concurrent_vector_base_v3@internal@tbb@@@internal@tbb@@QAE@PBQAVsegment_t@concurrent_vector_base_v3@23@@Z 10008620 f i concurrent_vector.obj
 0001:00007640       ??0?$ptr_converter@PBQAX@?$atomic_impl@PAX@internal@tbb@@QAE@PBQAX@Z 10008640 f i concurrent_vector.obj
 0001:00007660       ??0?$ptr_converter@PDSAVsegment_t@concurrent_vector_base_v3@internal@tbb@@@?$atomic_impl@PAVsegment_t@concurrent_vector_base_v3@internal@tbb@@@internal@tbb@@QAE@PDSAVsegment_t@concurrent_vector_base_v3@23@@Z 10008660 f i concurrent_vector.obj
 0001:00007680       ??0destroy_body@helper@concurrent_vector_base_v3@internal@tbb@@QAE@P6AXPAXI@Z@Z 10008680 f i concurrent_vector.obj
 0001:000076a0       ??0helper@concurrent_vector_base_v3@internal@tbb@@QAE@PAVsegment_t@123@IIIII@Z 100086a0 f i concurrent_vector.obj
 0001:00007700       ??0init_body@helper@concurrent_vector_base_v3@internal@tbb@@QAE@P6AXPAXPBXI@Z1@Z 10008700 f i concurrent_vector.obj
 0001:00007730       ??0safe_init_body@helper@concurrent_vector_base_v3@internal@tbb@@QAE@P6AXPAXPBXI@Z1@Z 10008730 f i concurrent_vector.obj
 0001:00007760       ??0segment_not_used_predicate@helper@concurrent_vector_base_v3@internal@tbb@@QAE@AAVsegment_t@234@@Z 10008760 f i concurrent_vector.obj
 0001:000077b0       ??0segment_t@concurrent_vector_base_v3@internal@tbb@@QAE@ABV0123@@Z 100087b0 f i concurrent_vector.obj
 0001:000077f0       ??0segment_t@concurrent_vector_base_v3@internal@tbb@@QAE@XZ 100087f0 f i concurrent_vector.obj
 0001:00007830       ??0segment_value_t@concurrent_vector_base_v3@internal@tbb@@AAE@PAX@Z 10008830 f i concurrent_vector.obj
 0001:00007850       ??1?$_Uninitialized_backout@PAVsegment_t@concurrent_vector_base_v3@internal@tbb@@@std@@QAE@XZ 10008850 f i concurrent_vector.obj
 0001:00007890       ??1helper@concurrent_vector_base_v3@internal@tbb@@QAE@XZ 10008890 f i concurrent_vector.obj
 0001:00007990       ??1segment_t@concurrent_vector_base_v3@internal@tbb@@QAE@XZ 10008990 f i concurrent_vector.obj
 0001:00007a30       ??4?$atomic@PAVsegment_t@concurrent_vector_base_v3@internal@tbb@@@tbb@@QAEPAVsegment_t@concurrent_vector_base_v3@internal@1@PAV2341@@Z 10008a30 f i concurrent_vector.obj
 0001:00007a60       ??4segment_t@concurrent_vector_base_v3@internal@tbb@@QAEAAV0123@ABV0123@@Z 10008a60 f i concurrent_vector.obj
 0001:00007aa0       ??8internal@tbb@@YA_NABVsegment_value_t@concurrent_vector_base_v3@01@Usegment_allocated@301@@Z 10008aa0 f i concurrent_vector.obj
 0001:00007ad0       ??8internal@tbb@@YA_NABVsegment_value_t@concurrent_vector_base_v3@01@Usegment_allocation_failed@301@@Z 10008ad0 f i concurrent_vector.obj
 0001:00007b00       ??8internal@tbb@@YA_NABVsegment_value_t@concurrent_vector_base_v3@01@Usegment_not_used@301@@Z 10008b00 f i concurrent_vector.obj
 0001:00007b30       ??B?$atomic_impl@PAVsegment_t@concurrent_vector_base_v3@internal@tbb@@@internal@tbb@@QDEPAVsegment_t@concurrent_vector_base_v3@12@XZ 10008b30 f i concurrent_vector.obj
 0001:00007b70       ??Rdestroy_body@helper@concurrent_vector_base_v3@internal@tbb@@QBEXAAVsegment_t@234@PAXI@Z 10008b70 f i concurrent_vector.obj
 0001:00007be0       ??Rinit_body@helper@concurrent_vector_base_v3@internal@tbb@@QBEXAAVsegment_t@234@PAXI@Z 10008be0 f i concurrent_vector.obj
 0001:00007c30       ??Rsafe_init_body@helper@concurrent_vector_base_v3@internal@tbb@@QBEXAAVsegment_t@234@PAXI@Z 10008c30 f i concurrent_vector.obj
 0001:00007ca0       ??Rsegment_not_used_predicate@helper@concurrent_vector_base_v3@internal@tbb@@QBE_NXZ 10008ca0 f i concurrent_vector.obj
 0001:00007cf0       ??_Gsegment_t@concurrent_vector_base_v3@internal@tbb@@QAEPAXI@Z 10008cf0 f i concurrent_vector.obj
 0001:00007d30       ?_Release@?$_Uninitialized_backout@PAVsegment_t@concurrent_vector_base_v3@internal@tbb@@@std@@QAEPAVsegment_t@concurrent_vector_base_v3@internal@tbb@@XZ 10008d30 f i concurrent_vector.obj
 0001:00007d60       ?acquire_segment@helper@concurrent_vector_base_v3@internal@tbb@@SAAAVsegment_t@234@AAV234@II_N@Z 10008d60 f i concurrent_vector.obj
 0001:00007e80       ?allocate_segment@helper@concurrent_vector_base_v3@internal@tbb@@SAPAXAAV234@I@Z 10008e80 f i concurrent_vector.obj
 0001:00007ed0       ?assign_first_segment_if_necessary@helper@concurrent_vector_base_v3@internal@tbb@@SAXAAV234@I@Z 10008ed0 f i concurrent_vector.obj
 0001:00007f00       ?compare_and_swap@?$atomic_impl@PAVsegment_t@concurrent_vector_base_v3@internal@tbb@@@internal@tbb@@QAEPAVsegment_t@concurrent_vector_base_v3@23@PAV4523@0@Z 10008f00 f i concurrent_vector.obj
 0001:00007f50       ?enforce_segment_allocated@internal@tbb@@YAXABVsegment_value_t@concurrent_vector_base_v3@12@W4exception_id@12@@Z 10008f50 f i concurrent_vector.obj
 0001:00007f90       ?extend_table_if_necessary@helper@concurrent_vector_base_v3@internal@tbb@@SAXAAV234@II@Z 10008f90 f i concurrent_vector.obj
 0001:00007fd0       ?fetch_and_add@?$atomic_traits@$03$00@internal@tbb@@SAHPCXH@Z 10008fd0 f i concurrent_vector.obj
 0001:00007ff0       ?find_segment_end@helper@concurrent_vector_base_v3@internal@tbb@@SAIABV234@@Z 10008ff0 f i concurrent_vector.obj
 0001:00008090       ?first_segment@helper@concurrent_vector_base_v3@internal@tbb@@QAEXXZ 10009090 f i concurrent_vector.obj
 0001:000081b0       ?get_segment_value@helper@concurrent_vector_base_v3@internal@tbb@@QAE?AVsegment_value_t@234@I_N@Z 100091b0 f i concurrent_vector.obj
 0001:00008280       ?incompact_predicate@helper@concurrent_vector_base_v3@internal@tbb@@SA_NI@Z 10009280 f i concurrent_vector.obj
 0001:000082d0       ?load@?$machine_load_store_relaxed@H$03@internal@tbb@@SAHADH@Z 100092d0 f i concurrent_vector.obj
 0001:000082e0       ?next_segment@helper@concurrent_vector_base_v3@internal@tbb@@QAEXXZ 100092e0 f i concurrent_vector.obj
 0001:00008360       ?segment_base@concurrent_vector_base_v3@internal@tbb@@KAII@Z 10009360 f i concurrent_vector.obj
 0001:00008380       ?segment_index_of@concurrent_vector_base_v3@internal@tbb@@KAII@Z 10009380 f i concurrent_vector.obj
 0001:000083a0       ?segment_size@concurrent_vector_base_v3@internal@tbb@@KAII@Z 100093a0 f i concurrent_vector.obj
 0001:000083b0       ?store@?$machine_load_store_relaxed@H$03@internal@tbb@@SAXACHH@Z 100093b0 f i concurrent_vector.obj
 0001:000083c0       ?store_with_release@?$atomic_impl@PAVsegment_t@concurrent_vector_base_v3@internal@tbb@@@internal@tbb@@IAEPAVsegment_t@concurrent_vector_base_v3@23@PAV4523@@Z 100093c0 f i concurrent_vector.obj
 0001:00008410       ?swap@internal@tbb@@YAXAAVsegment_t@concurrent_vector_base_v3@12@0@Z 10009410 f i concurrent_vector.obj
 0001:00008460       ?swap@segment_t@concurrent_vector_base_v3@internal@tbb@@QAEXAAV1234@@Z 10009460 f i concurrent_vector.obj
 0001:00008490       ?dynamic_link@internal@tbb@@YA_NPBDQBUdynamic_link_descriptor@12@IPAPAUHINSTANCE__@@H@Z 10009490 f   dynamic_link.obj
 0001:00008550       ?dynamic_unlink@internal@tbb@@YAXPAUHINSTANCE__@@@Z 10009550 f   dynamic_link.obj
 0001:00008580       ?dynamic_unlink_all@internal@tbb@@YAXXZ 10009580 f   dynamic_link.obj
 0001:00008730       ?init_atomic_incrementer@internal@tbb@@YAXAAU?$atomic@I@2@@Z 10009730 f   dynamic_link.obj
 0001:000089c0       ?init_dynamic_link_data@internal@tbb@@YAXXZ 100099c0 f   dynamic_link.obj
 0001:00008b00       ?dynamic_load@internal@tbb@@YAPAUHINSTANCE__@@PBDQBUdynamic_link_descriptor@12@I@Z 10009b00 f   dynamic_link.obj
 0001:00008ca0       ??$atomic_do_once@P6AXXZ@internal@tbb@@YAXABQ6AXXZAAU?$atomic@W4do_once_state@internal@tbb@@@1@@Z 10009ca0 f i dynamic_link.obj
 0001:00008d00       ??$compare_and_swap@$0A@@?$atomic_impl@W4do_once_state@internal@tbb@@@internal@tbb@@QAE?AW4do_once_state@12@W4312@0@Z 10009d00 f i dynamic_link.obj
 0001:00008d50       ??$spin_wait_while_eq@U?$atomic@W4do_once_state@internal@tbb@@@tbb@@W4do_once_state@internal@2@@internal@tbb@@YAXADU?$atomic@W4do_once_state@internal@tbb@@@1@W4do_once_state@01@@Z 10009d50 f i dynamic_link.obj
 0001:00008dd0       ??$suppress_unused_warning@PBD@internal@tbb@@YAXABQBD@Z 10009dd0 f i dynamic_link.obj
 0001:00008de0       ??$suppress_unused_warning@PBDQBUdynamic_link_descriptor@internal@tbb@@I@internal@tbb@@YAXABQBDABQBUdynamic_link_descriptor@01@ABI@Z 10009de0 f i dynamic_link.obj
 0001:00008df0       ??$to_bits@W4do_once_state@internal@tbb@@@?$atomic_impl@W4do_once_state@internal@tbb@@@internal@tbb@@CAHW4do_once_state@12@@Z 10009df0 f i dynamic_link.obj
 0001:00008e20       ??$to_bits_ref@$$CDW4do_once_state@internal@tbb@@@?$atomic_impl@W4do_once_state@internal@tbb@@@internal@tbb@@CAAAHADW4do_once_state@12@@Z 10009e20 f i dynamic_link.obj
 0001:00008e50       ??$to_bits_ref@W4do_once_state@internal@tbb@@@?$atomic_impl@W4do_once_state@internal@tbb@@@internal@tbb@@CAAAHAAW4do_once_state@12@@Z 10009e50 f i dynamic_link.obj
 0001:00008e80       ??$to_value@W4do_once_state@internal@tbb@@@?$atomic_impl@W4do_once_state@internal@tbb@@@internal@tbb@@CA?AW4do_once_state@12@H@Z 10009e80 f i dynamic_link.obj
 0001:00008ef0       ??0?$converter@W4do_once_state@internal@tbb@@@?$atomic_impl@W4do_once_state@internal@tbb@@@internal@tbb@@QAE@W4do_once_state@23@@Z 10009ef0 f i dynamic_link.obj
 0001:00008f10       ??0?$converter@W4do_once_state@internal@tbb@@@?$atomic_impl@W4do_once_state@internal@tbb@@@internal@tbb@@QAE@XZ 10009f10 f i dynamic_link.obj
 0001:00008f30       ??0?$ptr_converter@PAW4do_once_state@internal@tbb@@@?$atomic_impl@W4do_once_state@internal@tbb@@@internal@tbb@@QAE@PAW4do_once_state@23@@Z 10009f30 f i dynamic_link.obj
 0001:00008f50       ??0?$ptr_converter@PDW4do_once_state@internal@tbb@@@?$atomic_impl@W4do_once_state@internal@tbb@@@internal@tbb@@QAE@PDW4do_once_state@23@@Z 10009f50 f i dynamic_link.obj
 0001:00008f70       ??0static_init_dl_data_t@internal@tbb@@QAE@XZ 10009f70 f i dynamic_link.obj
 0001:00008fa0       ??4?$atomic@W4do_once_state@internal@tbb@@@tbb@@QAE?AW4do_once_state@internal@1@W4231@@Z 10009fa0 f i dynamic_link.obj
 0001:00008fd0       ??B?$atomic_impl@W4do_once_state@internal@tbb@@@internal@tbb@@QDE?AW4do_once_state@12@XZ 10009fd0 f i dynamic_link.obj
 0001:00009010       ?add@handles_t@internal@tbb@@QAEXABQAUHINSTANCE__@@@Z 1000a010 f i dynamic_link.obj
 0001:00009080       ?compare_and_swap@?$atomic_impl@W4do_once_state@internal@tbb@@@internal@tbb@@QAE?AW4do_once_state@23@W4423@0@Z 1000a080 f i dynamic_link.obj
 0001:000090b0       ?free@handles_t@internal@tbb@@QAEXXZ 1000a0b0 f i dynamic_link.obj
 0001:00009120       ?init@handles_t@internal@tbb@@QAEXXZ 1000a120 f i dynamic_link.obj
 0001:00009150       ?run_initializer@internal@tbb@@YAXP6AXXZAAU?$atomic@W4do_once_state@internal@tbb@@@2@@Z 1000a150 f i dynamic_link.obj
 0001:00009180       ?store_with_release@?$atomic_impl@W4do_once_state@internal@tbb@@@internal@tbb@@IAE?AW4do_once_state@23@W4423@@Z 1000a180 f i dynamic_link.obj
 0001:000091d0       ?strrchr@@YAPADQADH@Z      1000a1d0 f i dynamic_link.obj
 0001:000091f0       ___itt_mark_pt_region_begin 1000a1f0 f   itt_notify.obj
 0001:00009200       ___itt_mark_pt_region_end  1000a200 f   itt_notify.obj
 0001:00009210       ___itt_set_error_handler   1000a210 f   itt_notify.obj
 0001:00009240       ___itt_fini_ittlib         1000a240 f   itt_notify.obj
 0001:0000ea60       ___itt_init_ittlib         1000fa60 f   itt_notify.obj
 0001:0000ee40       ?__TBB_load_ittnotify@internal@tbb@@YAHXZ 1000fe40 f   itt_notify.obj
 0001:0000ee60       ?__itt_interlocked_increment@@YAJPCJ@Z 1000fe60 f i itt_notify.obj
 0001:0000ee80       ?NFS_GetLineSize@internal@tbb@@YAIXZ 1000fe80 f   cache_aligned_allocator.obj
 0001:0000ee90       ?NFS_Allocate@internal@tbb@@YAPAXIIPAX@Z 1000fe90 f   cache_aligned_allocator.obj
 0001:0000efc0       ?NFS_Free@internal@tbb@@YAXPAX@Z 1000ffc0 f   cache_aligned_allocator.obj
 0001:0000eff0       ?deallocate_via_handler_v3@internal@tbb@@YAXPAX@Z 1000fff0 f   cache_aligned_allocator.obj
 0001:0000f020       ?allocate_via_handler_v3@internal@tbb@@YAPAXI@Z 10010020 f   cache_aligned_allocator.obj
 0001:0000f070       ?is_malloc_used_v3@internal@tbb@@YA_NXZ 10010070 f   cache_aligned_allocator.obj
 0001:0000f450       ?initialize_handler_pointers@internal@tbb@@YAXXZ 10010450 f   cache_aligned_allocator.obj
 0001:0000f510       ?initialize_cache_aligned_allocator@internal@tbb@@YAXXZ 10010510 f   cache_aligned_allocator.obj
 0001:0000f550       ??$is_aligned@X@internal@tbb@@YA_NPAXI@Z 10010550 f i cache_aligned_allocator.obj
 0001:0000f590       ?set_end_of_input@filter@tbb@@IAEXXZ 10010590 f   pipeline.obj
 0001:0000f650       ??1filter@tbb@@UAE@XZ      10010650 f   pipeline.obj
 0001:0000f730       ?has_more_work@filter@tbb@@AAE_NXZ 10010730 f   pipeline.obj
 0001:0000f7d0       ?try_process_item@thread_bound_filter@tbb@@QAE?AW4result_type@12@XZ 100107d0 f   pipeline.obj
 0001:0000f800       ?process_item@thread_bound_filter@tbb@@QAE?AW4result_type@12@XZ 10010800 f   pipeline.obj
 0001:0000f830       ?internal_process_item@thread_bound_filter@tbb@@AAE?AW4result_type@12@_N@Z 10010830 f   pipeline.obj
 0001:0000fb30       ??0pipeline@tbb@@QAE@XZ    10010b30 f   pipeline.obj
 0001:0000fba0       ??1pipeline@tbb@@UAE@XZ    10010ba0 f   pipeline.obj
 0001:0000fc00       ?add_filter@pipeline@tbb@@QAEXAAVfilter@2@@Z 10010c00 f   pipeline.obj
 0001:0000ff40       ?run@pipeline@tbb@@QAEXI@Z 10010f40 f   pipeline.obj
 0001:00010050       ?run@pipeline@tbb@@QAEXIAAVtask_group_context@2@@Z 10011050 f   pipeline.obj
 0001:00010250       ?clear@pipeline@tbb@@QAEXXZ 10011250 f   pipeline.obj
 0001:00010340       ?remove_filter@pipeline@tbb@@AAEXAAVfilter@2@@Z 10011340 f   pipeline.obj
 0001:00010500       ?inject_token@pipeline@tbb@@AAEXAAVtask@2@@Z 10011500 f   pipeline.obj
 0001:00010540       ?clear_filters@pipeline@tbb@@AAEXXZ 10011540 f   pipeline.obj
 0001:000105c0       ?grow@input_buffer@internal@tbb@@AAEXK@Z 100115c0 f   pipeline.obj
 0001:00010700       ?execute@stage_task@internal@tbb@@UAEPAVtask@3@XZ 10011700 f   pipeline.obj
 0001:00010cd0       ??$fetch_and_add@$0A@@?$atomic_impl_with_arithmetic@KKD@internal@tbb@@QAEKK@Z 10011cd0 f i pipeline.obj
 0001:00010d00       ??$note_done@Vstage_task@internal@tbb@@@input_buffer@internal@tbb@@QAEXKAAVstage_task@12@@Z 10011d00 f i pipeline.obj
 0001:00010e60       ??$poison_pointer@Utask_info@internal@tbb@@@internal@tbb@@YAXAAPAUtask_info@01@@Z 10011e60 f i pipeline.obj
 0001:00010e70       ??$suppress_unused_warning@PAVtask@tbb@@@internal@tbb@@YAXABQAVtask@1@@Z 10011e70 f i pipeline.obj
 0001:00010e80       ??$to_bits@K@?$atomic_impl@K@internal@tbb@@CAHK@Z 10011e80 f i pipeline.obj
 0001:00010eb0       ??$to_bits_ref@$$CDK@?$atomic_impl@K@internal@tbb@@CAAAHADK@Z 10011eb0 f i pipeline.obj
 0001:00010ee0       ??$to_bits_ref@K@?$atomic_impl@K@internal@tbb@@CAAAHAAK@Z 10011ee0 f i pipeline.obj
 0001:00010f10       ??$to_value@K@?$atomic_impl@K@internal@tbb@@CAKH@Z 10011f10 f i pipeline.obj
 0001:00010f80       ??0?$cache_aligned_allocator@Utask_info@internal@tbb@@@tbb@@QAE@XZ 10011f80 f i pipeline.obj
 0001:00010fa0       ??0?$converter@K@?$atomic_impl@K@internal@tbb@@QAE@K@Z 10011fa0 f i pipeline.obj
 0001:00010fc0       ??0?$converter@K@?$atomic_impl@K@internal@tbb@@QAE@XZ 10011fc0 f i pipeline.obj
 0001:00010fe0       ??0?$ptr_converter@PAK@?$atomic_impl@K@internal@tbb@@QAE@PAK@Z 10011fe0 f i pipeline.obj
 0001:00011000       ??0?$ptr_converter@PDK@?$atomic_impl@K@internal@tbb@@QAE@PDK@Z 10012000 f i pipeline.obj
 0001:00011020       ??0allocate_additional_child_of_proxy@internal@tbb@@QAE@AAVtask@2@@Z 10012020 f i pipeline.obj
 0001:00011060       ??0allocate_root_with_context_proxy@internal@tbb@@QAE@AAVtask_group_context@2@@Z 10012060 f i pipeline.obj
 0001:00011080       ??0input_buffer@internal@tbb@@QAE@_N0@Z 10012080 f i pipeline.obj
 0001:00011140       ??0pipeline_cleaner@internal@tbb@@QAE@AAVpipeline@2@@Z 10012140 f i pipeline.obj
 0001:00011160       ??0pipeline_root_task@internal@tbb@@QAE@AAVpipeline@2@@Z 10012160 f i pipeline.obj
 0001:00011290       ??0semaphore@internal@tbb@@QAE@I@Z 10012290 f i pipeline.obj
 0001:000112c0       ??0stage_task@internal@tbb@@QAE@AAVpipeline@2@@Z 100122c0 f i pipeline.obj
 0001:00011360       ??0stage_task@internal@tbb@@QAE@AAVpipeline@2@PAVfilter@2@ABUtask_info@12@@Z 10012360 f i pipeline.obj
 0001:000113d0       ??0task@tbb@@IAE@XZ        100123d0 f i pipeline.obj
 0001:00011410       ??0task_group_context@tbb@@QAE@W4kind_type@01@I@Z 10012410 f i pipeline.obj
 0001:00011460       ??0task_list@tbb@@QAE@XZ   10012460 f i pipeline.obj
 0001:00011490       ??1input_buffer@internal@tbb@@QAE@XZ 10012490 f i pipeline.obj
 0001:00011550       ??1pipeline_cleaner@internal@tbb@@QAE@XZ 10012550 f i pipeline.obj
 0001:000115d0       ??1pipeline_root_task@internal@tbb@@UAE@XZ 100125d0 f i pipeline.obj
 0001:00011600       ??1semaphore@internal@tbb@@QAE@XZ 10012600 f i pipeline.obj
 0001:00011640       ??1stage_task@internal@tbb@@UAE@XZ 10012640 f i pipeline.obj
 0001:00011720       ??1task@tbb@@UAE@XZ        10012720 f i pipeline.obj
 0001:00011740       ??1task_list@tbb@@QAE@XZ   10012740 f i pipeline.obj
 0001:00011760       ??2@YAPAXIABVallocate_additional_child_of_proxy@internal@tbb@@@Z 10012760 f i pipeline.obj
 0001:00011780       ??2@YAPAXIABVallocate_child_proxy@internal@tbb@@@Z 10012780 f i pipeline.obj
 0001:000117a0       ??2@YAPAXIABVallocate_root_with_context_proxy@internal@tbb@@@Z 100127a0 f i pipeline.obj
 0001:000117c0       ??3@YAXPAXABVallocate_additional_child_of_proxy@internal@tbb@@@Z 100127c0 f i pipeline.obj
 0001:00011810       ??3@YAXPAXABVallocate_child_proxy@internal@tbb@@@Z 10012810 f i pipeline.obj
 0001:00011860       ??3@YAXPAXABVallocate_root_with_context_proxy@internal@tbb@@@Z 10012860 f i pipeline.obj
 0001:000118b0       ??4?$atomic@K@tbb@@QAEKK@Z 100128b0 f i pipeline.obj
 0001:000118e0       ??B?$atomic_impl@K@internal@tbb@@QDEKXZ 100128e0 f i pipeline.obj
 0001:00011920       ??E?$atomic_impl_with_arithmetic@KKD@internal@tbb@@QAEKH@Z 10012920 f i pipeline.obj
 0001:00011950       ??E?$atomic_impl_with_arithmetic@KKD@internal@tbb@@QAEKXZ 10012950 f i pipeline.obj
 0001:00011980       ??F?$atomic_impl_with_arithmetic@KKD@internal@tbb@@QAEKH@Z 10012980 f i pipeline.obj
 0001:000119b0       ??F?$atomic_impl_with_arithmetic@KKD@internal@tbb@@QAEKXZ 100129b0 f i pipeline.obj
 0001:000119e0       ??_Efilter@tbb@@UAEPAXI@Z  100129e0 f i pipeline.obj
 0001:000119e0       ??_Gfilter@tbb@@UAEPAXI@Z  100129e0 f i pipeline.obj
 0001:00011a20       ??_Ginput_buffer@internal@tbb@@QAEPAXI@Z 10012a20 f i pipeline.obj
 0001:00011a60       ??_Epipeline@tbb@@UAEPAXI@Z 10012a60 f i pipeline.obj
 0001:00011a60       ??_Gpipeline@tbb@@UAEPAXI@Z 10012a60 f i pipeline.obj
 0001:00011aa0       ??_Gpipeline_root_task@internal@tbb@@UAEPAXI@Z 10012aa0 f i pipeline.obj
 0001:00011aa0       ??_Epipeline_root_task@internal@tbb@@UAEPAXI@Z 10012aa0 f i pipeline.obj
 0001:00011ae0       ??_Gsemaphore@internal@tbb@@QAEPAXI@Z 10012ae0 f i pipeline.obj
 0001:00011b20       ??_Estage_task@internal@tbb@@UAEPAXI@Z 10012b20 f i pipeline.obj
 0001:00011b20       ??_Gstage_task@internal@tbb@@UAEPAXI@Z 10012b20 f i pipeline.obj
 0001:00011b60       ??_Etask@tbb@@UAEPAXI@Z    10012b60 f i pipeline.obj
 0001:00011b60       ??_Gtask@tbb@@UAEPAXI@Z    10012b60 f i pipeline.obj
 0001:00011ba0       ?P@semaphore@internal@tbb@@QAEXXZ 10012ba0 f i pipeline.obj
 0001:00011be0       ?V@semaphore@internal@tbb@@QAEXXZ 10012be0 f i pipeline.obj
 0001:00011c20       ?allocate@?$cache_aligned_allocator@Utask_info@internal@tbb@@@tbb@@QAEPAUtask_info@internal@2@IPBX@Z 10012c20 f i pipeline.obj
 0001:00011c50       ?allocate_additional_child_of@task_base@internal@interface5@tbb@@SA?AVallocate_additional_child_of_proxy@24@AAVtask@4@@Z 10012c50 f i pipeline.obj
 0001:00011c70       ?allocate_child@task@tbb@@QAEAAVallocate_child_proxy@internal@2@XZ 10012c70 f i pipeline.obj
 0001:00011c90       ?allocate_root@task@tbb@@SA?AVallocate_root_with_context_proxy@internal@2@AAVtask_group_context@2@@Z 10012c90 f i pipeline.obj
 0001:00011cb0       ?clear@input_buffer@internal@tbb@@QAEXPAVfilter@3@@Z 10012cb0 f i pipeline.obj
 0001:00011d60       ?clear@task_list@tbb@@QAEXXZ 10012d60 f i pipeline.obj
 0001:00011d90       ?create@?$basic_tls@H@internal@tbb@@QAEHXZ 10012d90 f i pipeline.obj
 0001:00011de0       ?create_my_tls@input_buffer@internal@tbb@@QAEXXZ 10012de0 f i pipeline.obj
 0001:00011e40       ?create_sema@input_buffer@internal@tbb@@AAEXI@Z 10012e40 f i pipeline.obj
 0001:00011f00       ?deallocate@?$cache_aligned_allocator@Utask_info@internal@tbb@@@tbb@@QAEXPAUtask_info@internal@2@I@Z 10012f00 f i pipeline.obj
 0001:00011f30       ?destroy@?$basic_tls@H@internal@tbb@@QAEHXZ 10012f30 f i pipeline.obj
 0001:00011f70       ?destroy_my_tls@input_buffer@internal@tbb@@QAEXXZ 10012f70 f i pipeline.obj
 0001:00011fc0       ?execute@pipeline_root_task@internal@tbb@@EAEPAVtask@3@XZ 10012fc0 f i pipeline.obj
 0001:000123a0       ?fetch_and_add@?$atomic_impl_with_arithmetic@KKD@internal@tbb@@QAEKK@Z 100133a0 f i pipeline.obj
 0001:000123d0       ?finalize@filter@tbb@@UAEXPAX@Z 100133d0 f i pipeline.obj
 0001:000123f0       ?free_sema@input_buffer@internal@tbb@@AAEXXZ 100133f0 f i pipeline.obj
 0001:00012470       ?get@?$basic_tls@H@internal@tbb@@QAEHXZ 10013470 f i pipeline.obj
 0001:000124b0       ?has_item@input_buffer@internal@tbb@@QAE_NXZ 100134b0 f i pipeline.obj
 0001:00012550       ?init_semaphore@semaphore@internal@tbb@@AAEXI@Z 10013550 f i pipeline.obj
 0001:00012590       ?inlineCreateSemaphoreEx@@YGPAXPAU_SECURITY_ATTRIBUTES@@JJPB_WKK@Z 10013590 f i pipeline.obj
 0001:000125c0       ?is_bound@filter@tbb@@QBE_NXZ 100135c0 f i pipeline.obj
 0001:00012600       ?is_cancelled@task@tbb@@QBE_NXZ 10013600 f i pipeline.obj
 0001:00012630       ?is_ordered@filter@tbb@@QBE_NXZ 10013630 f i pipeline.obj
 0001:00012670       ?is_serial@filter@tbb@@QBE_NXZ 10013670 f i pipeline.obj
 0001:00012690       ?my_tls_end_of_input@input_buffer@internal@tbb@@QAE_NXZ 10013690 f i pipeline.obj
 0001:000126e0       ?not_in_pipeline@filter@tbb@@CAPAV12@XZ 100136e0 f i pipeline.obj
 0001:000126f0       ?object_may_be_null@filter@tbb@@QAE_NXZ 100136f0 f i pipeline.obj
 0001:00012730       ?parent@task@tbb@@QBEPAV12@XZ 10013730 f i pipeline.obj
 0001:00012760       ?prefix@task@tbb@@ABEAAVtask_prefix@internal@2@PAUversion_tag_v3@42@@Z 10013760 f i pipeline.obj
 0001:00012780       ?push_back@task_list@tbb@@QAEXAAVtask@2@@Z 10013780 f i pipeline.obj
 0001:000127d0       ?put_token@input_buffer@internal@tbb@@QAE_NAAUtask_info@23@_N@Z 100137d0 f i pipeline.obj
 0001:00012a10       ?recycle_as_continuation@task@tbb@@QAEXXZ 10013a10 f i pipeline.obj
 0001:00012a70       ?reset@stage_task@internal@tbb@@QAEXXZ 10013a70 f i pipeline.obj
 0001:00012ab0       ?reset@task_info@internal@tbb@@QAEXXZ 10013ab0 f i pipeline.obj
 0001:00012af0       ?return_item@input_buffer@internal@tbb@@QAE_NAAUtask_info@23@_N@Z 10013af0 f i pipeline.obj
 0001:00012c40       ?sema_P@input_buffer@internal@tbb@@AAEXXZ 10013c40 f i pipeline.obj
 0001:00012c90       ?sema_V@input_buffer@internal@tbb@@AAEXXZ 10013c90 f i pipeline.obj
 0001:00012ce0       ?set@?$basic_tls@H@internal@tbb@@QAEXH@Z 10013ce0 f i pipeline.obj
 0001:00012d20       ?set_my_tls_end_of_input@input_buffer@internal@tbb@@QAEXXZ 10013d20 f i pipeline.obj
 0001:00012d50       ?set_ref_count@task@tbb@@QAEXH@Z 10013d50 f i pipeline.obj
 0001:00012d80       ?spawn@task_base@internal@interface5@tbb@@SAXAAVtask@4@@Z 10013d80 f i pipeline.obj
 0001:00012de0       ?spawn@task_base@internal@interface5@tbb@@SAXAAVtask_list@4@@Z 10013de0 f i pipeline.obj
 0001:00012e50       ?spawn_root_and_wait@task@tbb@@SAXAAV12@@Z 10013e50 f i pipeline.obj
 0001:00012eb0       ?spawn_stage_task@stage_task@internal@tbb@@QAEXABUtask_info@23@@Z 10013eb0 f i pipeline.obj
 0001:00012f90       ?store_with_release@?$atomic_impl@K@internal@tbb@@IAEKK@Z 10013f90 f i pipeline.obj
 0001:00013030       ?acquire@scoped_lock@queuing_mutex@tbb@@QAEXAAV23@@Z 10014030 f   queuing_mutex.obj
 0001:00013140       ?try_acquire@scoped_lock@queuing_mutex@tbb@@QAE_NAAV23@@Z 10014140 f   queuing_mutex.obj
 0001:000131f0       ?release@scoped_lock@queuing_mutex@tbb@@QAEXXZ 100141f0 f   queuing_mutex.obj
 0001:000132d0       ?internal_construct@queuing_mutex@tbb@@QAEXXZ 100142d0 f   queuing_mutex.obj
 0001:00013320       ??$__TBB_load_with_acquire@I@internal@tbb@@YAIADI@Z 10014320 f i queuing_mutex.obj
 0001:00013340       ??$__TBB_store_with_release@IH@internal@tbb@@YAXACIH@Z 10014340 f i queuing_mutex.obj
 0001:00013360       ??$compare_and_swap@$01@?$atomic_impl@PAVscoped_lock@queuing_mutex@tbb@@@internal@tbb@@QAEPAVscoped_lock@queuing_mutex@2@PAV342@0@Z 10014360 f i queuing_mutex.obj
 0001:000133b0       ??$fetch_and_store@$01@?$atomic_impl@PAVscoped_lock@queuing_mutex@tbb@@@internal@tbb@@QAEPAVscoped_lock@queuing_mutex@2@PAV342@@Z 100143b0 f i queuing_mutex.obj
 0001:000133f0       ??$poison_pointer@Vscoped_lock@queuing_mutex@tbb@@@internal@tbb@@YAXAAPAVscoped_lock@queuing_mutex@1@@Z 100143f0 f i queuing_mutex.obj
 0001:00013400       ??$spin_wait_while_eq@IK@internal@tbb@@YAXADIK@Z 10014400 f i queuing_mutex.obj
 0001:00013480       ??$spin_wait_while_eq@PAVscoped_lock@queuing_mutex@tbb@@PAV123@@internal@tbb@@YAXADSAVscoped_lock@queuing_mutex@1@PAV231@@Z 10014480 f i queuing_mutex.obj
 0001:00013500       ??$to_bits@PAVscoped_lock@queuing_mutex@tbb@@@?$atomic_impl@PAVscoped_lock@queuing_mutex@tbb@@@internal@tbb@@CAHPAVscoped_lock@queuing_mutex@2@@Z 10014500 f i queuing_mutex.obj
 0001:00013530       ??$to_value@PAVscoped_lock@queuing_mutex@tbb@@@?$atomic_impl@PAVscoped_lock@queuing_mutex@tbb@@@internal@tbb@@CAPAVscoped_lock@queuing_mutex@2@H@Z 10014530 f i queuing_mutex.obj
 0001:000135a0       ??0?$converter@PAVscoped_lock@queuing_mutex@tbb@@@?$atomic_impl@PAVscoped_lock@queuing_mutex@tbb@@@internal@tbb@@QAE@PAVscoped_lock@queuing_mutex@3@@Z 100145a0 f i queuing_mutex.obj
 0001:000135c0       ??0?$converter@PAVscoped_lock@queuing_mutex@tbb@@@?$atomic_impl@PAVscoped_lock@queuing_mutex@tbb@@@internal@tbb@@QAE@XZ 100145c0 f i queuing_mutex.obj
 0001:000135e0       ?compare_and_swap@?$atomic_traits@$03$01@internal@tbb@@SAHPCXHH@Z 100145e0 f i queuing_mutex.obj
 0001:00013600       ?fetch_and_store@?$atomic_traits@$03$01@internal@tbb@@SAHPCXH@Z 10014600 f i queuing_mutex.obj
 0001:00013620       ?initialize@scoped_lock@queuing_mutex@tbb@@AAEXXZ 10014620 f i queuing_mutex.obj
 0001:00013660       ?load_with_acquire@?$machine_load_store@I$03@internal@tbb@@SAIADI@Z 10014660 f i queuing_mutex.obj
 0001:00013680       ?store_with_release@?$machine_load_store@I$03@internal@tbb@@SAXACII@Z 10014680 f i queuing_mutex.obj
 0001:00013710       ?acquire@scoped_lock@queuing_rw_mutex@tbb@@QAEXAAV23@_N@Z 10014710 f   queuing_rw_mutex.obj
 0001:00013b00       ?try_acquire@scoped_lock@queuing_rw_mutex@tbb@@QAE_NAAV23@_N@Z 10014b00 f   queuing_rw_mutex.obj
 0001:00013c20       ?release@scoped_lock@queuing_rw_mutex@tbb@@QAEXXZ 10014c20 f   queuing_rw_mutex.obj
 0001:000140f0       ?upgrade_to_writer@scoped_lock@queuing_rw_mutex@tbb@@QAE_NXZ 100150f0 f   queuing_rw_mutex.obj
 0001:000146d0       ?downgrade_to_reader@scoped_lock@queuing_rw_mutex@tbb@@QAE_NXZ 100156d0 f   queuing_rw_mutex.obj
 0001:00014830       ?internal_construct@queuing_rw_mutex@tbb@@QAEXXZ 10015830 f   queuing_rw_mutex.obj
 0001:00014880       ??$__TBB_load_full_fence@H@internal@tbb@@YAHADH@Z 10015880 f i queuing_rw_mutex.obj
 0001:000148a0       ??$__TBB_load_relaxed@PAVscoped_lock@queuing_rw_mutex@tbb@@@internal@tbb@@YAPAVscoped_lock@queuing_rw_mutex@1@ADSAV231@@Z 100158a0 f i queuing_rw_mutex.obj
 0001:000148c0       ??$__TBB_load_with_acquire@E@internal@tbb@@YAEADE@Z 100158c0 f i queuing_rw_mutex.obj
 0001:000148e0       ??$__TBB_load_with_acquire@PAVscoped_lock@queuing_rw_mutex@tbb@@@internal@tbb@@YAPAVscoped_lock@queuing_rw_mutex@1@ADSAV231@@Z 100158e0 f i queuing_rw_mutex.obj
 0001:00014900       ??$__TBB_store_relaxed@EH@internal@tbb@@YAXACEH@Z 10015900 f i queuing_rw_mutex.obj
 0001:00014920       ??$__TBB_store_relaxed@PAVscoped_lock@queuing_rw_mutex@tbb@@PAV123@@internal@tbb@@YAXACRAVscoped_lock@queuing_rw_mutex@1@PAV231@@Z 10015920 f i queuing_rw_mutex.obj
 0001:00014940       ??$__TBB_store_with_release@EE@internal@tbb@@YAXACEE@Z 10015940 f i queuing_rw_mutex.obj
 0001:00014960       ??$__TBB_store_with_release@EH@internal@tbb@@YAXACEH@Z 10015960 f i queuing_rw_mutex.obj
 0001:00014980       ??$__TBB_store_with_release@PAVscoped_lock@queuing_rw_mutex@tbb@@PAV123@@internal@tbb@@YAXACRAVscoped_lock@queuing_rw_mutex@1@PAV231@@Z 10015980 f i queuing_rw_mutex.obj
 0001:000149a0       ??$as_atomic@E@internal@tbb@@YAAAU?$atomic@E@1@AAE@Z 100159a0 f i queuing_rw_mutex.obj
 0001:000149b0       ??$compare_and_swap@$00@?$atomic_impl@E@internal@tbb@@QAEEEE@Z 100159b0 f i queuing_rw_mutex.obj
 0001:00014a10       ??$compare_and_swap@$01@?$atomic_impl@E@internal@tbb@@QAEEEE@Z 10015a10 f i queuing_rw_mutex.obj
 0001:00014a70       ??$compare_and_swap@$01@?$atomic_impl@PAVscoped_lock@queuing_rw_mutex@tbb@@@internal@tbb@@QAEPAVscoped_lock@queuing_rw_mutex@2@PAV342@0@Z 10015a70 f i queuing_rw_mutex.obj
 0001:00014ac0       ??$compare_and_swap@$01@?$tricky_atomic_pointer@Vscoped_lock@queuing_rw_mutex@tbb@@@tbb@@SAPAVscoped_lock@queuing_rw_mutex@1@PCRAV231@PAV231@1@Z 10015ac0 f i queuing_rw_mutex.obj
 0001:00014ae0       ??$fetch_and_add@$00@?$tricky_atomic_pointer@Vscoped_lock@queuing_rw_mutex@tbb@@@tbb@@SAPAVscoped_lock@queuing_rw_mutex@1@PCRAV231@H@Z 10015ae0 f i queuing_rw_mutex.obj
 0001:00014b00       ??$fetch_and_store@$01@?$atomic_impl@PAVscoped_lock@queuing_rw_mutex@tbb@@@internal@tbb@@QAEPAVscoped_lock@queuing_rw_mutex@2@PAV342@@Z 10015b00 f i queuing_rw_mutex.obj
 0001:00014b40       ??$fetch_and_store@$01@?$tricky_atomic_pointer@Vscoped_lock@queuing_rw_mutex@tbb@@@tbb@@SAPAVscoped_lock@queuing_rw_mutex@1@PCRAV231@PAV231@@Z 10015b40 f i queuing_rw_mutex.obj
 0001:00014b60       ??$load@$02@?$atomic_impl@PAVscoped_lock@queuing_rw_mutex@tbb@@@internal@tbb@@QBEPAVscoped_lock@queuing_rw_mutex@2@XZ 10015b60 f i queuing_rw_mutex.obj
 0001:00014ba0       ??$load@$02PAVscoped_lock@queuing_rw_mutex@tbb@@@tbb@@YAPAVscoped_lock@queuing_rw_mutex@0@ABU?$atomic@PAVscoped_lock@queuing_rw_mutex@tbb@@@0@@Z 10015ba0 f i queuing_rw_mutex.obj
 0001:00014bc0       ??$load@$0A@@?$atomic_impl@PAVscoped_lock@queuing_rw_mutex@tbb@@@internal@tbb@@QBEPAVscoped_lock@queuing_rw_mutex@2@XZ 10015bc0 f i queuing_rw_mutex.obj
 0001:00014c00       ??$load@H@?$atomic_load_store_traits@$0A@@internal@tbb@@SAHADH@Z 10015c00 f i queuing_rw_mutex.obj
 0001:00014c20       ??$poison_pointer@Vscoped_lock@queuing_rw_mutex@tbb@@@internal@tbb@@YAXAAPAVscoped_lock@queuing_rw_mutex@1@@Z 10015c20 f i queuing_rw_mutex.obj
 0001:00014c30       ??$spin_wait_until_eq@EE@internal@tbb@@YAXADEE@Z 10015c30 f i queuing_rw_mutex.obj
 0001:00014cb0       ??$spin_wait_until_eq@EH@internal@tbb@@YAXADEH@Z 10015cb0 f i queuing_rw_mutex.obj
 0001:00014d30       ??$spin_wait_while_eq@EH@internal@tbb@@YAXADEH@Z 10015d30 f i queuing_rw_mutex.obj
 0001:00014db0       ??$spin_wait_while_eq@PAVscoped_lock@queuing_rw_mutex@tbb@@PAV123@@internal@tbb@@YAXADSAVscoped_lock@queuing_rw_mutex@1@PAV231@@Z 10015db0 f i queuing_rw_mutex.obj
 0001:00014e30       ??$spin_wait_while_eq@PAVscoped_lock@queuing_rw_mutex@tbb@@PAX@internal@tbb@@YAXADSAVscoped_lock@queuing_rw_mutex@1@PAX@Z 10015e30 f i queuing_rw_mutex.obj
 0001:00014eb0       ??$to_bits@E@?$atomic_impl@E@internal@tbb@@CACE@Z 10015eb0 f i queuing_rw_mutex.obj
 0001:00014ee0       ??$to_bits@PAVscoped_lock@queuing_rw_mutex@tbb@@@?$atomic_impl@PAVscoped_lock@queuing_rw_mutex@tbb@@@internal@tbb@@CAHPAVscoped_lock@queuing_rw_mutex@2@@Z 10015ee0 f i queuing_rw_mutex.obj
 0001:00014f10       ??$to_bits_ref@$$CDE@?$atomic_impl@E@internal@tbb@@CAAACADE@Z 10015f10 f i queuing_rw_mutex.obj
 0001:00014f40       ??$to_bits_ref@E@?$atomic_impl@E@internal@tbb@@CAAACAAE@Z 10015f40 f i queuing_rw_mutex.obj
 0001:00014f70       ??$to_bits_ref@QAVscoped_lock@queuing_rw_mutex@tbb@@@?$atomic_impl@PAVscoped_lock@queuing_rw_mutex@tbb@@@internal@tbb@@CAAAHABQAVscoped_lock@queuing_rw_mutex@2@@Z 10015f70 f i queuing_rw_mutex.obj
 0001:00014fa0       ??$to_value@E@?$atomic_impl@E@internal@tbb@@CAEC@Z 10015fa0 f i queuing_rw_mutex.obj
 0001:00015010       ??$to_value@PAVscoped_lock@queuing_rw_mutex@tbb@@@?$atomic_impl@PAVscoped_lock@queuing_rw_mutex@tbb@@@internal@tbb@@CAPAVscoped_lock@queuing_rw_mutex@2@H@Z 10016010 f i queuing_rw_mutex.obj
 0001:00015080       ??0?$converter@E@?$atomic_impl@E@internal@tbb@@QAE@E@Z 10016080 f i queuing_rw_mutex.obj
 0001:000150a0       ??0?$converter@E@?$atomic_impl@E@internal@tbb@@QAE@XZ 100160a0 f i queuing_rw_mutex.obj
 0001:000150c0       ??0?$converter@PAVscoped_lock@queuing_rw_mutex@tbb@@@?$atomic_impl@PAVscoped_lock@queuing_rw_mutex@tbb@@@internal@tbb@@QAE@PAVscoped_lock@queuing_rw_mutex@3@@Z 100160c0 f i queuing_rw_mutex.obj
 0001:000150e0       ??0?$converter@PAVscoped_lock@queuing_rw_mutex@tbb@@@?$atomic_impl@PAVscoped_lock@queuing_rw_mutex@tbb@@@internal@tbb@@QAE@XZ 100160e0 f i queuing_rw_mutex.obj
 0001:00015100       ??0?$ptr_converter@PAE@?$atomic_impl@E@internal@tbb@@QAE@PAE@Z 10016100 f i queuing_rw_mutex.obj
 0001:00015120       ??0?$ptr_converter@PBQAVscoped_lock@queuing_rw_mutex@tbb@@@?$atomic_impl@PAVscoped_lock@queuing_rw_mutex@tbb@@@internal@tbb@@QAE@PBQAVscoped_lock@queuing_rw_mutex@3@@Z 10016120 f i queuing_rw_mutex.obj
 0001:00015140       ??0?$ptr_converter@PDE@?$atomic_impl@E@internal@tbb@@QAE@PDE@Z 10016140 f i queuing_rw_mutex.obj
 0001:00015160       ??0?$tricky_atomic_pointer@Vscoped_lock@queuing_rw_mutex@tbb@@@tbb@@QAE@AAPAVscoped_lock@queuing_rw_mutex@1@@Z 10016160 f i queuing_rw_mutex.obj
 0001:00015180       ??4?$atomic@E@tbb@@QAEEE@Z 10016180 f i queuing_rw_mutex.obj
 0001:000151b0       ??B?$atomic_impl@E@internal@tbb@@QDEEXZ 100161b0 f i queuing_rw_mutex.obj
 0001:000151f0       ??I?$tricky_atomic_pointer@Vscoped_lock@queuing_rw_mutex@tbb@@@tbb@@QBEPAVscoped_lock@queuing_rw_mutex@1@H@Z 100161f0 f i queuing_rw_mutex.obj
 0001:00015210       ??U?$tricky_atomic_pointer@Vscoped_lock@queuing_rw_mutex@tbb@@@tbb@@QBEPAVscoped_lock@queuing_rw_mutex@1@H@Z 10016210 f i queuing_rw_mutex.obj
 0001:00015230       ?acquire_internal_lock@scoped_lock@queuing_rw_mutex@tbb@@AAEXXZ 10016230 f i queuing_rw_mutex.obj
 0001:00015270       ?compare_and_swap@?$atomic_traits@$00$00@internal@tbb@@SACPCXCC@Z 10016270 f i queuing_rw_mutex.obj
 0001:000152a0       ?compare_and_swap@?$atomic_traits@$00$01@internal@tbb@@SACPCXCC@Z 100162a0 f i queuing_rw_mutex.obj
 0001:000152d0       ?get_flag@tbb@@YAIPAVscoped_lock@queuing_rw_mutex@1@@Z 100162d0 f i queuing_rw_mutex.obj
 0001:000152e0       ?initialize@scoped_lock@queuing_rw_mutex@tbb@@AAEXXZ 100162e0 f i queuing_rw_mutex.obj
 0001:00015350       ?load@?$machine_load_store_relaxed@PAVscoped_lock@queuing_rw_mutex@tbb@@$03@internal@tbb@@SAPAVscoped_lock@queuing_rw_mutex@3@ADSAV453@@Z 10016350 f i queuing_rw_mutex.obj
 0001:00015360       ?load@?$machine_load_store_seq_cst@H$03@internal@tbb@@SAHADH@Z 10016360 f i queuing_rw_mutex.obj
 0001:00015380       ?load_with_acquire@?$machine_load_store@E$00@internal@tbb@@SAEADE@Z 10016380 f i queuing_rw_mutex.obj
 0001:000153a0       ?load_with_acquire@?$machine_load_store@PAVscoped_lock@queuing_rw_mutex@tbb@@$03@internal@tbb@@SAPAVscoped_lock@queuing_rw_mutex@3@ADSAV453@@Z 100163a0 f i queuing_rw_mutex.obj
 0001:000153c0       ?release_internal_lock@scoped_lock@queuing_rw_mutex@tbb@@AAEXXZ 100163c0 f i queuing_rw_mutex.obj
 0001:000153f0       ?store@?$machine_load_store_relaxed@E$00@internal@tbb@@SAXACEE@Z 100163f0 f i queuing_rw_mutex.obj
 0001:00015400       ?store@?$machine_load_store_relaxed@PAVscoped_lock@queuing_rw_mutex@tbb@@$03@internal@tbb@@SAXACRAVscoped_lock@queuing_rw_mutex@3@PAV453@@Z 10016400 f i queuing_rw_mutex.obj
 0001:00015410       ?store_with_release@?$atomic_impl@E@internal@tbb@@IAEEE@Z 10016410 f i queuing_rw_mutex.obj
 0001:00015460       ?store_with_release@?$machine_load_store@E$00@internal@tbb@@SAXACEE@Z 10016460 f i queuing_rw_mutex.obj
 0001:00015470       ?store_with_release@?$machine_load_store@PAVscoped_lock@queuing_rw_mutex@tbb@@$03@internal@tbb@@SAXACRAVscoped_lock@queuing_rw_mutex@3@PAV453@@Z 10016470 f i queuing_rw_mutex.obj
 0001:00015480       ?try_acquire_internal_lock@scoped_lock@queuing_rw_mutex@tbb@@AAE_NXZ 10016480 f i queuing_rw_mutex.obj
 0001:000154e0       ?unblock_or_wait_on_internal_lock@scoped_lock@queuing_rw_mutex@tbb@@AAEXI@Z 100164e0 f i queuing_rw_mutex.obj
 0001:00015520       ?wait_for_release_of_internal_lock@scoped_lock@queuing_rw_mutex@tbb@@AAEXXZ 10016520 f i queuing_rw_mutex.obj
 0001:000155d0       ?internal_construct@scoped_lock@reader_writer_lock@interface5@tbb@@AAEXAAV234@@Z 100165d0 f   reader_writer_lock.obj
 0001:00015640       ?internal_destroy@scoped_lock@reader_writer_lock@interface5@tbb@@AAEXXZ 10016640 f   reader_writer_lock.obj
 0001:000156b0       ?internal_construct@scoped_lock_read@reader_writer_lock@interface5@tbb@@AAEXAAV234@@Z 100166b0 f   reader_writer_lock.obj
 0001:00015720       ?internal_destroy@scoped_lock_read@reader_writer_lock@interface5@tbb@@AAEXXZ 10016720 f   reader_writer_lock.obj
 0001:00015760       ?lock@reader_writer_lock@interface5@tbb@@QAEXXZ 10016760 f   reader_writer_lock.obj
 0001:00015820       ?try_lock@reader_writer_lock@interface5@tbb@@QAE_NXZ 10016820 f   reader_writer_lock.obj
 0001:000158f0       ?lock_read@reader_writer_lock@interface5@tbb@@QAEXXZ 100168f0 f   reader_writer_lock.obj
 0001:000159d0       ?try_lock_read@reader_writer_lock@interface5@tbb@@QAE_NXZ 100169d0 f   reader_writer_lock.obj
 0001:00015a50       ?unlock@reader_writer_lock@interface5@tbb@@QAEXXZ 10016a50 f   reader_writer_lock.obj
 0001:00015ba0       ?internal_construct@reader_writer_lock@interface5@tbb@@AAEXXZ 10016ba0 f   reader_writer_lock.obj
 0001:00015c40       ?internal_destroy@reader_writer_lock@interface5@tbb@@AAEXXZ 10016c40 f   reader_writer_lock.obj
 0001:00015d10       ?start_write@reader_writer_lock@interface5@tbb@@AAE_NPAVscoped_lock@123@@Z 10016d10 f   reader_writer_lock.obj
 0001:00015f30       ?set_next_writer@reader_writer_lock@interface5@tbb@@AAEXPAVscoped_lock@123@@Z 10016f30 f   reader_writer_lock.obj
 0001:00015ff0       ?end_write@reader_writer_lock@interface5@tbb@@AAEXPAVscoped_lock@123@@Z 10016ff0 f   reader_writer_lock.obj
 0001:00016170       ?start_read@reader_writer_lock@interface5@tbb@@AAEXPAVscoped_lock_read@123@@Z 10017170 f   reader_writer_lock.obj
 0001:000162b0       ?unblock_readers@reader_writer_lock@interface5@tbb@@AAEXXZ 100172b0 f   reader_writer_lock.obj
 0001:000163d0       ?end_read@reader_writer_lock@interface5@tbb@@AAEXXZ 100173d0 f   reader_writer_lock.obj
 0001:00016450       ??$compare_and_swap@$0A@@?$atomic_impl@PAVscoped_lock@reader_writer_lock@interface5@tbb@@@internal@tbb@@QAEPAVscoped_lock@reader_writer_lock@interface5@2@PAV3452@0@Z 10017450 f i reader_writer_lock.obj
 0001:000164a0       ??$fetch_and_store@$0A@@?$atomic_impl@PAVscoped_lock@reader_writer_lock@interface5@tbb@@@internal@tbb@@QAEPAVscoped_lock@reader_writer_lock@interface5@2@PAV3452@@Z 100174a0 f i reader_writer_lock.obj
 0001:000164e0       ??$fetch_and_store@$0A@@?$atomic_impl@PAVscoped_lock_read@reader_writer_lock@interface5@tbb@@@internal@tbb@@QAEPAVscoped_lock_read@reader_writer_lock@interface5@2@PAV3452@@Z 100174e0 f i reader_writer_lock.obj
 0001:00016520       ??$spin_wait_until_and@U?$atomic@I@tbb@@I@interface5@tbb@@YAXADU?$atomic@I@1@I@Z 10017520 f i reader_writer_lock.obj
 0001:000165a0       ??$spin_wait_while_eq@PAVscoped_lock@reader_writer_lock@interface5@tbb@@PAV1234@@internal@tbb@@YAXADSAVscoped_lock@reader_writer_lock@interface5@1@PAV2341@@Z 100175a0 f i reader_writer_lock.obj
 0001:00016620       ??$spin_wait_while_eq@U?$atomic@W4status_t@reader_writer_lock@interface5@tbb@@@tbb@@W4status_t@reader_writer_lock@interface5@2@@internal@tbb@@YAXADU?$atomic@W4status_t@reader_writer_lock@interface5@tbb@@@1@W4status_t@reader_writer_lock@interface5@1@@Z 10017620 f i reader_writer_lock.obj
 0001:000166a0       ??$spin_wait_while_geq@U?$atomic@I@tbb@@I@interface5@tbb@@YAXADU?$atomic@I@1@I@Z 100176a0 f i reader_writer_lock.obj
 0001:00016720       ??$to_bits@PAVscoped_lock@reader_writer_lock@interface5@tbb@@@?$atomic_impl@PAVscoped_lock@reader_writer_lock@interface5@tbb@@@internal@tbb@@CAHPAVscoped_lock@reader_writer_lock@interface5@2@@Z 10017720 f i reader_writer_lock.obj
 0001:00016750       ??$to_bits@PAVscoped_lock_read@reader_writer_lock@interface5@tbb@@@?$atomic_impl@PAVscoped_lock_read@reader_writer_lock@interface5@tbb@@@internal@tbb@@CAHPAVscoped_lock_read@reader_writer_lock@interface5@2@@Z 10017750 f i reader_writer_lock.obj
 0001:00016780       ??$to_bits@W4status_t@reader_writer_lock@interface5@tbb@@@?$atomic_impl@W4status_t@reader_writer_lock@interface5@tbb@@@internal@tbb@@CAHW4status_t@reader_writer_lock@interface5@2@@Z 10017780 f i reader_writer_lock.obj
 0001:000167b0       ??$to_bits_ref@$$CDW4status_t@reader_writer_lock@interface5@tbb@@@?$atomic_impl@W4status_t@reader_writer_lock@interface5@tbb@@@internal@tbb@@CAAAHADW4status_t@reader_writer_lock@interface5@2@@Z 100177b0 f i reader_writer_lock.obj
 0001:000167e0       ??$to_bits_ref@PAVscoped_lock@reader_writer_lock@interface5@tbb@@@?$atomic_impl@PAVscoped_lock@reader_writer_lock@interface5@tbb@@@internal@tbb@@CAAAHAAPAVscoped_lock@reader_writer_lock@interface5@2@@Z 100177e0 f i reader_writer_lock.obj
 0001:00016810       ??$to_bits_ref@PAVscoped_lock_read@reader_writer_lock@interface5@tbb@@@?$atomic_impl@PAVscoped_lock_read@reader_writer_lock@interface5@tbb@@@internal@tbb@@CAAAHAAPAVscoped_lock_read@reader_writer_lock@interface5@2@@Z 10017810 f i reader_writer_lock.obj
 0001:00016840       ??$to_bits_ref@SAVscoped_lock@reader_writer_lock@interface5@tbb@@@?$atomic_impl@PAVscoped_lock@reader_writer_lock@interface5@tbb@@@internal@tbb@@CAAAHADSAVscoped_lock@reader_writer_lock@interface5@2@@Z 10017840 f i reader_writer_lock.obj
 0001:00016870       ??$to_bits_ref@SAVscoped_lock_read@reader_writer_lock@interface5@tbb@@@?$atomic_impl@PAVscoped_lock_read@reader_writer_lock@interface5@tbb@@@internal@tbb@@CAAAHADSAVscoped_lock_read@reader_writer_lock@interface5@2@@Z 10017870 f i reader_writer_lock.obj
 0001:000168a0       ??$to_bits_ref@W4status_t@reader_writer_lock@interface5@tbb@@@?$atomic_impl@W4status_t@reader_writer_lock@interface5@tbb@@@internal@tbb@@CAAAHAAW4status_t@reader_writer_lock@interface5@2@@Z 100178a0 f i reader_writer_lock.obj
 0001:000168d0       ??$to_value@PAVscoped_lock@reader_writer_lock@interface5@tbb@@@?$atomic_impl@PAVscoped_lock@reader_writer_lock@interface5@tbb@@@internal@tbb@@CAPAVscoped_lock@reader_writer_lock@interface5@2@H@Z 100178d0 f i reader_writer_lock.obj
 0001:00016940       ??$to_value@PAVscoped_lock_read@reader_writer_lock@interface5@tbb@@@?$atomic_impl@PAVscoped_lock_read@reader_writer_lock@interface5@tbb@@@internal@tbb@@CAPAVscoped_lock_read@reader_writer_lock@interface5@2@H@Z 10017940 f i reader_writer_lock.obj
 0001:000169b0       ??$to_value@W4status_t@reader_writer_lock@interface5@tbb@@@?$atomic_impl@W4status_t@reader_writer_lock@interface5@tbb@@@internal@tbb@@CA?AW4status_t@reader_writer_lock@interface5@2@H@Z 100179b0 f i reader_writer_lock.obj
 0001:00016a20       ??0?$converter@PAVscoped_lock@reader_writer_lock@interface5@tbb@@@?$atomic_impl@PAVscoped_lock@reader_writer_lock@interface5@tbb@@@internal@tbb@@QAE@PAVscoped_lock@reader_writer_lock@interface5@3@@Z 10017a20 f i reader_writer_lock.obj
 0001:00016a40       ??0?$converter@PAVscoped_lock@reader_writer_lock@interface5@tbb@@@?$atomic_impl@PAVscoped_lock@reader_writer_lock@interface5@tbb@@@internal@tbb@@QAE@XZ 10017a40 f i reader_writer_lock.obj
 0001:00016a60       ??0?$converter@PAVscoped_lock_read@reader_writer_lock@interface5@tbb@@@?$atomic_impl@PAVscoped_lock_read@reader_writer_lock@interface5@tbb@@@internal@tbb@@QAE@PAVscoped_lock_read@reader_writer_lock@interface5@3@@Z 10017a60 f i reader_writer_lock.obj
 0001:00016a80       ??0?$converter@PAVscoped_lock_read@reader_writer_lock@interface5@tbb@@@?$atomic_impl@PAVscoped_lock_read@reader_writer_lock@interface5@tbb@@@internal@tbb@@QAE@XZ 10017a80 f i reader_writer_lock.obj
 0001:00016aa0       ??0?$converter@W4status_t@reader_writer_lock@interface5@tbb@@@?$atomic_impl@W4status_t@reader_writer_lock@interface5@tbb@@@internal@tbb@@QAE@W4status_t@reader_writer_lock@interface5@3@@Z 10017aa0 f i reader_writer_lock.obj
 0001:00016ac0       ??0?$converter@W4status_t@reader_writer_lock@interface5@tbb@@@?$atomic_impl@W4status_t@reader_writer_lock@interface5@tbb@@@internal@tbb@@QAE@XZ 10017ac0 f i reader_writer_lock.obj
 0001:00016ae0       ??0?$ptr_converter@PAPAVscoped_lock@reader_writer_lock@interface5@tbb@@@?$atomic_impl@PAVscoped_lock@reader_writer_lock@interface5@tbb@@@internal@tbb@@QAE@PAPAVscoped_lock@reader_writer_lock@interface5@3@@Z 10017ae0 f i reader_writer_lock.obj
 0001:00016b00       ??0?$ptr_converter@PAPAVscoped_lock_read@reader_writer_lock@interface5@tbb@@@?$atomic_impl@PAVscoped_lock_read@reader_writer_lock@interface5@tbb@@@internal@tbb@@QAE@PAPAVscoped_lock_read@reader_writer_lock@interface5@3@@Z 10017b00 f i reader_writer_lock.obj
 0001:00016b20       ??0?$ptr_converter@PAW4status_t@reader_writer_lock@interface5@tbb@@@?$atomic_impl@W4status_t@reader_writer_lock@interface5@tbb@@@internal@tbb@@QAE@PAW4status_t@reader_writer_lock@interface5@3@@Z 10017b20 f i reader_writer_lock.obj
 0001:00016b40       ??0?$ptr_converter@PDSAVscoped_lock@reader_writer_lock@interface5@tbb@@@?$atomic_impl@PAVscoped_lock@reader_writer_lock@interface5@tbb@@@internal@tbb@@QAE@PDSAVscoped_lock@reader_writer_lock@interface5@3@@Z 10017b40 f i reader_writer_lock.obj
 0001:00016b60       ??0?$ptr_converter@PDSAVscoped_lock_read@reader_writer_lock@interface5@tbb@@@?$atomic_impl@PAVscoped_lock_read@reader_writer_lock@interface5@tbb@@@internal@tbb@@QAE@PDSAVscoped_lock_read@reader_writer_lock@interface5@3@@Z 10017b60 f i reader_writer_lock.obj
 0001:00016b80       ??0?$ptr_converter@PDW4status_t@reader_writer_lock@interface5@tbb@@@?$atomic_impl@W4status_t@reader_writer_lock@interface5@tbb@@@internal@tbb@@QAE@PDW4status_t@reader_writer_lock@interface5@3@@Z 10017b80 f i reader_writer_lock.obj
 0001:00016ba0       ??0id@tbb_thread_v3@internal@tbb@@QAE@XZ 10017ba0 f i reader_writer_lock.obj
 0001:00016bc0       ??0scoped_lock@reader_writer_lock@interface5@tbb@@AAE@XZ 10017bc0 f i reader_writer_lock.obj
 0001:00016c00       ??0scoped_lock_read@reader_writer_lock@interface5@tbb@@AAE@XZ 10017c00 f i reader_writer_lock.obj
 0001:00016c40       ??1scoped_lock@reader_writer_lock@interface5@tbb@@QAE@XZ 10017c40 f i reader_writer_lock.obj
 0001:00016ca0       ??1scoped_lock_read@reader_writer_lock@interface5@tbb@@QAE@XZ 10017ca0 f i reader_writer_lock.obj
 0001:00016d00       ??2scoped_lock@reader_writer_lock@interface5@tbb@@SAPAXI@Z 10017d00 f i reader_writer_lock.obj
 0001:00016d20       ??3scoped_lock@reader_writer_lock@interface5@tbb@@SAXPAX@Z 10017d20 f i reader_writer_lock.obj
 0001:00016d70       ??4?$atomic@PAVscoped_lock@reader_writer_lock@interface5@tbb@@@tbb@@QAEPAVscoped_lock@reader_writer_lock@interface5@1@PAV2341@@Z 10017d70 f i reader_writer_lock.obj
 0001:00016da0       ??4?$atomic@PAVscoped_lock_read@reader_writer_lock@interface5@tbb@@@tbb@@QAEPAVscoped_lock_read@reader_writer_lock@interface5@1@PAV2341@@Z 10017da0 f i reader_writer_lock.obj
 0001:00016dd0       ??4?$atomic@W4status_t@reader_writer_lock@interface5@tbb@@@tbb@@QAE?AW4status_t@reader_writer_lock@interface5@1@W42341@@Z 10017dd0 f i reader_writer_lock.obj
 0001:00016e00       ??8internal@tbb@@YA_NVid@tbb_thread_v3@01@0@Z 10017e00 f i reader_writer_lock.obj
 0001:00016e30       ??9internal@tbb@@YA_NVid@tbb_thread_v3@01@0@Z 10017e30 f i reader_writer_lock.obj
 0001:00016e60       ??B?$atomic_impl@PAVscoped_lock@reader_writer_lock@interface5@tbb@@@internal@tbb@@QDEPAVscoped_lock@reader_writer_lock@interface5@2@XZ 10017e60 f i reader_writer_lock.obj
 0001:00016ea0       ??B?$atomic_impl@PAVscoped_lock_read@reader_writer_lock@interface5@tbb@@@internal@tbb@@QDEPAVscoped_lock_read@reader_writer_lock@interface5@2@XZ 10017ea0 f i reader_writer_lock.obj
 0001:00016ee0       ??B?$atomic_impl@W4status_t@reader_writer_lock@interface5@tbb@@@internal@tbb@@QDE?AW4status_t@reader_writer_lock@interface5@2@XZ 10017ee0 f i reader_writer_lock.obj
 0001:00016f20       ??C?$atomic@PAVscoped_lock@reader_writer_lock@interface5@tbb@@@tbb@@QBEPAVscoped_lock@reader_writer_lock@interface5@1@XZ 10017f20 f i reader_writer_lock.obj
 0001:00016f50       ??Z?$atomic_impl_with_arithmetic@IID@internal@tbb@@QAEII@Z 10017f50 f i reader_writer_lock.obj
 0001:00016f80       ??_Gscoped_lock@reader_writer_lock@interface5@tbb@@QAEPAXI@Z 10017f80 f i reader_writer_lock.obj
 0001:00016fe0       ?compare_and_swap@?$atomic_impl@PAVscoped_lock@reader_writer_lock@interface5@tbb@@@internal@tbb@@QAEPAVscoped_lock@reader_writer_lock@interface5@3@PAV4563@0@Z 10017fe0 f i reader_writer_lock.obj
 0001:00017010       ?fetch_and_and@interface5@tbb@@YAIAAU?$atomic@I@2@I@Z 10018010 f i reader_writer_lock.obj
 0001:000170b0       ?fetch_and_or@interface5@tbb@@YAIAAU?$atomic@I@2@I@Z 100180b0 f i reader_writer_lock.obj
 0001:00017150       ?fetch_and_store@?$atomic_impl@PAVscoped_lock@reader_writer_lock@interface5@tbb@@@internal@tbb@@QAEPAVscoped_lock@reader_writer_lock@interface5@3@PAV4563@@Z 10018150 f i reader_writer_lock.obj
 0001:00017180       ?fetch_and_store@?$atomic_impl@PAVscoped_lock_read@reader_writer_lock@interface5@tbb@@@internal@tbb@@QAEPAVscoped_lock_read@reader_writer_lock@interface5@3@PAV4563@@Z 10018180 f i reader_writer_lock.obj
 0001:000171b0       ?fetch_and_store@?$atomic_traits@$03$0A@@internal@tbb@@SAHPCXH@Z 100181b0 f i reader_writer_lock.obj
 0001:000171d0       ?get_id@this_tbb_thread@tbb@@YA?AVid@tbb_thread_v3@internal@2@XZ 100181d0 f i reader_writer_lock.obj
 0001:000171f0       ?is_current_writer@reader_writer_lock@interface5@tbb@@AAE_NXZ 100181f0 f i reader_writer_lock.obj
 0001:00017240       ?store_with_release@?$atomic_impl@PAVscoped_lock@reader_writer_lock@interface5@tbb@@@internal@tbb@@IAEPAVscoped_lock@reader_writer_lock@interface5@3@PAV4563@@Z 10018240 f i reader_writer_lock.obj
 0001:00017290       ?store_with_release@?$atomic_impl@PAVscoped_lock_read@reader_writer_lock@interface5@tbb@@@internal@tbb@@IAEPAVscoped_lock_read@reader_writer_lock@interface5@3@PAV4563@@Z 10018290 f i reader_writer_lock.obj
 0001:000172e0       ?store_with_release@?$atomic_impl@W4status_t@reader_writer_lock@interface5@tbb@@@internal@tbb@@IAE?AW4status_t@reader_writer_lock@interface5@3@W44563@@Z 100182e0 f i reader_writer_lock.obj
 0001:000173c0       ?internal_acquire_writer@spin_rw_mutex_v3@tbb@@AAE_NXZ 100183c0 f   spin_rw_mutex.obj
 0001:000174c0       ?internal_release_writer@spin_rw_mutex_v3@tbb@@AAEXXZ 100184c0 f   spin_rw_mutex.obj
 0001:00017510       ?internal_acquire_reader@spin_rw_mutex_v3@tbb@@AAEXXZ 10018510 f   spin_rw_mutex.obj
 0001:00017620       ?internal_upgrade@spin_rw_mutex_v3@tbb@@AAE_NXZ 10018620 f   spin_rw_mutex.obj
 0001:000177a0       ?internal_downgrade@spin_rw_mutex_v3@tbb@@AAEXXZ 100187a0 f   spin_rw_mutex.obj
 0001:00017820       ?internal_release_reader@spin_rw_mutex_v3@tbb@@AAEXXZ 10018820 f   spin_rw_mutex.obj
 0001:000178a0       ?internal_try_acquire_writer@spin_rw_mutex_v3@tbb@@AAE_NXZ 100188a0 f   spin_rw_mutex.obj
 0001:00017920       ?internal_try_acquire_reader@spin_rw_mutex_v3@tbb@@AAE_NXZ 10018920 f   spin_rw_mutex.obj
 0001:000179b0       ?internal_construct@spin_rw_mutex_v3@tbb@@AAEXXZ 100189b0 f   spin_rw_mutex.obj
 0001:00017a30       ??$as_atomic@$$CCH@internal@tbb@@YAAAU?$atomic@$$CCH@1@ACH@Z 10018a30 f i spin_rw_mutex.obj
 0001:00017a40       ??$compare_and_swap@$0A@@?$atomic_impl@$$CCH@internal@tbb@@QAE?CHHH@Z 10018a40 f i spin_rw_mutex.obj
 0001:00017a90       ??$to_bits@H@?$atomic_impl@$$CCH@internal@tbb@@CAHH@Z 10018a90 f i spin_rw_mutex.obj
 0001:00017ac0       ??$to_value@$$CCH@?$atomic_impl@$$CCH@internal@tbb@@CA?CHH@Z 10018ac0 f i spin_rw_mutex.obj
 0001:00017b30       ??0?$converter@$$CCH@?$atomic_impl@$$CCH@internal@tbb@@QAE@XZ 10018b30 f i spin_rw_mutex.obj
 0001:00017b50       ??0?$converter@H@?$atomic_impl@$$CCH@internal@tbb@@QAE@H@Z 10018b50 f i spin_rw_mutex.obj
 0001:00017b70       ?compare_and_swap@?$atomic_impl@$$CCH@internal@tbb@@QAE?CHHH@Z 10018b70 f i spin_rw_mutex.obj
 0001:00017ba0       ?reset@atomic_backoff@internal@tbb@@QAEXXZ 10018ba0 f i spin_rw_mutex.obj
 0001:00017be0       ?internal_construct@x86_rtm_rw_mutex@internal@interface8@tbb@@AAEXXZ 10018be0 f   x86_rtm_rw_mutex.obj
 0001:00017c30       ?internal_acquire_writer@x86_rtm_rw_mutex@internal@interface8@tbb@@AAEXAAVscoped_lock@1234@_N@Z 10018c30 f   x86_rtm_rw_mutex.obj
 0001:00017da0       ?internal_acquire_reader@x86_rtm_rw_mutex@internal@interface8@tbb@@AAEXAAVscoped_lock@1234@_N@Z 10018da0 f   x86_rtm_rw_mutex.obj
 0001:00017f00       ?internal_upgrade@x86_rtm_rw_mutex@internal@interface8@tbb@@AAE_NAAVscoped_lock@1234@@Z 10018f00 f   x86_rtm_rw_mutex.obj
 0001:00018000       ?internal_downgrade@x86_rtm_rw_mutex@internal@interface8@tbb@@AAE_NAAVscoped_lock@1234@@Z 10019000 f   x86_rtm_rw_mutex.obj
 0001:000180d0       ?internal_try_acquire_writer@x86_rtm_rw_mutex@internal@interface8@tbb@@AAE_NAAVscoped_lock@1234@@Z 100190d0 f   x86_rtm_rw_mutex.obj
 0001:000181a0       ?internal_release@x86_rtm_rw_mutex@internal@interface8@tbb@@AAEXAAVscoped_lock@1234@@Z 100191a0 f   x86_rtm_rw_mutex.obj
 0001:00018300       ?acquire@scoped_lock@spin_rw_mutex_v3@tbb@@QAEXAAV23@_N@Z 10019300 f i x86_rtm_rw_mutex.obj
 0001:00018370       ?downgrade_to_reader@scoped_lock@spin_rw_mutex_v3@tbb@@QAE_NXZ 10019370 f i x86_rtm_rw_mutex.obj
 0001:000183e0       ?release@scoped_lock@spin_rw_mutex_v3@tbb@@QAEXXZ 100193e0 f i x86_rtm_rw_mutex.obj
 0001:00018460       ?speculation_enabled@governor@internal@tbb@@SA_NXZ 10019460 f i x86_rtm_rw_mutex.obj
 0001:00018470       ?try_acquire@scoped_lock@spin_rw_mutex_v3@tbb@@QAE_NAAV23@_N@Z 10019470 f i x86_rtm_rw_mutex.obj
 0001:00018500       ?upgrade_to_writer@scoped_lock@spin_rw_mutex_v3@tbb@@QAE_NXZ 10019500 f i x86_rtm_rw_mutex.obj
 0001:000185a0       ?internal_acquire@scoped_lock@spin_mutex@tbb@@AAEXAAV23@@Z 100195a0 f   spin_mutex.obj
 0001:00018640       ?internal_try_acquire@scoped_lock@spin_mutex@tbb@@AAE_NAAV23@@Z 10019640 f   spin_mutex.obj
 0001:000186d0       ?internal_release@scoped_lock@spin_mutex@tbb@@AAEXXZ 100196d0 f   spin_mutex.obj
 0001:00018750       ?internal_construct@spin_mutex@tbb@@QAEXXZ 10019750 f   spin_mutex.obj
 0001:000187a0       ?__TBB_LockByte@@YAEAAE@Z  100197a0 f i spin_mutex.obj
 0001:00018820       ?__TBB_TryLockByte@@YA_NAAE@Z 10019820 f i spin_mutex.obj
 0001:00018870       ?internal_construct@critical_section_v4@internal@tbb@@QAEXXZ 10019870 f   critical_section.obj
 0001:000188c0       ?internal_acquire@scoped_lock@mutex@tbb@@AAEXAAV23@@Z 100198c0 f   mutex.obj
 0001:000189a0       ?internal_try_acquire@scoped_lock@mutex@tbb@@AAE_NAAV23@@Z 100199a0 f   mutex.obj
 0001:00018ab0       ?internal_release@scoped_lock@mutex@tbb@@AAEXXZ 10019ab0 f   mutex.obj
 0001:00018bb0       ?internal_construct@mutex@tbb@@AAEXXZ 10019bb0 f   mutex.obj
 0001:00018c20       ?internal_destroy@mutex@tbb@@AAEXXZ 10019c20 f   mutex.obj
 0001:00018cd0       ?inlineInitializeCriticalSectionEx@@YGHPAU_RTL_CRITICAL_SECTION@@KK@Z 10019cd0 f i mutex.obj
 0001:00018d00       ?internal_acquire@scoped_lock@recursive_mutex@tbb@@AAEXAAV23@@Z 10019d00 f   recursive_mutex.obj
 0001:00018db0       ?internal_try_acquire@scoped_lock@recursive_mutex@tbb@@AAE_NAAV23@@Z 10019db0 f   recursive_mutex.obj
 0001:00018e80       ?internal_release@scoped_lock@recursive_mutex@tbb@@AAEXXZ 10019e80 f   recursive_mutex.obj
 0001:00018f50       ?internal_construct@recursive_mutex@tbb@@AAEXXZ 10019f50 f   recursive_mutex.obj
 0001:00018fc0       ?internal_destroy@recursive_mutex@tbb@@AAEXXZ 10019fc0 f   recursive_mutex.obj
 0001:000190b0       ?internal_initialize_condition_variable@internal@interface5@tbb@@YAXAATcondvar_impl_t@123@@Z 1001a0b0 f   condition_variable.obj
 0001:00019100       ?internal_destroy_condition_variable@internal@interface5@tbb@@YAXAATcondvar_impl_t@123@@Z 1001a100 f   condition_variable.obj
 0001:00019130       ?internal_condition_variable_notify_one@internal@interface5@tbb@@YAXAATcondvar_impl_t@123@@Z 1001a130 f   condition_variable.obj
 0001:00019160       ?internal_condition_variable_notify_all@internal@interface5@tbb@@YAXAATcondvar_impl_t@123@@Z 1001a160 f   condition_variable.obj
 0001:00019190       ?internal_condition_variable_wait@internal@interface5@tbb@@YA_NAATcondvar_impl_t@123@PAVmutex@3@PBVinterval_t@tick_count@3@@Z 1001a190 f   condition_variable.obj
 0001:00019250       ?init_condvar_using_event@internal@tbb@@YGXPAUcondition_variable_using_event@1interface5@2@@Z 1001a250 f   condition_variable.obj
 0001:000192b0       ?sleep_condition_variable_cs_using_event@internal@tbb@@YGHPAUcondition_variable_using_event@1interface5@2@PAU_RTL_CRITICAL_SECTION@@K@Z 1001a2b0 f   condition_variable.obj
 0001:000194b0       ?wake_condition_variable_using_event@internal@tbb@@YGXPAUcondition_variable_using_event@1interface5@2@@Z 1001a4b0 f   condition_variable.obj
 0001:00019530       ?wake_all_condition_variable_using_event@internal@tbb@@YGXPAUcondition_variable_using_event@1interface5@2@@Z 1001a530 f   condition_variable.obj
 0001:000195b0       ?destroy_condvar_using_event@internal@tbb@@YGXPAUcondition_variable_using_event@1interface5@2@@Z 1001a5b0 f   condition_variable.obj
 0001:00019670       ?destroy_condvar_noop@internal@tbb@@YGXPAU_RTL_CONDITION_VARIABLE@@@Z 1001a670 f   condition_variable.obj
 0001:00019680       ?init_condvar_module@internal@tbb@@YAXXZ 1001a680 f   condition_variable.obj
 0001:000196e0       ??$spin_wait_until_eq@HH@internal@tbb@@YAXADHH@Z 1001a6e0 f i condition_variable.obj
 0001:00019760       ?inlineCreateEventEx@@YGPAXPAU_SECURITY_ATTRIBUTES@@PBDKK@Z 1001a760 f i condition_variable.obj
 0001:000197f0       ?native_handle@mutex@tbb@@QAEPAU_RTL_CRITICAL_SECTION@@XZ 1001a7f0 f i condition_variable.obj
 0001:00019810       ?resolution@tick_count@tbb@@SANXZ 1001a810 f i condition_variable.obj
 0001:00019860       ?seconds@interval_t@tick_count@tbb@@QBENXZ 1001a860 f i condition_variable.obj
 0001:000198c0       ?set_state@mutex@tbb@@QAEXW4state_t@12@@Z 1001a8c0 f i condition_variable.obj
 0001:000198e0       ?ticks_per_second@interval_t@tick_count@tbb@@CA_JXZ 1001a8e0 f i condition_variable.obj
 0001:00019980       ?allocate_closure_v3@internal@tbb@@YAPAXI@Z 1001a980 f   tbb_thread.obj
 0001:000199a0       ?free_closure_v3@internal@tbb@@YAXPAX@Z 1001a9a0 f   tbb_thread.obj
 0001:000199c0       ?join@tbb_thread_v3@internal@tbb@@QAEXXZ 1001a9c0 f   tbb_thread.obj
 0001:00019ad0       ?detach@tbb_thread_v3@internal@tbb@@QAEXXZ 1001aad0 f   tbb_thread.obj
 0001:00019b60       ?hardware_concurrency@tbb_thread_v3@internal@tbb@@SAIXZ 1001ab60 f   tbb_thread.obj
 0001:00019bb0       ?internal_start@tbb_thread_v3@internal@tbb@@AAEXP6GIPAX@Z0@Z 1001abb0 f   tbb_thread.obj
 0001:00019c80       ?move_v3@internal@tbb@@YAXAAVtbb_thread_v3@12@0@Z 1001ac80 f   tbb_thread.obj
 0001:00019cd0       ?thread_get_id_v3@internal@tbb@@YA?AVid@tbb_thread_v3@12@XZ 1001acd0 f   tbb_thread.obj
 0001:00019d00       ?thread_yield_v3@internal@tbb@@YAXXZ 1001ad00 f   tbb_thread.obj
 0001:00019d20       ?thread_sleep_v3@internal@tbb@@YAXABVinterval_t@tick_count@2@@Z 1001ad20 f   tbb_thread.obj
 0001:00019e40       ??0id@tbb_thread_v3@internal@tbb@@AAE@K@Z 1001ae40 f i tbb_thread.obj
 0001:00019e60       ??0interval_t@tick_count@tbb@@AAE@_J@Z 1001ae60 f i tbb_thread.obj
 0001:00019e90       ??0tick_count@tbb@@QAE@XZ  1001ae90 f i tbb_thread.obj
 0001:00019ec0       ??Gtbb@@YA?AVinterval_t@tick_count@0@ABV120@0@Z 1001aec0 f i tbb_thread.obj
 0001:00019ef0       ??Gtbb@@YA?AVinterval_t@tick_count@0@ABV20@0@Z 1001aef0 f i tbb_thread.obj
 0001:00019f20       ?active_value@global_control@interface9@tbb@@SAIW4parameter@123@@Z 1001af20 f i tbb_thread.obj
 0001:00019f60       ?default_num_threads@governor@internal@tbb@@SAIXZ 1001af60 f i tbb_thread.obj
 0001:00019fb0       ?get_id@tbb_thread_v3@internal@tbb@@QBE?AVid@123@XZ 1001afb0 f i tbb_thread.obj
 0001:0001a010       ?joinable@tbb_thread_v3@internal@tbb@@QBE_NXZ 1001b010 f i tbb_thread.obj
 0001:0001a050       ?now@tick_count@tbb@@SA?AV12@XZ 1001b050 f i tbb_thread.obj
 0001:0001a130       ?init@thread_context@concurrent_monitor@internal@tbb@@AAEXXZ 1001b130 f   concurrent_monitor.obj
 0001:0001a180       ??1concurrent_monitor@internal@tbb@@QAE@XZ 1001b180 f   concurrent_monitor.obj
 0001:0001a210       ?prepare_wait@concurrent_monitor@internal@tbb@@QAEXAAVthread_context@123@I@Z 1001b210 f   concurrent_monitor.obj
 0001:0001a340       ?cancel_wait@concurrent_monitor@internal@tbb@@QAEXAAVthread_context@123@@Z 1001b340 f   concurrent_monitor.obj
 0001:0001a440       ?notify_one_relaxed@concurrent_monitor@internal@tbb@@QAEXXZ 1001b440 f   concurrent_monitor.obj
 0001:0001a590       ?notify_all_relaxed@concurrent_monitor@internal@tbb@@QAEXXZ 1001b590 f   concurrent_monitor.obj
 0001:0001a730       ?abort_all_relaxed@concurrent_monitor@internal@tbb@@QAEXXZ 1001b730 f   concurrent_monitor.obj
 0001:0001a8e0       ??0binary_semaphore@internal@tbb@@QAE@XZ 1001b8e0 f i concurrent_monitor.obj
 0001:0001a920       ?flush_to@circular_doubly_linked_list_with_sentinel@internal@tbb@@QAEXAAV123@@Z 1001b920 f i concurrent_monitor.obj
 0001:0001a9f0       ?join@thread_monitor@internal@rml@@SAXPAX@Z 1001b9f0 f   private_server.obj
 0001:0001aa90       ?detach_thread@thread_monitor@internal@rml@@SAXPAX@Z 1001ba90 f   private_server.obj
 0001:0001aaf0       ?run@private_worker@rml@internal@tbb@@AAEXXZ 1001baf0 f   private_server.obj
 0001:0001ac90       ?start_shutdown@private_worker@rml@internal@tbb@@AAEXXZ 1001bc90 f   private_server.obj
 0001:0001ad50       ?thread_routine@private_worker@rml@internal@tbb@@CGIPAX@Z 1001bd50 f   private_server.obj
 0001:0001ae50       ?release_handle@private_worker@rml@internal@tbb@@CAXPAX_N@Z 1001be50 f   private_server.obj
 0001:0001ae80       ?wake_some@private_server@rml@internal@tbb@@AAEXH@Z 1001be80 f   private_server.obj
 0001:0001b080       ??1private_server@rml@internal@tbb@@EAE@XZ 1001c080 f   private_server.obj
 0001:0001b170       ??0private_server@rml@internal@tbb@@QAE@AAVtbb_client@123@@Z 1001c170 f   private_server.obj
 0001:0001b2e0       ?adjust_job_count_estimate@private_server@rml@internal@tbb@@UAEXH@Z 1001c2e0 f   private_server.obj
 0001:0001b340       ?make_private_server@rml@internal@tbb@@YAPAVtbb_server@123@AAVtbb_client@123@@Z 1001c340 f   private_server.obj
 0001:0001b390       ??$__TBB_store_full_fence@CC@internal@tbb@@YAXACCC@Z 1001c390 f i private_server.obj
 0001:0001b3b0       ??$compare_and_swap@$0A@@?$atomic_impl@H@internal@tbb@@QAEHHH@Z 1001c3b0 f i private_server.obj
 0001:0001b400       ??$compare_and_swap@$0A@@?$atomic_impl@W4state_t@private_worker@rml@internal@tbb@@@internal@tbb@@QAE?AW4state_t@private_worker@rml@12@W434512@0@Z 1001c400 f i private_server.obj
 0001:0001b450       ??$fetch_and_add@$0A@@?$atomic_impl_with_arithmetic@HHD@internal@tbb@@QAEHH@Z 1001c450 f i private_server.obj
 0001:0001b480       ??$fetch_and_store@$0A@@?$atomic_impl@_N@internal@tbb@@QAE_N_N@Z 1001c480 f i private_server.obj
 0001:0001b4d0       ??$poison_pointer@Vpadded_private_worker@rml@internal@tbb@@@internal@tbb@@YAXAAPAVpadded_private_worker@rml@01@@Z 1001c4d0 f i private_server.obj
 0001:0001b4e0       ??$store@$0A@@?$atomic_impl@_N@internal@tbb@@QAEX_N@Z 1001c4e0 f i private_server.obj
 0001:0001b530       ??$store@C@?$atomic_load_store_traits@$0A@@internal@tbb@@SAXACCC@Z 1001c530 f i private_server.obj
 0001:0001b550       ??$suppress_unused_warning@$$BY0FM@D@internal@tbb@@YAXAAY0FM@$$CBD@Z 1001c550 f i private_server.obj
 0001:0001b560       ??$to_bits@H@?$atomic_impl@H@internal@tbb@@CAHH@Z 1001c560 f i private_server.obj
 0001:0001b590       ??$to_bits@PAVprivate_worker@rml@internal@tbb@@@?$atomic_impl@PAVprivate_worker@rml@internal@tbb@@@internal@tbb@@CAHPAVprivate_worker@rml@12@@Z 1001c590 f i private_server.obj
 0001:0001b5c0       ??$to_bits@W4state_t@private_worker@rml@internal@tbb@@@?$atomic_impl@W4state_t@private_worker@rml@internal@tbb@@@internal@tbb@@CAHW4state_t@private_worker@rml@12@@Z 1001c5c0 f i private_server.obj
 0001:0001b5f0       ??$to_bits_ref@$$CDH@?$atomic_impl@H@internal@tbb@@CAAAHADH@Z 1001c5f0 f i private_server.obj
 0001:0001b620       ??$to_bits_ref@$$CDW4state_t@private_worker@rml@internal@tbb@@@?$atomic_impl@W4state_t@private_worker@rml@internal@tbb@@@internal@tbb@@CAAAHADW4state_t@private_worker@rml@12@@Z 1001c620 f i private_server.obj
 0001:0001b650       ??$to_bits_ref@H@?$atomic_impl@H@internal@tbb@@CAAAHAAH@Z 1001c650 f i private_server.obj
 0001:0001b680       ??$to_bits_ref@PAVprivate_worker@rml@internal@tbb@@@?$atomic_impl@PAVprivate_worker@rml@internal@tbb@@@internal@tbb@@CAAAHAAPAVprivate_worker@rml@12@@Z 1001c680 f i private_server.obj
 0001:0001b6b0       ??$to_bits_ref@SAVprivate_worker@rml@internal@tbb@@@?$atomic_impl@PAVprivate_worker@rml@internal@tbb@@@internal@tbb@@CAAAHADSAVprivate_worker@rml@12@@Z 1001c6b0 f i private_server.obj
 0001:0001b6e0       ??$to_bits_ref@W4state_t@private_worker@rml@internal@tbb@@@?$atomic_impl@W4state_t@private_worker@rml@internal@tbb@@@internal@tbb@@CAAAHAAW4state_t@private_worker@rml@12@@Z 1001c6e0 f i private_server.obj
 0001:0001b710       ??$to_value@H@?$atomic_impl@H@internal@tbb@@CAHH@Z 1001c710 f i private_server.obj
 0001:0001b780       ??$to_value@PAVprivate_worker@rml@internal@tbb@@@?$atomic_impl@PAVprivate_worker@rml@internal@tbb@@@internal@tbb@@CAPAVprivate_worker@rml@12@H@Z 1001c780 f i private_server.obj
 0001:0001b7f0       ??$to_value@W4state_t@private_worker@rml@internal@tbb@@@?$atomic_impl@W4state_t@private_worker@rml@internal@tbb@@@internal@tbb@@CA?AW4state_t@private_worker@rml@12@H@Z 1001c7f0 f i private_server.obj
 0001:0001b860       ??0?$cache_aligned_allocator@Vpadded_private_worker@rml@internal@tbb@@@tbb@@QAE@XZ 1001c860 f i private_server.obj
 0001:0001b880       ??0?$cache_aligned_allocator@Vprivate_server@rml@internal@tbb@@@tbb@@QAE@XZ 1001c880 f i private_server.obj
 0001:0001b8a0       ??0?$converter@H@?$atomic_impl@H@internal@tbb@@QAE@H@Z 1001c8a0 f i private_server.obj
 0001:0001b8c0       ??0?$converter@H@?$atomic_impl@H@internal@tbb@@QAE@XZ 1001c8c0 f i private_server.obj
 0001:0001b8e0       ??0?$converter@PAVprivate_worker@rml@internal@tbb@@@?$atomic_impl@PAVprivate_worker@rml@internal@tbb@@@internal@tbb@@QAE@PAVprivate_worker@rml@23@@Z 1001c8e0 f i private_server.obj
 0001:0001b900       ??0?$converter@PAVprivate_worker@rml@internal@tbb@@@?$atomic_impl@PAVprivate_worker@rml@internal@tbb@@@internal@tbb@@QAE@XZ 1001c900 f i private_server.obj
 0001:0001b920       ??0?$converter@W4state_t@private_worker@rml@internal@tbb@@@?$atomic_impl@W4state_t@private_worker@rml@internal@tbb@@@internal@tbb@@QAE@W4state_t@private_worker@rml@23@@Z 1001c920 f i private_server.obj
 0001:0001b940       ??0?$converter@W4state_t@private_worker@rml@internal@tbb@@@?$atomic_impl@W4state_t@private_worker@rml@internal@tbb@@@internal@tbb@@QAE@XZ 1001c940 f i private_server.obj
 0001:0001b960       ??0?$ptr_converter@PAH@?$atomic_impl@H@internal@tbb@@QAE@PAH@Z 1001c960 f i private_server.obj
 0001:0001b980       ??0?$ptr_converter@PAPAVprivate_worker@rml@internal@tbb@@@?$atomic_impl@PAVprivate_worker@rml@internal@tbb@@@internal@tbb@@QAE@PAPAVprivate_worker@rml@23@@Z 1001c980 f i private_server.obj
 0001:0001b9a0       ??0?$ptr_converter@PAW4state_t@private_worker@rml@internal@tbb@@@?$atomic_impl@W4state_t@private_worker@rml@internal@tbb@@@internal@tbb@@QAE@PAW4state_t@private_worker@rml@23@@Z 1001c9a0 f i private_server.obj
 0001:0001b9c0       ??0?$ptr_converter@PDH@?$atomic_impl@H@internal@tbb@@QAE@PDH@Z 1001c9c0 f i private_server.obj
 0001:0001b9e0       ??0?$ptr_converter@PDSAVprivate_worker@rml@internal@tbb@@@?$atomic_impl@PAVprivate_worker@rml@internal@tbb@@@internal@tbb@@QAE@PDSAVprivate_worker@rml@23@@Z 1001c9e0 f i private_server.obj
 0001:0001ba00       ??0?$ptr_converter@PDW4state_t@private_worker@rml@internal@tbb@@@?$atomic_impl@W4state_t@private_worker@rml@internal@tbb@@@internal@tbb@@QAE@PDW4state_t@private_worker@rml@23@@Z 1001ca00 f i private_server.obj
 0001:0001ba20       ??0padded_private_worker@rml@internal@tbb@@QAE@AAVprivate_server@123@AAVtbb_client@123@I@Z 1001ca20 f i private_server.obj
 0001:0001baa0       ??0private_worker@rml@internal@tbb@@IAE@AAVprivate_server@123@AAVtbb_client@123@I@Z 1001caa0 f i private_server.obj
 0001:0001bb40       ??0scoped_lock@spin_mutex@tbb@@QAE@XZ 1001cb40 f i private_server.obj
 0001:0001bb70       ??0server@rml@@QAE@XZ      1001cb70 f i private_server.obj
 0001:0001bba0       ??0tbb_server@rml@internal@tbb@@QAE@XZ 1001cba0 f i private_server.obj
 0001:0001bbd0       ??0thread_monitor@internal@rml@@QAE@XZ 1001cbd0 f i private_server.obj
 0001:0001bc90       ??0versioned_object@rml@@QAE@XZ 1001cc90 f i private_server.obj
 0001:0001bcb0       ??1padded_private_worker@rml@internal@tbb@@QAE@XZ 1001ccb0 f i private_server.obj
 0001:0001bce0       ??1private_worker@rml@internal@tbb@@QAE@XZ 1001cce0 f i private_server.obj
 0001:0001bd10       ??1thread_monitor@internal@rml@@QAE@XZ 1001cd10 f i private_server.obj
 0001:0001bd40       ??4?$atomic@H@tbb@@QAEHH@Z 1001cd40 f i private_server.obj
 0001:0001bd70       ??4?$atomic@PAVprivate_worker@rml@internal@tbb@@@tbb@@QAEPAVprivate_worker@rml@internal@1@PAV2341@@Z 1001cd70 f i private_server.obj
 0001:0001bda0       ??4?$atomic@W4state_t@private_worker@rml@internal@tbb@@@tbb@@QAE?AW4state_t@private_worker@rml@internal@1@W423451@@Z 1001cda0 f i private_server.obj
 0001:0001bdd0       ??4cookie@thread_monitor@internal@rml@@QAEAAV0123@ABV0123@@Z 1001cdd0 f i private_server.obj
 0001:0001be00       ??B?$atomic_impl@H@internal@tbb@@QDEHXZ 1001ce00 f i private_server.obj
 0001:0001be40       ??B?$atomic_impl@PAVprivate_worker@rml@internal@tbb@@@internal@tbb@@QDEPAVprivate_worker@rml@12@XZ 1001ce40 f i private_server.obj
 0001:0001be80       ??B?$atomic_impl@W4state_t@private_worker@rml@internal@tbb@@@internal@tbb@@QDE?AW4state_t@private_worker@rml@12@XZ 1001ce80 f i private_server.obj
 0001:0001bec0       ??E?$atomic_impl_with_arithmetic@HHD@internal@tbb@@QAEHXZ 1001cec0 f i private_server.obj
 0001:0001bef0       ??F?$atomic_impl_with_arithmetic@HHD@internal@tbb@@QAEHXZ 1001cef0 f i private_server.obj
 0001:0001bf20       ??Y?$atomic_impl_with_arithmetic@HHD@internal@tbb@@QAEHH@Z 1001cf20 f i private_server.obj
 0001:0001bf50       ??_Gpadded_private_worker@rml@internal@tbb@@QAEPAXI@Z 1001cf50 f i private_server.obj
 0001:0001bfa0       ??_Gprivate_server@rml@internal@tbb@@EAEPAXI@Z 1001cfa0 f i private_server.obj
 0001:0001bfa0       ??_Eprivate_server@rml@internal@tbb@@EAEPAXI@Z 1001cfa0 f i private_server.obj
 0001:0001bfe0       ?allocate@?$cache_aligned_allocator@Vpadded_private_worker@rml@internal@tbb@@@tbb@@QAEPAVpadded_private_worker@rml@internal@2@IPBX@Z 1001cfe0 f i private_server.obj
 0001:0001c020       ?allocate@?$cache_aligned_allocator@Vprivate_server@rml@internal@tbb@@@tbb@@QAEPAVprivate_server@rml@internal@2@IPBX@Z 1001d020 f i private_server.obj
 0001:0001c050       ?cancel_wait@thread_monitor@internal@rml@@QAEXXZ 1001d050 f i private_server.obj
 0001:0001c0b0       ?commit_wait@thread_monitor@internal@rml@@QAEXAAVcookie@123@@Z 1001d0b0 f i private_server.obj
 0001:0001c130       ?compare_and_swap@?$atomic_impl@H@internal@tbb@@QAEHHH@Z 1001d130 f i private_server.obj
 0001:0001c160       ?compare_and_swap@?$atomic_impl@W4state_t@private_worker@rml@internal@tbb@@@internal@tbb@@QAE?AW4state_t@private_worker@rml@23@W445623@0@Z 1001d160 f i private_server.obj
 0001:0001c190       ?deallocate@?$cache_aligned_allocator@Vpadded_private_worker@rml@internal@tbb@@@tbb@@QAEXPAVpadded_private_worker@rml@internal@2@I@Z 1001d190 f i private_server.obj
 0001:0001c1c0       ?deallocate@?$cache_aligned_allocator@Vprivate_server@rml@internal@tbb@@@tbb@@QAEXPAVprivate_server@rml@internal@2@I@Z 1001d1c0 f i private_server.obj
 0001:0001c1f0       ?default_concurrency@private_server@rml@internal@tbb@@UBEIXZ 1001d1f0 f i private_server.obj
 0001:0001c220       ?fetch_and_add@?$atomic_impl_with_arithmetic@HHD@internal@tbb@@QAEHH@Z 1001d220 f i private_server.obj
 0001:0001c250       ?fetch_and_store@?$atomic_impl@_N@internal@tbb@@QAE_N_N@Z 1001d250 f i private_server.obj
 0001:0001c280       ?fetch_and_store@?$atomic_traits@$00$0A@@internal@tbb@@SACPCXC@Z 1001d280 f i private_server.obj
 0001:0001c2a0       ?fetch_store@?$atomic_selector@$00@internal@tbb@@SACPCXC@Z 1001d2a0 f i private_server.obj
 0001:0001c2c0       ?independent_thread_number_changed@private_server@rml@internal@tbb@@UAEXH@Z 1001d2c0 f i private_server.obj
 0001:0001c300       ?launch@thread_monitor@internal@rml@@SAPAXP6GIPAX@Z0IPBI@Z 1001d300 f i private_server.obj
 0001:0001c440       ?notify@thread_monitor@internal@rml@@QAEXXZ 1001d440 f i private_server.obj
 0001:0001c4a0       ?prepare_wait@thread_monitor@internal@rml@@QAEXAAVcookie@123@@Z 1001d4a0 f i private_server.obj
 0001:0001c500       ?propagate_chain_reaction@private_server@rml@internal@tbb@@AAEXXZ 1001d500 f i private_server.obj
 0001:0001c540       ?register_master@private_server@rml@internal@tbb@@UAEXAAPAX@Z 1001d540 f i private_server.obj
 0001:0001c560       ?remove_server_ref@private_server@rml@internal@tbb@@AAEXXZ 1001d560 f i private_server.obj
 0001:0001c5e0       ?request_close_connection@private_server@rml@internal@tbb@@UAEX_N@Z 1001d5e0 f i private_server.obj
 0001:0001c640       ?store@?$machine_load_store_seq_cst@C$00@internal@tbb@@SAXACCC@Z 1001d640 f i private_server.obj
 0001:0001c660       ?store_with_release@?$atomic_impl@H@internal@tbb@@IAEHH@Z 1001d660 f i private_server.obj
 0001:0001c6b0       ?store_with_release@?$atomic_impl@PAVprivate_worker@rml@internal@tbb@@@internal@tbb@@IAEPAVprivate_worker@rml@23@PAV4523@@Z 1001d6b0 f i private_server.obj
 0001:0001c700       ?store_with_release@?$atomic_impl@W4state_t@private_worker@rml@internal@tbb@@@internal@tbb@@IAE?AW4state_t@private_worker@rml@23@W445623@@Z 1001d700 f i private_server.obj
 0001:0001c750       ?try_acquire@scoped_lock@spin_mutex@tbb@@QAE_NAAV23@@Z 1001d750 f i private_server.obj
 0001:0001c780       ?try_insert_in_asleep_list@private_server@rml@internal@tbb@@AAE_NAAVprivate_worker@234@@Z 1001d780 f i private_server.obj
 0001:0001c8d0       ?unregister_master@private_server@rml@internal@tbb@@UAEXPAX@Z 1001d8d0 f i private_server.obj
 0001:0001c8f0       ?version@private_server@rml@internal@tbb@@UBEIXZ 1001d8f0 f i private_server.obj
 0001:0001c910       ?wake_or_launch@private_worker@rml@internal@tbb@@AAEXXZ 1001d910 f i private_server.obj
 0001:0001ca10       ?yield@private_server@rml@internal@tbb@@UAEXXZ 1001da10 f i private_server.obj
 0001:0001ca40       ___local_stdio_printf_options 1001da40 f i private_server.obj
 0001:0001ca50       __vfprintf_l               1001da50 f i private_server.obj
 0001:0001ca90       _fprintf                   1001da90 f i private_server.obj
 0001:0001caf0       ?open@tbb_factory@rml@internal@tbb@@QAE?AW4status_type@factory@2@XZ 1001daf0 f   rml_tbb.obj
 0001:0001cc60       ?make_server@tbb_factory@rml@internal@tbb@@QAE?AW4status_type@factory@2@AAPAVtbb_server@234@AAVtbb_client@234@@Z 1001dc60 f   rml_tbb.obj
 0001:0001ccd0       ?close@tbb_factory@rml@internal@tbb@@QAEXXZ 1001dcd0 f   rml_tbb.obj
 0001:0001cd40       ?call_with_server_info@tbb_factory@rml@internal@tbb@@QBEXP6AXPAXPBD@Z0@Z 1001dd40 f   rml_tbb.obj
 0001:0001cda0       ?set_assertion_handler@tbb@@YAP6AXPBDH00@ZP6AX0H00@Z@Z 1001dda0 f   tbb_misc.obj
 0001:0001cdd0       ?assertion_failure@tbb@@YAXPBDH00@Z 1001ddd0 f   tbb_misc.obj
 0001:0001cee0       _TBB_runtime_interface_version 1001dee0 f   tbb_misc.obj
 0001:0001cef0       ?handle_perror@internal@tbb@@YAXHPBD@Z 1001def0 f   tbb_misc.obj
 0001:0001d020       ?runtime_warning@internal@tbb@@YAXPBDZZ 1001e020 f   tbb_misc.obj
 0001:0001d100       ?what@bad_last_alloc@tbb@@UBEPBDXZ 1001e100 f   tbb_misc.obj
 0001:0001d120       ?what@improper_lock@tbb@@UBEPBDXZ 1001e120 f   tbb_misc.obj
 0001:0001d140       ?what@user_abort@tbb@@UBEPBDXZ 1001e140 f   tbb_misc.obj
 0001:0001d160       ?what@missing_wait@tbb@@UBEPBDXZ 1001e160 f   tbb_misc.obj
 0001:0001d180       ?what@invalid_multiple_scheduling@tbb@@UBEPBDXZ 1001e180 f   tbb_misc.obj
 0001:0001d1a0       ?throw_bad_last_alloc_exception_v4@internal@tbb@@YAXXZ 1001e1a0 f   tbb_misc.obj
 0001:0001d1c0       ?throw_exception_v4@internal@tbb@@YAXW4exception_id@12@@Z 1001e1c0 f   tbb_misc.obj
 0001:0001d550       ?DefaultSystemPageSize@internal@tbb@@YAIXZ 1001e550 f   tbb_misc.obj
 0001:0001d5c0       ?handle_win_error@internal@tbb@@YAXH@Z 1001e5c0 f   tbb_misc.obj
 0001:0001d680       ?PrintVersion@internal@tbb@@YAXXZ 1001e680 f   tbb_misc.obj
 0001:0001d6d0       ?PrintExtraVersionInfo@internal@tbb@@YAXPBD0ZZ 1001e6d0 f   tbb_misc.obj
 0001:0001d7c0       ?PrintRMLVersionInfo@internal@tbb@@YAXPAXPBD@Z 1001e7c0 f   tbb_misc.obj
 0001:0001d7e0       ?cpu_has_speculation@internal@tbb@@YA_NXZ 1001e7e0 f   tbb_misc.obj
 0001:0001d8c0       ?gcc_rethrow_exception_broken@internal@tbb@@YA_NXZ 1001e8c0 f   tbb_misc.obj
 0001:0001d8d0       ?fix_broken_rethrow@internal@tbb@@YAXXZ 1001e8d0 f   tbb_misc.obj
 0001:0001d8e0       ___TBB_machine_store8_slow_perf_warning 1001e8e0 f   tbb_misc.obj
 0001:0001d980       ___TBB_machine_store8_slow 1001e980 f   tbb_misc.obj
 0001:0001da30       ??$to_bits_ref@SAX@?$atomic_impl@PAX@internal@tbb@@CAAAHADSAX@Z 1001ea30 f i tbb_misc.obj
 0001:0001da60       ??0?$ptr_converter@PDSAX@?$atomic_impl@PAX@internal@tbb@@QAE@PDSAX@Z 1001ea60 f i tbb_misc.obj
 0001:0001da80       ??0bad_alloc@std@@QAE@ABV01@@Z 1001ea80 f i tbb_misc.obj
 0001:0001dac0       ??0bad_alloc@std@@QAE@XZ   1001eac0 f i tbb_misc.obj
 0001:0001db00       ??0bad_last_alloc@tbb@@QAE@ABV01@@Z 1001eb00 f i tbb_misc.obj
 0001:0001db40       ??0bad_last_alloc@tbb@@QAE@XZ 1001eb40 f i tbb_misc.obj
 0001:0001db70       ??0exception@std@@QAE@ABV01@@Z 1001eb70 f i tbb_misc.obj
 0001:0001dbc0       ??0exception@std@@QAE@QBD@Z 1001ebc0 f i tbb_misc.obj
 0001:0001dc60       ??0exception@std@@QAE@QBDH@Z 1001ec60 f i tbb_misc.obj
 0001:0001dca0       ??0exception@std@@QAE@XZ   1001eca0 f i tbb_misc.obj
 0001:0001dcd0       ??0improper_lock@tbb@@QAE@ABV01@@Z 1001ecd0 f i tbb_misc.obj
 0001:0001dd10       ??0improper_lock@tbb@@QAE@XZ 1001ed10 f i tbb_misc.obj
 0001:0001dd40       ??0invalid_argument@std@@QAE@ABV01@@Z 1001ed40 f i tbb_misc.obj
 0001:0001dd80       ??0invalid_argument@std@@QAE@PBD@Z 1001ed80 f i tbb_misc.obj
 0001:0001ddc0       ??0invalid_multiple_scheduling@tbb@@QAE@ABV01@@Z 1001edc0 f i tbb_misc.obj
 0001:0001de00       ??0invalid_multiple_scheduling@tbb@@QAE@XZ 1001ee00 f i tbb_misc.obj
 0001:0001de30       ??0length_error@std@@QAE@ABV01@@Z 1001ee30 f i tbb_misc.obj
 0001:0001de70       ??0length_error@std@@QAE@PBD@Z 1001ee70 f i tbb_misc.obj
 0001:0001deb0       ??0logic_error@std@@QAE@ABV01@@Z 1001eeb0 f i tbb_misc.obj
 0001:0001def0       ??0logic_error@std@@QAE@PBD@Z 1001eef0 f i tbb_misc.obj
 0001:0001df30       ??0missing_wait@tbb@@QAE@ABV01@@Z 1001ef30 f i tbb_misc.obj
 0001:0001df70       ??0missing_wait@tbb@@QAE@XZ 1001ef70 f i tbb_misc.obj
 0001:0001dfa0       ??0out_of_range@std@@QAE@ABV01@@Z 1001efa0 f i tbb_misc.obj
 0001:0001dfe0       ??0out_of_range@std@@QAE@PBD@Z 1001efe0 f i tbb_misc.obj
 0001:0001e020       ??0range_error@std@@QAE@ABV01@@Z 1001f020 f i tbb_misc.obj
 0001:0001e060       ??0range_error@std@@QAE@PBD@Z 1001f060 f i tbb_misc.obj
 0001:0001e0a0       ??0runtime_error@std@@QAE@ABV01@@Z 1001f0a0 f i tbb_misc.obj
 0001:0001e0e0       ??0runtime_error@std@@QAE@PBD@Z 1001f0e0 f i tbb_misc.obj
 0001:0001e120       ??0user_abort@tbb@@QAE@ABV01@@Z 1001f120 f i tbb_misc.obj
 0001:0001e160       ??0user_abort@tbb@@QAE@XZ  1001f160 f i tbb_misc.obj
 0001:0001e190       ??1bad_alloc@std@@UAE@XZ   1001f190 f i tbb_misc.obj
 0001:0001e1c0       ??1bad_last_alloc@tbb@@UAE@XZ 1001f1c0 f i tbb_misc.obj
 0001:0001e1f0       ??1exception@std@@UAE@XZ   1001f1f0 f i tbb_misc.obj
 0001:0001e230       ??1improper_lock@tbb@@UAE@XZ 1001f230 f i tbb_misc.obj
 0001:0001e260       ??1invalid_argument@std@@UAE@XZ 1001f260 f i tbb_misc.obj
 0001:0001e290       ??1invalid_multiple_scheduling@tbb@@UAE@XZ 1001f290 f i tbb_misc.obj
 0001:0001e2c0       ??1length_error@std@@UAE@XZ 1001f2c0 f i tbb_misc.obj
 0001:0001e2f0       ??1logic_error@std@@UAE@XZ 1001f2f0 f i tbb_misc.obj
 0001:0001e320       ??1missing_wait@tbb@@UAE@XZ 1001f320 f i tbb_misc.obj
 0001:0001e350       ??1out_of_range@std@@UAE@XZ 1001f350 f i tbb_misc.obj
 0001:0001e380       ??1range_error@std@@UAE@XZ 1001f380 f i tbb_misc.obj
 0001:0001e3b0       ??1runtime_error@std@@UAE@XZ 1001f3b0 f i tbb_misc.obj
 0001:0001e3e0       ??1user_abort@tbb@@UAE@XZ  1001f3e0 f i tbb_misc.obj
 0001:0001e410       ??4?$atomic@PAX@tbb@@QAEPAXPAX@Z 1001f410 f i tbb_misc.obj
 0001:0001e440       ??B?$atomic_impl@PAX@internal@tbb@@QDEPAXXZ 1001f440 f i tbb_misc.obj
 0001:0001e480       ??_Ebad_alloc@std@@UAEPAXI@Z 1001f480 f i tbb_misc.obj
 0001:0001e480       ??_Gbad_alloc@std@@UAEPAXI@Z 1001f480 f i tbb_misc.obj
 0001:0001e4c0       ??_Gbad_last_alloc@tbb@@UAEPAXI@Z 1001f4c0 f i tbb_misc.obj
 0001:0001e4c0       ??_Ebad_last_alloc@tbb@@UAEPAXI@Z 1001f4c0 f i tbb_misc.obj
 0001:0001e500       ??_Eexception@std@@UAEPAXI@Z 1001f500 f i tbb_misc.obj
 0001:0001e500       ??_Gexception@std@@UAEPAXI@Z 1001f500 f i tbb_misc.obj
 0001:0001e540       ??_Eimproper_lock@tbb@@UAEPAXI@Z 1001f540 f i tbb_misc.obj
 0001:0001e540       ??_Gimproper_lock@tbb@@UAEPAXI@Z 1001f540 f i tbb_misc.obj
 0001:0001e580       ??_Ginvalid_argument@std@@UAEPAXI@Z 1001f580 f i tbb_misc.obj
 0001:0001e580       ??_Einvalid_argument@std@@UAEPAXI@Z 1001f580 f i tbb_misc.obj
 0001:0001e5c0       ??_Einvalid_multiple_scheduling@tbb@@UAEPAXI@Z 1001f5c0 f i tbb_misc.obj
 0001:0001e5c0       ??_Ginvalid_multiple_scheduling@tbb@@UAEPAXI@Z 1001f5c0 f i tbb_misc.obj
 0001:0001e600       ??_Elength_error@std@@UAEPAXI@Z 1001f600 f i tbb_misc.obj
 0001:0001e600       ??_Glength_error@std@@UAEPAXI@Z 1001f600 f i tbb_misc.obj
 0001:0001e640       ??_Glogic_error@std@@UAEPAXI@Z 1001f640 f i tbb_misc.obj
 0001:0001e640       ??_Elogic_error@std@@UAEPAXI@Z 1001f640 f i tbb_misc.obj
 0001:0001e680       ??_Gmissing_wait@tbb@@UAEPAXI@Z 1001f680 f i tbb_misc.obj
 0001:0001e680       ??_Emissing_wait@tbb@@UAEPAXI@Z 1001f680 f i tbb_misc.obj
 0001:0001e6c0       ??_Eout_of_range@std@@UAEPAXI@Z 1001f6c0 f i tbb_misc.obj
 0001:0001e6c0       ??_Gout_of_range@std@@UAEPAXI@Z 1001f6c0 f i tbb_misc.obj
 0001:0001e700       ??_Grange_error@std@@UAEPAXI@Z 1001f700 f i tbb_misc.obj
 0001:0001e700       ??_Erange_error@std@@UAEPAXI@Z 1001f700 f i tbb_misc.obj
 0001:0001e740       ??_Gruntime_error@std@@UAEPAXI@Z 1001f740 f i tbb_misc.obj
 0001:0001e740       ??_Eruntime_error@std@@UAEPAXI@Z 1001f740 f i tbb_misc.obj
 0001:0001e780       ??_Guser_abort@tbb@@UAEPAXI@Z 1001f780 f i tbb_misc.obj
 0001:0001e780       ??_Euser_abort@tbb@@UAEPAXI@Z 1001f780 f i tbb_misc.obj
 0001:0001e7c0       ?store_with_release@?$atomic_impl@PAX@internal@tbb@@IAEPAXPAX@Z 1001f7c0 f i tbb_misc.obj
 0001:0001e810       ?what@exception@std@@UBEPBDXZ 1001f810 f i tbb_misc.obj
 0001:0001e850       __snprintf                 1001f850 f i tbb_misc.obj
 0001:0001e8b0       __vsnprintf                1001f8b0 f i tbb_misc.obj
 0001:0001e8e0       __vsnprintf_l              1001f8e0 f i tbb_misc.obj
 0001:0001e960       _vsnprintf                 1001f960 f i tbb_misc.obj
 0001:0001ea20       ?AvailableHwConcurrency@internal@tbb@@YAHXZ 1001fa20 f   tbb_misc_ex.obj
 0001:0001ea70       ?NumberOfProcessorGroups@internal@tbb@@YAHXZ 1001fa70 f   tbb_misc_ex.obj
 0001:0001eab0       ?FindProcessorGroupIndex@internal@tbb@@YAHH@Z 1001fab0 f   tbb_misc_ex.obj
 0001:0001ec60       ?MoveThreadIntoProcessorGroup@internal@tbb@@YAXPAXH@Z 1001fc60 f   tbb_misc_ex.obj
 0001:0001f0d0       ?allocate@allocate_additional_child_of_proxy@internal@tbb@@QBEAAVtask@3@I@Z 100200d0 f   task.obj
 0001:0001f130       ?free@allocate_additional_child_of_proxy@internal@tbb@@QBEXAAVtask@3@@Z 10020130 f   task.obj
 0001:0001f170       ?destroy@task_base@internal@interface5@tbb@@SAXAAVtask@4@@Z 10020170 f   task.obj
 0001:0001f260       ?allocate@allocate_root_with_context_proxy@internal@tbb@@QBEAAVtask@3@I@Z 10020260 f   task.obj
 0001:0001f3a0       ?free@allocate_root_with_context_proxy@internal@tbb@@QBEXAAVtask@3@@Z 100203a0 f   task.obj
 0001:0001f400       ?allocate@allocate_root_proxy@internal@tbb@@SAAAVtask@3@I@Z 10020400 f   task.obj
 0001:0001f4b0       ?free@allocate_root_proxy@internal@tbb@@SAXAAVtask@3@@Z 100204b0 f   task.obj
 0001:0001f500       ?allocate@allocate_continuation_proxy@internal@tbb@@QBEAAVtask@3@I@Z 10020500 f   task.obj
 0001:0001f580       ?free@allocate_continuation_proxy@internal@tbb@@QBEXAAVtask@3@@Z 10020580 f   task.obj
 0001:0001f5d0       ?allocate@allocate_child_proxy@internal@tbb@@QBEAAVtask@3@I@Z 100205d0 f   task.obj
 0001:0001f640       ?free@allocate_child_proxy@internal@tbb@@QBEXAAVtask@3@@Z 10020640 f   task.obj
 0001:0001f670       ?internal_set_ref_count@task@tbb@@AAEXH@Z 10020670 f   task.obj
 0001:0001f750       ?internal_decrement_ref_count@task@tbb@@AAEHXZ 10020750 f   task.obj
 0001:0001f820       ?spawn_and_wait_for_all@task@tbb@@QAEXAAVtask_list@2@@Z 10020820 f   task.obj
 0001:0001f8c0       ?self@task@tbb@@SAAAV12@XZ 100208c0 f   task.obj
 0001:0001f920       ?is_owned_by_current_thread@task@tbb@@QBE_NXZ 10020920 f   task.obj
 0001:0001f940       ?note_affinity@task@tbb@@UAEXG@Z 10020940 f   task.obj
 0001:0001f960       ?change_group@task@tbb@@QAEXAAVtask_group_context@2@@Z 10020960 f   task.obj
 0001:0001fa50       ?get_initial_auto_partitioner_divisor@internal@tbb@@YAIXZ 10020a50 f   task.obj
 0001:0001fa80       ?resize@affinity_partitioner_base_v3@internal@tbb@@AAEXI@Z 10020a80 f   task.obj
 0001:0001fb50       ??$__TBB_load_relaxed@W4kind_type@task_group_context@tbb@@@internal@tbb@@YA?AW4kind_type@task_group_context@1@ADW4231@@Z 10020b50 f i task.obj
 0001:0001fb70       ??$__TBB_store_relaxed@W4kind_type@task_group_context@tbb@@W4123@@internal@tbb@@YAXACW4kind_type@task_group_context@1@W4231@@Z 10020b70 f i task.obj
 0001:0001fb90       ??$free_task@$00@generic_scheduler@internal@tbb@@QAEXAAVtask@2@@Z 10020b90 f i task.obj
 0001:0001fcf0       ??$free_task@$03@generic_scheduler@internal@tbb@@QAEXAAVtask@2@@Z 10020cf0 f i task.obj
 0001:0001fe70       ??$is_poisoned@PBVtask@tbb@@@internal@tbb@@YA_NPAPBVtask@1@@Z 10020e70 f i task.obj
 0001:0001fea0       ??$poison_pointer@Vscheduler@internal@tbb@@@internal@tbb@@YAXAAPAVscheduler@01@@Z 10020ea0 f i task.obj
 0001:0001feb0       ??$poison_pointer@Vtask@tbb@@@internal@tbb@@YAXAAPAVtask@1@@Z 10020eb0 f i task.obj
 0001:0001fec0       ??$poison_value@H@internal@tbb@@YAXAAH@Z 10020ec0 f i task.obj
 0001:0001fee0       ??$punned_cast@PAH$$CBI@internal@tbb@@YAPAHPBI@Z 10020ee0 f i task.obj
 0001:0001ff00       ?assert_task_pool_valid@generic_scheduler@internal@tbb@@QBEXXZ 10020f00 f i task.obj
 0001:0001ff20       ?assert_task_valid@internal@tbb@@YAXPBVtask@2@@Z 10020f20 f i task.obj
 0001:00020000       ?deallocate_task@generic_scheduler@internal@tbb@@QAEXAAVtask@3@@Z 10021000 f i task.obj
 0001:00020070       ?default_context@generic_scheduler@internal@tbb@@QAEPAVtask_group_context@3@XZ 10021070 f i task.obj
 0001:000200a0       ?get@?$basic_tls@I@internal@tbb@@QAEIXZ 100210a0 f i task.obj
 0001:000200e0       ?increment_ref_count@task@tbb@@QAEXXZ 100210e0 f i task.obj
 0001:00020120       ?is_worker@generic_scheduler@internal@tbb@@QBE_NXZ 10021120 f i task.obj
 0001:00020160       ?load@?$machine_load_store_relaxed@W4kind_type@task_group_context@tbb@@$03@internal@tbb@@SA?AW4kind_type@task_group_context@3@ADW4453@@Z 10021160 f i task.obj
 0001:00020170       ?local_scheduler@governor@internal@tbb@@SAPAVgeneric_scheduler@23@XZ 10021170 f i task.obj
 0001:000201d0       ?local_scheduler_weak@governor@internal@tbb@@SAPAVgeneric_scheduler@23@XZ 100211d0 f i task.obj
 0001:00020230       ?master_outermost_level@generic_scheduler@internal@tbb@@QBE_NXZ 10021230 f i task.obj
 0001:00020290       ?max_threads_in_arena@generic_scheduler@internal@tbb@@QAEIXZ 10021290 f i task.obj
 0001:000202e0       ?outermost_level@generic_scheduler@internal@tbb@@QBE_NXZ 100212e0 f i task.obj
 0001:00020300       ?prefix@task@tbb@@QBEAAVtask_prefix@internal@2@PAUversion_tag_v3@42@@Z 10021300 f i task.obj
 0001:00020320       ?state@task@tbb@@QBE?AW4state_type@12@XZ 10021320 f i task.obj
 0001:00020350       ?store@?$machine_load_store_relaxed@W4kind_type@task_group_context@tbb@@$03@internal@tbb@@SAXACW4kind_type@task_group_context@3@W4453@@Z 10021350 f i task.obj
 0001:00020360       ?tls_scheduler_of@governor@internal@tbb@@SAPAVgeneric_scheduler@23@I@Z 10021360 f i task.obj
 0001:000203d0       ??1task_group_context@tbb@@QAE@XZ 100213d0 f   task_group_context.obj
 0001:000206d0       ?reset@task_group_context@tbb@@QAEXXZ 100216d0 f   task_group_context.obj
 0001:00020720       ?cancel_group_execution@task_group_context@tbb@@QAE_NXZ 10021720 f   task_group_context.obj
 0001:000207b0       ?is_group_execution_cancelled@task_group_context@tbb@@QBE_NXZ 100217b0 f   task_group_context.obj
 0001:000207f0       ?register_pending_exception@task_group_context@tbb@@QAEXXZ 100217f0 f   task_group_context.obj
 0001:000209f0       ?capture_fp_settings@task_group_context@tbb@@QAEXXZ 100219f0 f   task_group_context.obj
 0001:00020a70       ?set_priority@task_group_context@tbb@@QAEXW4priority_t@2@@Z 10021a70 f   task_group_context.obj
 0001:00020b70       ?priority@task_group_context@tbb@@QBE?AW4priority_t@2@XZ 10021b70 f   task_group_context.obj
 0001:00020ba0       ?init@task_group_context@tbb@@IAEXXZ 10021ba0 f   task_group_context.obj
 0001:00020d30       ?bind_to@task_group_context@tbb@@QAEXPAVgeneric_scheduler@internal@2@@Z 10021d30 f   task_group_context.obj
 0001:00020f30       ?register_with@task_group_context@tbb@@QAEXPAVgeneric_scheduler@internal@2@@Z 10021f30 f   task_group_context.obj
 0001:000210e0       ?copy_fp_settings@task_group_context@tbb@@QAEXABV12@@Z 100220e0 f   task_group_context.obj
 0001:000211d0       ??1captured_exception@tbb@@UAE@XZ 100221d0 f   task_group_context.obj
 0001:00021210       ?move@captured_exception@tbb@@UAEPAV12@XZ 10022210 f   task_group_context.obj
 0001:000212a0       ?destroy@captured_exception@tbb@@UAEXXZ 100222a0 f   task_group_context.obj
 0001:00021310       ?name@captured_exception@tbb@@UBEPBDXZ 10022310 f   task_group_context.obj
 0001:00021330       ?what@captured_exception@tbb@@UBEPBDXZ 10022330 f   task_group_context.obj
 0001:00021350       ?set@captured_exception@tbb@@QAEXPBD0@Z 10022350 f   task_group_context.obj
 0001:000213a0       ?clear@captured_exception@tbb@@QAEXXZ 100223a0 f   task_group_context.obj
 0001:000213e0       ?allocate@captured_exception@tbb@@SAPAV12@PBD0@Z 100223e0 f   task_group_context.obj
 0001:00021440       ?allocate@tbb_exception_ptr@internal@tbb@@SAPAV123@XZ 10022440 f   task_group_context.obj
 0001:000214d0       ?allocate@tbb_exception_ptr@internal@tbb@@SAPAV123@ABVtbb_exception@3@@Z 100224d0 f   task_group_context.obj
 0001:00021560       ?allocate@tbb_exception_ptr@internal@tbb@@SAPAV123@AAVcaptured_exception@3@@Z 10022560 f   task_group_context.obj
 0001:000215b0       ?destroy@tbb_exception_ptr@internal@tbb@@QAEXXZ 100225b0 f   task_group_context.obj
 0001:000215e0       ??$AllocateExceptionContainer@Vcaptured_exception@tbb@@@internal@tbb@@YAPAVtbb_exception_ptr@01@ABVcaptured_exception@1@@Z 100225e0 f i task_group_context.obj
 0001:00021640       ??$AllocateExceptionContainer@Vexception_ptr@std@@@internal@tbb@@YAPAVtbb_exception_ptr@01@ABVexception_ptr@std@@@Z 10022640 f i task_group_context.obj
 0001:000216a0       ??$__TBB_load_with_acquire@PAUcontext_list_node_t@internal@tbb@@@internal@tbb@@YAPAUcontext_list_node_t@01@ADSAU201@@Z 100226a0 f i task_group_context.obj
 0001:000216c0       ??$__TBB_store_with_release@PAUcontext_list_node_t@internal@tbb@@PAU123@@internal@tbb@@YAXACRAUcontext_list_node_t@01@PAU201@@Z 100226c0 f i task_group_context.obj
 0001:000216e0       ??$addressof@Vcaptured_exception@tbb@@@std@@YAPAVcaptured_exception@tbb@@AAV12@@Z 100226e0 f i task_group_context.obj
 0001:000216f0       ??$as_atomic@I@internal@tbb@@YAAAU?$atomic@I@1@AAI@Z 100226f0 f i task_group_context.obj
 0001:00021700       ??$as_atomic@W4kind_type@task_group_context@tbb@@@internal@tbb@@YAAAU?$atomic@W4kind_type@task_group_context@tbb@@@1@AAW4kind_type@task_group_context@1@@Z 10022700 f i task_group_context.obj
 0001:00021710       ??$fetch_and_decrement@$0A@@?$atomic_impl_with_arithmetic@IID@internal@tbb@@QAEIXZ 10022710 f i task_group_context.obj
 0001:00021740       ??$fetch_and_increment@$0A@@?$atomic_impl_with_arithmetic@IID@internal@tbb@@QAEIXZ 10022740 f i task_group_context.obj
 0001:00021770       ??$fetch_and_store@$0A@@?$atomic_impl@W4kind_type@task_group_context@tbb@@@internal@tbb@@QAE?AW4kind_type@task_group_context@2@W4342@@Z 10022770 f i task_group_context.obj
 0001:000217b0       ??$make_exception_ptr@Vcaptured_exception@tbb@@@std@@YA?AVexception_ptr@0@Vcaptured_exception@tbb@@@Z 100227b0 f i task_group_context.obj
 0001:00021820       ??$poison_value@I@internal@tbb@@YAXAAI@Z 10022820 f i task_group_context.obj
 0001:00021840       ??$propagate_task_group_state@H@generic_scheduler@internal@tbb@@QAEXPQtask_group_context@2@HAAV32@H@Z 10022840 f i task_group_context.obj
 0001:000219a0       ??$propagate_task_group_state@H@market@internal@tbb@@QAE_NPQtask_group_context@2@HAAV32@H@Z 100229a0 f i task_group_context.obj
 0001:00021b60       ??$propagate_task_group_state@H@task_group_context@tbb@@QAEXPQ01@HAAV01@H@Z 10022b60 f i task_group_context.obj
 0001:00021c30       ??$propagate_task_group_state@I@generic_scheduler@internal@tbb@@QAEXPQtask_group_context@2@IAAV32@I@Z 10022c30 f i task_group_context.obj
 0001:00021d90       ??$propagate_task_group_state@I@market@internal@tbb@@QAE_NPQtask_group_context@2@IAAV32@I@Z 10022d90 f i task_group_context.obj
 0001:00021f50       ??$propagate_task_group_state@I@task_group_context@tbb@@QAEXPQ01@IAAV01@I@Z 10022f50 f i task_group_context.obj
 0001:00022020       ??$punned_cast@PAI$$CBI@internal@tbb@@YAPAIPBI@Z 10023020 f i task_group_context.obj
 0001:00022040       ??$punned_cast@PAVcpu_ctl_env@internal@tbb@@$$CBUcpu_ctl_env_space@23@@internal@tbb@@YAPAVcpu_ctl_env@01@PBUcpu_ctl_env_space@01@@Z 10023040 f i task_group_context.obj
 0001:00022060       ??$punned_cast@PAVcpu_ctl_env@internal@tbb@@Ucpu_ctl_env_space@23@@internal@tbb@@YAPAVcpu_ctl_env@01@PAUcpu_ctl_env_space@01@@Z 10023060 f i task_group_context.obj
 0001:00022080       ??$punned_cast@PAVscoped_lock@spin_mutex@tbb@@$$CBV?$aligned_space@Vscoped_lock@spin_mutex@tbb@@$00@3@@internal@tbb@@YAPAVscoped_lock@spin_mutex@1@PBV?$aligned_space@Vscoped_lock@spin_mutex@tbb@@$00@1@@Z 10023080 f i task_group_context.obj
 0001:000220a0       ??$suppress_unused_warning@$$BY01H@internal@tbb@@YAXAAY01$$CBH@Z 100230a0 f i task_group_context.obj
 0001:000220b0       ??$to_bits@I@?$atomic_impl@I@internal@tbb@@SAHI@Z 100230b0 f i task_group_context.obj
 0001:000220e0       ??$to_bits@W4kind_type@task_group_context@tbb@@@?$atomic_impl@W4kind_type@task_group_context@tbb@@@internal@tbb@@SAHW4kind_type@task_group_context@2@@Z 100230e0 f i task_group_context.obj
 0001:00022110       ??$to_bits_ref@$$CBI@?$atomic_impl@I@internal@tbb@@SAAAHABI@Z 10023110 f i task_group_context.obj
 0001:00022140       ??$to_bits_ref@$$CDI@?$atomic_impl@I@internal@tbb@@SAAAHADI@Z 10023140 f i task_group_context.obj
 0001:00022170       ??$to_bits_ref@I@?$atomic_impl@I@internal@tbb@@SAAAHAAI@Z 10023170 f i task_group_context.obj
 0001:000221a0       ??$to_value@I@?$atomic_impl@I@internal@tbb@@SAIH@Z 100231a0 f i task_group_context.obj
 0001:00022210       ??$to_value@W4kind_type@task_group_context@tbb@@@?$atomic_impl@W4kind_type@task_group_context@tbb@@@internal@tbb@@SA?AW4kind_type@task_group_context@2@H@Z 10023210 f i task_group_context.obj
 0001:00022280       ??0?$converter@W4kind_type@task_group_context@tbb@@@?$atomic_impl@W4kind_type@task_group_context@tbb@@@internal@tbb@@QAE@W4kind_type@task_group_context@3@@Z 10023280 f i task_group_context.obj
 0001:000222a0       ??0?$converter@W4kind_type@task_group_context@tbb@@@?$atomic_impl@W4kind_type@task_group_context@tbb@@@internal@tbb@@QAE@XZ 100232a0 f i task_group_context.obj
 0001:000222c0       ??0?$iterator_impl@Vgeneric_scheduler@internal@tbb@@@?$intrusive_list_base@V?$intrusive_list@Vgeneric_scheduler@internal@tbb@@@internal@tbb@@Vgeneric_scheduler@23@@internal@tbb@@QAE@PAUintrusive_list_node@23@@Z 100232c0 f i task_group_context.obj
 0001:000222e0       ??0captured_exception@tbb@@QAE@ABV01@@Z 100232e0 f i task_group_context.obj
 0001:00022340       ??0captured_exception@tbb@@QAE@PBD0@Z 10023340 f i task_group_context.obj
 0001:00022390       ??0captured_exception@tbb@@QAE@XZ 10023390 f i task_group_context.obj
 0001:000223e0       ??0exception_ptr@std@@QAE@ABV01@@Z 100233e0 f i task_group_context.obj
 0001:00022420       ??0exception_ptr@std@@QAE@XZ 10023420 f i task_group_context.obj
 0001:00022450       ??0tbb_exception@tbb@@QAE@ABV01@@Z 10023450 f i task_group_context.obj
 0001:00022490       ??0tbb_exception@tbb@@QAE@XZ 10023490 f i task_group_context.obj
 0001:000224c0       ??0tbb_exception_ptr@internal@tbb@@QAE@ABVcaptured_exception@2@@Z 100234c0 f i task_group_context.obj
 0001:00022520       ??0tbb_exception_ptr@internal@tbb@@QAE@ABVexception_ptr@std@@@Z 10023520 f i task_group_context.obj
 0001:00022550       ??1exception_ptr@std@@QAE@XZ 10023550 f i task_group_context.obj
 0001:00022580       ??1tbb_exception@tbb@@UAE@XZ 10023580 f i task_group_context.obj
 0001:000225b0       ??1tbb_exception_ptr@internal@tbb@@QAE@XZ 100235b0 f i task_group_context.obj
 0001:000225e0       ??3tbb_exception@tbb@@SAXPAX@Z 100235e0 f i task_group_context.obj
 0001:00022630       ??9?$iterator_impl@Vgeneric_scheduler@internal@tbb@@@?$intrusive_list_base@V?$intrusive_list@Vgeneric_scheduler@internal@tbb@@@internal@tbb@@Vgeneric_scheduler@23@@internal@tbb@@QBE_NABV0123@@Z 10023630 f i task_group_context.obj
 0001:00022670       ??C?$iterator_impl@Vgeneric_scheduler@internal@tbb@@@?$intrusive_list_base@V?$intrusive_list@Vgeneric_scheduler@internal@tbb@@@internal@tbb@@Vgeneric_scheduler@23@@internal@tbb@@QBEPAVgeneric_scheduler@23@XZ 10023670 f i task_group_context.obj
 0001:000226a0       ??E?$iterator_impl@Vgeneric_scheduler@internal@tbb@@@?$intrusive_list_base@V?$intrusive_list@Vgeneric_scheduler@internal@tbb@@@internal@tbb@@Vgeneric_scheduler@23@@internal@tbb@@QAE?AV0123@H@Z 100236a0 f i task_group_context.obj
 0001:00022710       ??E?$iterator_impl@Vgeneric_scheduler@internal@tbb@@@?$intrusive_list_base@V?$intrusive_list@Vgeneric_scheduler@internal@tbb@@@internal@tbb@@Vgeneric_scheduler@23@@internal@tbb@@QAEAAV0123@XZ 10023710 f i task_group_context.obj
 0001:00022740       ??_Ecaptured_exception@tbb@@UAEPAXI@Z 10023740 f i task_group_context.obj
 0001:00022740       ??_Gcaptured_exception@tbb@@UAEPAXI@Z 10023740 f i task_group_context.obj
 0001:000227a0       ??_Etbb_exception@tbb@@UAEPAXI@Z 100237a0 f i task_group_context.obj
 0001:000227a0       ??_Gtbb_exception@tbb@@UAEPAXI@Z 100237a0 f i task_group_context.obj
 0001:00022800       ?_Copy_exception@exception_ptr@std@@SA?AV12@PAXPBX@Z 10023800 f i task_group_context.obj
 0001:000228c0       ?_Current_exception@exception_ptr@std@@SA?AV12@XZ 100238c0 f i task_group_context.obj
 0001:00022940       ?__TBB_get_cpu_ctl_env@@YAXPAVcpu_ctl_env@internal@tbb@@@Z 10023940 f i task_group_context.obj
 0001:00022960       ?__TBB_store_with_release@internal@tbb@@YAXACII@Z 10023960 f i task_group_context.obj
 0001:00022980       ?begin@?$aligned_space@Vscoped_lock@spin_mutex@tbb@@$00@tbb@@QBEPAVscoped_lock@spin_mutex@2@XZ 10023980 f i task_group_context.obj
 0001:000229b0       ?begin@?$intrusive_list_base@V?$intrusive_list@Vgeneric_scheduler@internal@tbb@@@internal@tbb@@Vgeneric_scheduler@23@@internal@tbb@@QAE?AV?$iterator_impl@Vgeneric_scheduler@internal@tbb@@@123@XZ 100239b0 f i task_group_context.obj
 0001:000229e0       ?current_exception@std@@YA?AVexception_ptr@1@XZ 100239e0 f i task_group_context.obj
 0001:00022a00       ?duplicate_string@tbb@@YAPADPBD@Z 10023a00 f i task_group_context.obj
 0001:00022a80       ?end@?$intrusive_list_base@V?$intrusive_list@Vgeneric_scheduler@internal@tbb@@@internal@tbb@@Vgeneric_scheduler@23@@internal@tbb@@QAE?AV?$iterator_impl@Vgeneric_scheduler@internal@tbb@@@123@XZ 10023a80 f i task_group_context.obj
 0001:00022ab0       ?fetch_and_store@?$atomic_impl@W4kind_type@task_group_context@tbb@@@internal@tbb@@QAE?AW4kind_type@task_group_context@3@W4453@@Z 10023ab0 f i task_group_context.obj
 0001:00022ae0       ?get_env@cpu_ctl_env@internal@tbb@@QAEXXZ 10023ae0 f i task_group_context.obj
 0001:00022b20       ?is_alive@internal@tbb@@YA_NI@Z 10023b20 f i task_group_context.obj
 0001:00022b50       ?item@?$intrusive_list@Vgeneric_scheduler@internal@tbb@@@internal@tbb@@CAAAVgeneric_scheduler@23@PAUintrusive_list_node@23@@Z 10023b50 f i task_group_context.obj
 0001:00022b80       ?item@?$intrusive_list_base@V?$intrusive_list@Vgeneric_scheduler@internal@tbb@@@internal@tbb@@Vgeneric_scheduler@23@@internal@tbb@@CAAAVgeneric_scheduler@23@PAUintrusive_list_node@23@@Z 10023b80 f i task_group_context.obj
 0001:00022ba0       ?load_with_acquire@?$machine_load_store@PAUcontext_list_node_t@internal@tbb@@$03@internal@tbb@@SAPAUcontext_list_node_t@23@ADSAU423@@Z 10023ba0 f i task_group_context.obj
 0001:00022bc0       ?local_scheduler_if_initialized@governor@internal@tbb@@SAPAVgeneric_scheduler@23@XZ 10023bc0 f i task_group_context.obj
 0001:00022be0       ?lock@spin_mutex@tbb@@QAEXXZ 10023be0 f i task_group_context.obj
 0001:00022c70       ?name@type_info@@QBEPBDXZ  10023c70 f i task_group_context.obj
 0001:00022ca0       ?normalize_priority@internal@tbb@@YAHW4priority_t@2@@Z 10023ca0 f i task_group_context.obj
 0001:00022cc0       ?store_with_release@?$machine_load_store@PAUcontext_list_node_t@internal@tbb@@$03@internal@tbb@@SAXACRAUcontext_list_node_t@23@PAU423@@Z 10023cc0 f i task_group_context.obj
 0001:00022cd0       ?throw_self@captured_exception@tbb@@UAEXXZ 10023cd0 f i task_group_context.obj
 0001:00022d20       ?unlock@spin_mutex@tbb@@QAEXXZ 10023d20 f i task_group_context.obj
 0001:00022db0       ?internal_terminate@task_scheduler_init@tbb@@AAE_N_N@Z 10023db0 f   governor.obj
 0001:00022e90       ?internal_blocking_terminate@task_scheduler_init@tbb@@AAE_N_N@Z 10023e90 f   governor.obj
 0001:00022ef0       ?initialize@task_scheduler_init@tbb@@QAEXH@Z 10023ef0 f   governor.obj
 0001:00022f20       ?initialize@task_scheduler_init@tbb@@QAEXHI@Z 10023f20 f   governor.obj
 0001:000230a0       ?terminate@task_scheduler_init@tbb@@QAEXXZ 100240a0 f   governor.obj
 0001:000230d0       ?default_num_threads@task_scheduler_init@tbb@@SAHXZ 100240d0 f   governor.obj
 0001:00023130       ?nodes_count@numa_topology@internal@tbb@@YAIXZ 10024130 f   governor.obj
 0001:00023150       ?fill@numa_topology@internal@tbb@@YAXPAH@Z 10024150 f   governor.obj
 0001:000231b0       ?default_concurrency@numa_topology@internal@tbb@@YAHH@Z 100241b0 f   governor.obj
 0001:000231e0       ?construct_binding_handler@internal@tbb@@YAPAVbinding_handler@12@H@Z 100241e0 f   governor.obj
 0001:00023230       ?destroy_binding_handler@internal@tbb@@YAXPAVbinding_handler@12@@Z 10024230 f   governor.obj
 0001:00023280       ?bind_thread_to_node@internal@tbb@@YAXPAVbinding_handler@12@HH@Z 10024280 f   governor.obj
 0001:00023300       ?restore_affinity_mask@internal@tbb@@YAXPAVbinding_handler@12@H@Z 10024300 f   governor.obj
 0001:00023380       ?initialize@numa_topology@internal@tbb@@YAXXZ 10024380 f   governor.obj
 0001:000233a0       ?acquire_resources@governor@internal@tbb@@CAXXZ 100243a0 f   governor.obj
 0001:00023400       ?release_resources@governor@internal@tbb@@CAXXZ 10024400 f   governor.obj
 0001:00023490       ?create_rml_server@governor@internal@tbb@@CAPAVtbb_server@rml@23@AAVtbb_client@523@@Z 10024490 f   governor.obj
 0001:00023590       ?auto_terminate@governor@internal@tbb@@CAXPAX@Z 10024590 f   governor.obj
 0001:00023650       ?one_time_init@governor@internal@tbb@@SAXXZ 10024650 f   governor.obj
 0001:000236a0       ?init_scheduler@governor@internal@tbb@@SAPAVgeneric_scheduler@23@HI_N@Z 100246a0 f   governor.obj
 0001:000238c0       ?init_scheduler_weak@governor@internal@tbb@@SAPAVgeneric_scheduler@23@XZ 100248c0 f   governor.obj
 0001:00023930       ?terminate_scheduler@governor@internal@tbb@@SA_NPAVgeneric_scheduler@23@_N@Z 10024930 f   governor.obj
 0001:000239f0       ?sign_on@governor@internal@tbb@@SAXPAVgeneric_scheduler@23@@Z 100249f0 f   governor.obj
 0001:00023b10       ?sign_off@governor@internal@tbb@@SAXPAVgeneric_scheduler@23@@Z 10024b10 f   governor.obj
 0001:00023ba0       ?is_set@governor@internal@tbb@@SA_NPAVgeneric_scheduler@23@@Z 10024ba0 f   governor.obj
 0001:00023bf0       ?assume_scheduler@governor@internal@tbb@@SAXPAVgeneric_scheduler@23@@Z 10024bf0 f   governor.obj
 0001:00023c20       ?tls_value_of@governor@internal@tbb@@SAIPAVgeneric_scheduler@23@@Z 10024c20 f   governor.obj
 0001:00023c90       ?print_version_info@governor@internal@tbb@@SAXXZ 10024c90 f   governor.obj
 0001:00023d00       ?initialize_rml_factory@governor@internal@tbb@@SAXXZ 10024d00 f   governor.obj
 0001:00023d50       ?stack_op_handler@governor@internal@tbb@@SAHW4__cilk_tbb_stack_op@@PAX@Z 10024d50 f   governor.obj
 0001:00023f50       ?initialize_cilk_interop@internal@tbb@@YA_NXZ 10024f50 f   governor.obj
 0001:00023fc0       ?initialization_impl@numa_topology@internal@tbb@@YAXXZ 10024fc0 f   governor.obj
 0001:000241e0       ??$__TBB_load_with_acquire@_N@internal@tbb@@YA_NAD_N@Z 100251e0 f i governor.obj
 0001:00024200       ??$atomic_do_once@$$A6AXXZ@internal@tbb@@YAXA6AXXZAAU?$atomic@W4do_once_state@internal@tbb@@@1@@Z 10025200 f i governor.obj
 0001:00024260       ??$atomic_do_once@P6A_NXZ@internal@tbb@@YAXABQ6A_NXZAAU?$atomic@W4do_once_state@internal@tbb@@@1@@Z 10025260 f i governor.obj
 0001:000242c0       ??$suppress_unused_warning@PAVgeneric_scheduler@internal@tbb@@@internal@tbb@@YAXABQAVgeneric_scheduler@01@@Z 100252c0 f i governor.obj
 0001:000242d0       ?create@?$basic_tls@I@internal@tbb@@QAEHXZ 100252d0 f i governor.obj
 0001:00024320       ?destroy@?$basic_tls@I@internal@tbb@@QAEHXZ 10025320 f i governor.obj
 0001:00024360       ?destroy_process_mask@internal@tbb@@YAXXZ 10025360 f i governor.obj
 0001:00024370       ?initialization_done@__TBB_InitOnce@internal@tbb@@SA_NXZ 10025370 f i governor.obj
 0001:00024390       ?load_with_acquire@?$machine_load_store@_N$00@internal@tbb@@SA_NAD_N@Z 10025390 f i governor.obj
 0001:000243b0       ?run_initializer@internal@tbb@@YAXP6A_NXZAAU?$atomic@W4do_once_state@internal@tbb@@@2@@Z 100253b0 f i governor.obj
 0001:00024400       ?set@?$basic_tls@I@internal@tbb@@QAEXI@Z 10025400 f i governor.obj
 0001:00024470       ??0market@internal@tbb@@AAE@III@Z 10025470 f   market.obj
 0001:000245c0       ?global_market@market@internal@tbb@@CAAAV123@_NII@Z 100255c0 f   market.obj
 0001:00024930       ?destroy@market@internal@tbb@@AAEXXZ 10025930 f   market.obj
 0001:000249a0       ?update_workers_request@market@internal@tbb@@AAEHXZ 100259a0 f   market.obj
 0001:00024a60       ?arena_in_need@market@internal@tbb@@AAEPAVarena@23@PAV423@@Z 10025a60 f   market.obj
 0001:00024c00       ?update_allotment@market@internal@tbb@@AAEXH@Z 10025c00 f   market.obj
 0001:00024dd0       ?update_arena_top_priority@market@internal@tbb@@AAEXAAVarena@23@H@Z 10025dd0 f   market.obj
 0001:00024ee0       ?insert_arena_into_list@market@internal@tbb@@AAEXAAVarena@23@@Z 10025ee0 f   market.obj
 0001:00024f70       ?remove_arena_from_list@market@internal@tbb@@AAEXAAVarena@23@@Z 10025f70 f   market.obj
 0001:000250b0       ?arena_in_need@market@internal@tbb@@AAEPAVarena@23@AAV?$intrusive_list@Varena@internal@tbb@@@23@PAV423@@Z 100260b0 f   market.obj
 0001:00025200       ?update_allotment@market@internal@tbb@@AAEHAAV?$intrusive_list@Varena@internal@tbb@@@23@HH@Z 10026200 f   market.obj
 0001:00025410       ?is_arena_in_list@market@internal@tbb@@AAE_NAAV?$intrusive_list@Varena@internal@tbb@@@23@PAVarena@23@@Z 10026410 f   market.obj
 0001:000254c0       ?create_one_job@market@internal@tbb@@EAEPAVjob@rml@@XZ 100264c0 f   market.obj
 0001:000255d0       ?cleanup@market@internal@tbb@@EAEXAAVjob@rml@@@Z 100265d0 f   market.obj
 0001:000256d0       ?acknowledge_close_connection@market@internal@tbb@@EAEXXZ 100266d0 f   market.obj
 0001:00025700       ?process@market@internal@tbb@@EAEXAAVjob@rml@@@Z 10026700 f   market.obj
 0001:000257e0       ?create_arena@market@internal@tbb@@SAPAVarena@23@HHI@Z 100267e0 f   market.obj
 0001:00025920       ?try_destroy_arena@market@internal@tbb@@QAEXPAVarena@23@I@Z 10026920 f   market.obj
 0001:00025b50       ?detach_arena@market@internal@tbb@@QAEXAAVarena@23@@Z 10026b50 f   market.obj
 0001:00025c10       ?release@market@internal@tbb@@QAE_N_N0@Z 10026c10 f   market.obj
 0001:00025eb0       ?enable_mandatory_concurrency_impl@market@internal@tbb@@QAEXPAVarena@23@@Z 10026eb0 f   market.obj
 0001:00025f40       ?enable_mandatory_concurrency@market@internal@tbb@@QAEXPAVarena@23@@Z 10026f40 f   market.obj
 0001:00026060       ?disable_mandatory_concurrency_impl@market@internal@tbb@@QAEXPAVarena@23@@Z 10027060 f   market.obj
 0001:000260f0       ?mandatory_concurrency_disable@market@internal@tbb@@QAEXPAVarena@23@@Z 100270f0 f   market.obj
 0001:00026250       ?adjust_demand@market@internal@tbb@@QAEXAAVarena@23@H@Z 10027250 f   market.obj
 0001:00026700       ?set_active_num_workers@market@internal@tbb@@SAXI@Z 10027700 f   market.obj
 0001:00026a40       ?lower_arena_priority@market@internal@tbb@@QAE_NAAVarena@23@HI@Z 10027a40 f   market.obj
 0001:00026c50       ?update_arena_priority@market@internal@tbb@@QAE_NAAVarena@23@H@Z 10027c50 f   market.obj
 0001:00027090       ?does_client_join_workers@governor@internal@tbb@@SA_NABVtbb_client@rml@23@@Z 10028090 f   market.obj
 0001:00027120       ??$as_atomic@H@internal@tbb@@YAAAU?$atomic@H@1@AAH@Z 10028120 f i market.obj
 0001:00027130       ??$as_atomic@PAVarena@internal@tbb@@@internal@tbb@@YAAAU?$atomic@PAVarena@internal@tbb@@@1@AAPAVarena@01@@Z 10028130 f i market.obj
 0001:00027140       ??$fetch_and_add@$01@?$atomic_impl_with_arithmetic@IID@internal@tbb@@QAEII@Z 10028140 f i market.obj
 0001:00027170       ??$fetch_and_increment@$01@?$atomic_impl_with_arithmetic@IID@internal@tbb@@QAEIXZ 10028170 f i market.obj
 0001:000271a0       ??$max@H@internal@tbb@@YAHABH0@Z 100281a0 f i market.obj
 0001:000271d0       ??$max@I@internal@tbb@@YAIABI0@Z 100281d0 f i market.obj
 0001:00027200       ??$min@H@internal@tbb@@YAHABH0@Z 10028200 f i market.obj
 0001:00027230       ??$to_bits@PAVarena@internal@tbb@@@?$atomic_impl@PAVarena@internal@tbb@@@internal@tbb@@SAHPAVarena@12@@Z 10028230 f i market.obj
 0001:00027260       ??$to_bits_ref@$$CDH@?$atomic_impl@H@internal@tbb@@SAAAHADH@Z 10028260 f i market.obj
 0001:00027290       ??$to_bits_ref@PAVarena@internal@tbb@@@?$atomic_impl@PAVarena@internal@tbb@@@internal@tbb@@SAAAHAAPAVarena@12@@Z 10028290 f i market.obj
 0001:000272c0       ??$to_value@H@?$atomic_impl@H@internal@tbb@@SAHH@Z 100282c0 f i market.obj
 0001:00027330       ??0?$converter@PAVarena@internal@tbb@@@?$atomic_impl@PAVarena@internal@tbb@@@internal@tbb@@QAE@PAVarena@23@@Z 10028330 f i market.obj
 0001:00027350       ??0?$intrusive_list@Varena@internal@tbb@@@internal@tbb@@QAE@XZ 10028350 f i market.obj
 0001:00027380       ??0?$intrusive_list@Vgeneric_scheduler@internal@tbb@@@internal@tbb@@QAE@XZ 10028380 f i market.obj
 0001:000273b0       ??0?$intrusive_list_base@V?$intrusive_list@Varena@internal@tbb@@@internal@tbb@@Varena@23@@internal@tbb@@QAE@XZ 100283b0 f i market.obj
 0001:00027400       ??0?$intrusive_list_base@V?$intrusive_list@Vgeneric_scheduler@internal@tbb@@@internal@tbb@@Vgeneric_scheduler@23@@internal@tbb@@QAE@XZ 10028400 f i market.obj
 0001:00027450       ??0?$iterator_impl@Varena@internal@tbb@@@?$intrusive_list_base@V?$intrusive_list@Varena@internal@tbb@@@internal@tbb@@Varena@23@@internal@tbb@@QAE@PAUintrusive_list_node@23@@Z 10028450 f i market.obj
 0001:00027470       ??0?$ptr_converter@PAPAVarena@internal@tbb@@@?$atomic_impl@PAVarena@internal@tbb@@@internal@tbb@@QAE@PAPAVarena@23@@Z 10028470 f i market.obj
 0001:00027490       ??0client@rml@@QAE@XZ      10028490 f i market.obj
 0001:000274c0       ??0intrusive_list_node@internal@tbb@@QAE@XZ 100284c0 f i market.obj
 0001:000274f0       ??0priority_level_info@market@internal@tbb@@QAE@XZ 100284f0 f i market.obj
 0001:00027520       ??0scoped_lock@spin_rw_mutex_v3@tbb@@QAE@AAV12@_N@Z 10028520 f i market.obj
 0001:00027560       ??0spin_rw_mutex_v3@tbb@@QAE@XZ 10028560 f i market.obj
 0001:00027590       ??0tbb_client@rml@internal@tbb@@QAE@XZ 10028590 f i market.obj
 0001:000275c0       ??1market@internal@tbb@@QAE@XZ 100285c0 f i market.obj
 0001:000275f0       ??1scoped_lock@spin_rw_mutex_v3@tbb@@QAE@XZ 100285f0 f i market.obj
 0001:00027650       ??1spin_rw_mutex_v3@tbb@@QAE@XZ 10028650 f i market.obj
 0001:000276c0       ??4?$atomic@PAVarena@internal@tbb@@@tbb@@QAEPAVarena@internal@1@PAV231@@Z 100286c0 f i market.obj
 0001:000276f0       ??4?$iterator_impl@Varena@internal@tbb@@@?$intrusive_list_base@V?$intrusive_list@Varena@internal@tbb@@@internal@tbb@@Varena@23@@internal@tbb@@QAEAAV0123@ABV0123@@Z 100286f0 f i market.obj
 0001:00027720       ??8?$iterator_impl@Varena@internal@tbb@@@?$intrusive_list_base@V?$intrusive_list@Varena@internal@tbb@@@internal@tbb@@Varena@23@@internal@tbb@@QBE_NABV0123@@Z 10028720 f i market.obj
 0001:00027760       ??9?$iterator_impl@Varena@internal@tbb@@@?$intrusive_list_base@V?$intrusive_list@Varena@internal@tbb@@@internal@tbb@@Varena@23@@internal@tbb@@QBE_NABV0123@@Z 10028760 f i market.obj
 0001:000277a0       ??C?$iterator_impl@Varena@internal@tbb@@@?$intrusive_list_base@V?$intrusive_list@Varena@internal@tbb@@@internal@tbb@@Varena@23@@internal@tbb@@QBEPAVarena@23@XZ 100287a0 f i market.obj
 0001:000277d0       ??D?$iterator_impl@Varena@internal@tbb@@@?$intrusive_list_base@V?$intrusive_list@Varena@internal@tbb@@@internal@tbb@@Varena@23@@internal@tbb@@QBEAAVarena@23@XZ 100287d0 f i market.obj
 0001:00027800       ??E?$iterator_impl@Varena@internal@tbb@@@?$intrusive_list_base@V?$intrusive_list@Varena@internal@tbb@@@internal@tbb@@Varena@23@@internal@tbb@@QAEAAV0123@XZ 10028800 f i market.obj
 0001:00027830       ??_H@YGXPAXIIP6EPAX0@Z@Z   10028830 f i market.obj
 0001:000278a0       ?acquire@scoped_lock@spin_mutex@tbb@@QAEXAAV23@@Z 100288a0 f i market.obj
 0001:000278d0       ?advance_global_reload_epoch@market@internal@tbb@@AAEXXZ 100288d0 f i market.obj
 0001:00027910       ?assert_market_valid@market@internal@tbb@@ABEXXZ 10028910 f i market.obj
 0001:00027990       ?assert_ok@?$intrusive_list_base@V?$intrusive_list@Varena@internal@tbb@@@internal@tbb@@Varena@23@@internal@tbb@@ABEXXZ 10028990 f i market.obj
 0001:000279f0       ?assert_priority_valid@internal@tbb@@YAXH@Z 100289f0 f i market.obj
 0001:00027a20       ?begin@?$intrusive_list_base@V?$intrusive_list@Varena@internal@tbb@@@internal@tbb@@Varena@23@@internal@tbb@@QAE?AV?$iterator_impl@Varena@internal@tbb@@@123@XZ 10028a20 f i market.obj
 0001:00027a50       ?empty@?$intrusive_list_base@V?$intrusive_list@Varena@internal@tbb@@@internal@tbb@@Varena@23@@internal@tbb@@QBE_NXZ 10028a50 f i market.obj
 0001:00027a90       ?empty@?$task_stream@$02@internal@tbb@@QAE_NH@Z 10028a90 f i market.obj
 0001:00027ad0       ?end@?$intrusive_list_base@V?$intrusive_list@Varena@internal@tbb@@@internal@tbb@@Varena@23@@internal@tbb@@QAE?AV?$iterator_impl@Varena@internal@tbb@@@123@XZ 10028ad0 f i market.obj
 0001:00027b00       ?fetch_and_add@?$atomic_traits@$03$01@internal@tbb@@SAHPCXH@Z 10028b00 f i market.obj
 0001:00027b20       ?item@?$intrusive_list@Varena@internal@tbb@@@internal@tbb@@CAAAVarena@23@PAUintrusive_list_node@23@@Z 10028b20 f i market.obj
 0001:00027b30       ?item@?$intrusive_list_base@V?$intrusive_list@Varena@internal@tbb@@@internal@tbb@@Varena@23@@internal@tbb@@CAAAVarena@23@PAUintrusive_list_node@23@@Z 10028b30 f i market.obj
 0001:00027b50       ?lock@spin_rw_mutex_v3@tbb@@QAEXXZ 10028b50 f i market.obj
 0001:00027b80       ?max_job_count@market@internal@tbb@@EBEIXZ 10028b80 f i market.obj
 0001:00027ba0       ?min_stack_size@market@internal@tbb@@EBEIXZ 10028ba0 f i market.obj
 0001:00027bd0       ?must_join_workers@market@internal@tbb@@QBE_NXZ 10028bd0 f i market.obj
 0001:00027bf0       ?node@?$intrusive_list@Varena@internal@tbb@@@internal@tbb@@CAAAUintrusive_list_node@23@AAVarena@23@@Z 10028bf0 f i market.obj
 0001:00027c00       ?node@?$intrusive_list_base@V?$intrusive_list@Varena@internal@tbb@@@internal@tbb@@Varena@23@@internal@tbb@@CAAAUintrusive_list_node@23@AAVarena@23@@Z 10028c00 f i market.obj
 0001:00027c20       ?num_workers_active@arena@internal@tbb@@QBEIXZ 10028c20 f i market.obj
 0001:00027c50       ?policy@market@internal@tbb@@EBE?AW4policy_type@client@rml@@XZ 10028c50 f i market.obj
 0001:00027c70       ?push_front@?$intrusive_list_base@V?$intrusive_list@Varena@internal@tbb@@@internal@tbb@@Varena@23@@internal@tbb@@QAEXAAVarena@23@@Z 10028c70 f i market.obj
 0001:00027d50       ?release@scoped_lock@spin_mutex@tbb@@QAEXXZ 10028d50 f i market.obj
 0001:00027d80       ?remove@?$intrusive_list_base@V?$intrusive_list@Varena@internal@tbb@@@internal@tbb@@Varena@23@@internal@tbb@@QAEXAAVarena@23@@Z 10028d80 f i market.obj
 0001:00027ef0       ?reset_global_priority@market@internal@tbb@@AAEXXZ 10028ef0 f i market.obj
 0001:00027f20       ?size@?$intrusive_list_base@V?$intrusive_list@Varena@internal@tbb@@@internal@tbb@@Varena@23@@internal@tbb@@QBEIXZ 10028f20 f i market.obj
 0001:00027f40       ?store_with_release@?$atomic_impl@PAVarena@internal@tbb@@@internal@tbb@@IAEPAVarena@23@PAV423@@Z 10028f40 f i market.obj
 0001:00027f90       ?unlock@spin_rw_mutex_v3@tbb@@QAEXXZ 10028f90 f i market.obj
 0001:00027fd0       ?update_global_top_priority@market@internal@tbb@@AAEXH@Z 10028fd0 f i market.obj
 0001:00028040       ?version@market@internal@tbb@@EBEIXZ 10029040 f i market.obj
 0001:00028060       ?worker_stack_size@market@internal@tbb@@QBEIXZ 10029060 f i market.obj
 0001:00028170       ?attach_arena@generic_scheduler@internal@tbb@@QAEXPAVarena@23@I_N@Z 10029170 f   arena.obj
 0001:000282a0       ?nested_arena_entry@generic_scheduler@internal@tbb@@QAEXPAVarena@23@I@Z 100292a0 f   arena.obj
 0001:000283f0       ?nested_arena_exit@generic_scheduler@internal@tbb@@QAEXXZ 100293f0 f   arena.obj
 0001:000284f0       ?wait_until_empty@generic_scheduler@internal@tbb@@QAEXXZ 100294f0 f   arena.obj
 0001:000285a0       ?internal_initialize@task_arena_base@internal@interface7@tbb@@IAEXXZ 100295a0 f   arena.obj
 0001:00028770       ?internal_terminate@task_arena_base@internal@interface7@tbb@@IAEXXZ 10029770 f   arena.obj
 0001:00028800       ?internal_attach@task_arena_base@internal@interface7@tbb@@IAEXXZ 10029800 f   arena.obj
 0001:00028950       ?internal_enqueue@task_arena_base@internal@interface7@tbb@@IBEXAAVtask@4@H@Z 10029950 f   arena.obj
 0001:00028a30       ?internal_execute@task_arena_base@internal@interface7@tbb@@IBEXAAVdelegate_base@234@@Z 10029a30 f   arena.obj
 0001:00029110       ?internal_wait@task_arena_base@internal@interface7@tbb@@IBEXXZ 1002a110 f   arena.obj
 0001:000293f0       ?internal_current_slot@task_arena_base@internal@interface7@tbb@@KAHXZ 1002a3f0 f   arena.obj
 0001:00029440       ?internal_max_concurrency@task_arena_base@internal@interface7@tbb@@KAHPBVtask_arena@34@@Z 1002a440 f   arena.obj
 0001:00029510       ?isolate_within_arena@internal@interface7@tbb@@YAXAAVdelegate_base@123@H@Z 1002a510 f   arena.obj
 0001:00029630       ?restore_priority_if_need@arena@internal@tbb@@AAEXXZ 1002a630 f   arena.obj
 0001:000296e0       ??0arena@internal@tbb@@QAE@AAVmarket@12@II@Z 1002a6e0 f   arena.obj
 0001:00029ab0       ?allocate_arena@arena@internal@tbb@@SAAAV123@AAVmarket@23@II@Z 1002aab0 f   arena.obj
 0001:00029bd0       ?free_arena@arena@internal@tbb@@QAEXXZ 1002abd0 f   arena.obj
 0001:00029f30       ?is_out_of_work@arena@internal@tbb@@QAE_NXZ 1002af30 f   arena.obj
 0001:0002a3e0       ?enqueue_task@arena@internal@tbb@@QAEXAAVtask@3@HAAVFastRandom@23@@Z 1002b3e0 f   arena.obj
 0001:0002a5f0       ?process@arena@internal@tbb@@QAEXAAVgeneric_scheduler@23@@Z 1002b5f0 f   arena.obj
 0001:0002aaa0       ?orphan_offloaded_tasks@arena@internal@tbb@@QAEXAAVgeneric_scheduler@23@@Z 1002baa0 f   arena.obj
 0001:0002ab90       ?workers_task_node_count@arena@internal@tbb@@QAEHXZ 1002bb90 f   arena.obj
 0001:0002ac00       ?has_enqueued_tasks@arena@internal@tbb@@QAE_NXZ 1002bc00 f   arena.obj
 0001:0002ac60       ?occupy_free_slot_in_range@arena@internal@tbb@@QAEIAAVgeneric_scheduler@23@II@Z 1002bc60 f   arena.obj
 0001:0002ad90       ?construct_binding_observer@internal@tbb@@YAPAVnuma_binding_observer@12@PAVtask_arena@interface7@2@HH@Z 1002bd90 f   arena.obj
 0001:0002ae80       ?destroy_binding_observer@internal@tbb@@YAXPAVnuma_binding_observer@12@@Z 1002be80 f   arena.obj
 0001:0002af60       ??$?0$$V@?$_Compressed_pair@V?$tbb_allocator@PAVtask@tbb@@@tbb@@V?$_Deque_val@U?$_Deque_simple_types@PAVtask@tbb@@@std@@@std@@$00@std@@QAE@U_Zero_then_variadic_args_t@1@@Z 1002bf60 f i arena.obj
 0001:0002afa0       ??$?0PAVtask@tbb@@@?$tbb_allocator@PAPAVtask@tbb@@@tbb@@QAE@ABV?$tbb_allocator@PAVtask@tbb@@@1@@Z 1002bfa0 f i arena.obj
 0001:0002afc0       ??$?0PAVtask@tbb@@@?$tbb_allocator@U_Container_proxy@std@@@tbb@@QAE@ABV?$tbb_allocator@PAVtask@tbb@@@1@@Z 1002bfc0 f i arena.obj
 0001:0002afe0       ??$_Adl_verify_range@PAPAPAVtask@tbb@@PAPAPAV12@@std@@YAXABQAPAPAVtask@tbb@@0@Z 1002bfe0 f i arena.obj
 0001:0002b000       ??$_Alloc_proxy@V?$tbb_allocator@U_Container_proxy@std@@@tbb@@@_Container_base12@std@@QAEX$$QAV?$tbb_allocator@U_Container_proxy@std@@@tbb@@@Z 1002c000 f i arena.obj
 0001:0002b070       ??$_Construct_in_place@U_Container_proxy@std@@PAU_Container_base12@2@@std@@YAXAAU_Container_proxy@0@$$QAPAU_Container_base12@0@@Z 1002c070 f i arena.obj
 0001:0002b0c0       ??$_Copy_memmove@PAPAPAVtask@tbb@@PAPAPAV12@@std@@YAPAPAPAVtask@tbb@@PAPAPAV12@00@Z 1002c0c0 f i arena.obj
 0001:0002b120       ??$_Deallocate_plain@V?$tbb_allocator@U_Container_proxy@std@@@tbb@@@std@@YAXAAV?$tbb_allocator@U_Container_proxy@std@@@tbb@@QAU_Container_proxy@0@@Z 1002c120 f i arena.obj
 0001:0002b180       ??$_Delete_plain_internal@V?$tbb_allocator@U_Container_proxy@std@@@tbb@@@std@@YAXAAV?$tbb_allocator@U_Container_proxy@std@@@tbb@@QAU_Container_proxy@0@@Z 1002c180 f i arena.obj
 0001:0002b1a0       ??$_Destroy_in_place@PAPAVtask@tbb@@@std@@YAXAAPAPAVtask@tbb@@@Z 1002c1a0 f i arena.obj
 0001:0002b1b0       ??$_Destroy_range@PAPAPAVtask@tbb@@@std@@YAXPAPAPAVtask@tbb@@QAPAPAV12@@Z 1002c1b0 f i arena.obj
 0001:0002b1c0       ??$_Emplace_back_internal@ABQAVtask@tbb@@@?$deque@PAVtask@tbb@@V?$tbb_allocator@PAVtask@tbb@@@2@@std@@AAEXABQAVtask@tbb@@@Z 1002c1c0 f i arena.obj
 0001:0002b330       ??$_Get_unwrapped@ABQAPAPAVtask@tbb@@@std@@YAPAPAPAVtask@tbb@@ABQAPAPAV12@@Z 1002c330 f i arena.obj
 0001:0002b340       ??$_Get_unwrapped_n@AAPAPAPAVtask@tbb@@H@std@@YAPAPAPAVtask@tbb@@AAPAPAPAV12@H@Z 1002c340 f i arena.obj
 0001:0002b350       ??$_Idl_distance@PAPAPAVtask@tbb@@PAPAPAV12@@std@@YAHABQAPAPAVtask@tbb@@0@Z 1002c350 f i arena.obj
 0001:0002b370       ??$_Seek_wrapped@PAPAPAVtask@tbb@@AAPAPAPAV12@@std@@YAXAAPAPAPAVtask@tbb@@0@Z 1002c370 f i arena.obj
 0001:0002b380       ??$_Unfancy@PAVtask@tbb@@@std@@YAPAPAVtask@tbb@@PAPAV12@@Z 1002c380 f i arena.obj
 0001:0002b390       ??$_Unfancy@U_Container_proxy@std@@@std@@YAPAU_Container_proxy@0@PAU10@@Z 1002c390 f i arena.obj
 0001:0002b3a0       ??$_Uninitialized_value_construct_n_unchecked1@PAPAPAVtask@tbb@@I@std@@YAPAPAPAVtask@tbb@@PAPAPAV12@I@Z 1002c3a0 f i arena.obj
 0001:0002b3d0       ??$_Verify_range@PAPAVtask@tbb@@@std@@YAXQBQAPAVtask@tbb@@0@Z 1002c3d0 f i arena.obj
 0001:0002b450       ??$_Zero_range@PAPAPAVtask@tbb@@@std@@YAPAPAPAVtask@tbb@@QAPAPAV12@0@Z 1002c450 f i arena.obj
 0001:0002b4a0       ??$__TBB_load_with_acquire@PAVgeneric_scheduler@internal@tbb@@@internal@tbb@@YAPAVgeneric_scheduler@01@ADSAV201@@Z 1002c4a0 f i arena.obj
 0001:0002b4c0       ??$__TBB_load_with_acquire@PAVtask@tbb@@@internal@tbb@@YAPAVtask@1@ADSAV21@@Z 1002c4c0 f i arena.obj
 0001:0002b4e0       ??$__TBB_store_with_release@PAVgeneric_scheduler@internal@tbb@@PAV123@@internal@tbb@@YAXACRAVgeneric_scheduler@01@PAV201@@Z 1002c4e0 f i arena.obj
 0001:0002b500       ??$addressof@U_Container_proxy@std@@@std@@YAPAU_Container_proxy@0@AAU10@@Z 1002c500 f i arena.obj
 0001:0002b510       ??$addressof@V?$_Deque_val@U?$_Deque_simple_types@PAVtask@tbb@@@std@@@std@@@std@@YAPAV?$_Deque_val@U?$_Deque_simple_types@PAVtask@tbb@@@std@@@0@AAV10@@Z 1002c510 f i arena.obj
 0001:0002b520       ??$advertise_new_work@$01@arena@internal@tbb@@QAEXXZ 1002c520 f i arena.obj
 0001:0002b7b0       ??$as_atomic@PAVgeneric_scheduler@internal@tbb@@@internal@tbb@@YAAAU?$atomic@PAVgeneric_scheduler@internal@tbb@@@1@AAPAVgeneric_scheduler@01@@Z 1002c7b0 f i arena.obj
 0001:0002b7c0       ??$as_atomic@PAVtask@tbb@@@internal@tbb@@YAAAU?$atomic@PAVtask@tbb@@@1@AAPAVtask@1@@Z 1002c7c0 f i arena.obj
 0001:0002b7d0       ??$as_atomic@PAVtask_group_context@tbb@@@internal@tbb@@YAAAU?$atomic@PAVtask_group_context@tbb@@@1@AAPAVtask_group_context@1@@Z 1002c7d0 f i arena.obj
 0001:0002b7e0       ??$as_atomic@_N@internal@tbb@@YAAAU?$atomic@_N@1@AA_N@Z 1002c7e0 f i arena.obj
 0001:0002b7f0       ??$atomic_update@HHU?$less@H@std@@@internal@tbb@@YAHAAU?$atomic@H@1@HU?$less@H@std@@@Z 1002c7f0 f i arena.obj
 0001:0002b8a0       ??$atomic_update@IIU?$less@I@std@@@internal@tbb@@YAIAAU?$atomic@I@1@IU?$less@I@std@@@Z 1002c8a0 f i arena.obj
 0001:0002b950       ??$compare_and_swap@$0A@@?$atomic_impl@PAVarena@internal@tbb@@@internal@tbb@@QAEPAVarena@12@PAV312@0@Z 1002c950 f i arena.obj
 0001:0002b9a0       ??$compare_and_swap@$0A@@?$atomic_impl@PAVgeneric_scheduler@internal@tbb@@@internal@tbb@@QAEPAVgeneric_scheduler@12@PAV312@0@Z 1002c9a0 f i arena.obj
 0001:0002b9f0       ??$compare_and_swap@$0A@@?$atomic_impl@PAVtask@tbb@@@internal@tbb@@QAEPAVtask@2@PAV32@0@Z 1002c9f0 f i arena.obj
 0001:0002ba40       ??$construct@PAVtask@tbb@@ABQAV12@@?$_Normal_allocator_traits@V?$tbb_allocator@PAVtask@tbb@@@tbb@@@std@@SAXAAV?$tbb_allocator@PAVtask@tbb@@@tbb@@PAPAVtask@3@ABQAV43@@Z 1002ca40 f i arena.obj
 0001:0002ba70       ??$construct@PAVtask@tbb@@ABQAV12@@?$tbb_allocator@PAVtask@tbb@@@tbb@@QAEXPAPAVtask@1@ABQAV21@@Z 1002ca70 f i arena.obj
 0001:0002bac0       ??$destroy@PAVtask@tbb@@@?$_Normal_allocator_traits@V?$tbb_allocator@PAVtask@tbb@@@tbb@@@std@@SAXAAV?$tbb_allocator@PAVtask@tbb@@@tbb@@PAPAVtask@3@@Z 1002cac0 f i arena.obj
 0001:0002bae0       ??$exchange@PAU_Container_proxy@std@@$$T@std@@YAPAU_Container_proxy@0@AAPAU10@$$QA$$T@Z 1002cae0 f i arena.obj
 0001:0002bb10       ??$forward@ABQAVtask@tbb@@@std@@YAABQAVtask@tbb@@ABQAV12@@Z 1002cb10 f i arena.obj
 0001:0002bb20       ??$forward@PAU_Container_base12@std@@@std@@YA$$QAPAU_Container_base12@0@AAPAU10@@Z 1002cb20 f i arena.obj
 0001:0002bb30       ??$forward@Vspawn_functor@graph@interface10@flow@tbb@@@std@@YA$$QAVspawn_functor@graph@interface10@flow@tbb@@AAV12345@@Z 1002cb30 f i arena.obj
 0001:0002bb40       ??$free_task@$02@generic_scheduler@internal@tbb@@QAEXAAVtask@2@@Z 1002cb40 f i arena.obj
 0001:0002bca0       ??$min@I@std@@YAABIABI0@Z  1002cca0 f i arena.obj
 0001:0002bce0       ??$move@AAVspawn_functor@graph@interface10@flow@tbb@@@std@@YA$$QAVspawn_functor@graph@interface10@flow@tbb@@AAV12345@@Z 1002cce0 f i arena.obj
 0001:0002bcf0       ??$notify@Vdelegated_task@internal@interface7@tbb@@@concurrent_monitor@internal@tbb@@QAEXABVdelegated_task@1interface7@2@@Z 1002ccf0 f i arena.obj
 0001:0002bd20       ??$notify_relaxed@Vdelegated_task@internal@interface7@tbb@@@concurrent_monitor@internal@tbb@@QAEXABVdelegated_task@1interface7@2@@Z 1002cd20 f i arena.obj
 0001:0002bf00       ??$occupy_free_slot@$00@arena@internal@tbb@@QAEIAAVgeneric_scheduler@12@@Z 1002cf00 f i arena.obj
 0001:0002bff0       ??$occupy_free_slot@$0A@@arena@internal@tbb@@QAEIAAVgeneric_scheduler@12@@Z 1002cff0 f i arena.obj
 0001:0002c0d0       ??$on_thread_leaving@$00@arena@internal@tbb@@QAEXXZ 1002d0d0 f i arena.obj
 0001:0002c1d0       ??$on_thread_leaving@$0BAAA@@arena@internal@tbb@@QAEXXZ 1002d1d0 f i arena.obj
 0001:0002c2b0       ??$poison_value@PAVobserver_proxy@internal@tbb@@@internal@tbb@@YAXAAPAVobserver_proxy@01@@Z 1002d2b0 f i arena.obj
 0001:0002c2d0       ??$punned_cast@PAPAVobserver_proxy@internal@tbb@@$$CBI@internal@tbb@@YAPAPAVobserver_proxy@01@PBI@Z 1002d2d0 f i arena.obj
 0001:0002c2f0       ??$spin_wait_while_eq@PAVtask_group_context@tbb@@PAV12@@internal@tbb@@YAXADSAVtask_group_context@1@PAV21@@Z 1002d2f0 f i arena.obj
 0001:0002c370       ??$store@$02@?$atomic_impl@H@internal@tbb@@QAEXH@Z 1002d370 f i arena.obj
 0001:0002c3b0       ??$suppress_unused_warning@$$BY0HA@D@internal@tbb@@YAXAAY0HA@$$CBD@Z 1002d3b0 f i arena.obj
 0001:0002c3c0       ??$suppress_unused_warning@PBVtask_group_context@tbb@@@internal@tbb@@YAXABQBVtask_group_context@1@@Z 1002d3c0 f i arena.obj
 0001:0002c3d0       ??$to_bits@H@?$atomic_impl@H@internal@tbb@@SAHH@Z 1002d3d0 f i arena.obj
 0001:0002c400       ??$to_bits@PAVgeneric_scheduler@internal@tbb@@@?$atomic_impl@PAVgeneric_scheduler@internal@tbb@@@internal@tbb@@SAHPAVgeneric_scheduler@12@@Z 1002d400 f i arena.obj
 0001:0002c430       ??$to_bits@PAVtask@tbb@@@?$atomic_impl@PAVtask@tbb@@@internal@tbb@@SAHPAVtask@2@@Z 1002d430 f i arena.obj
 0001:0002c460       ??$to_bits@PAVtask_group_context@tbb@@@?$atomic_impl@PAVtask_group_context@tbb@@@internal@tbb@@SAHPAVtask_group_context@2@@Z 1002d460 f i arena.obj
 0001:0002c490       ??$to_bits@_N@?$atomic_impl@_N@internal@tbb@@SAC_N@Z 1002d490 f i arena.obj
 0001:0002c4c0       ??$to_bits_ref@$$CD_N@?$atomic_impl@_N@internal@tbb@@SAAACAD_N@Z 1002d4c0 f i arena.obj
 0001:0002c4f0       ??$to_bits_ref@H@?$atomic_impl@H@internal@tbb@@SAAAHAAH@Z 1002d4f0 f i arena.obj
 0001:0002c520       ??$to_bits_ref@PAVtask_group_context@tbb@@@?$atomic_impl@PAVtask_group_context@tbb@@@internal@tbb@@SAAAHAAPAVtask_group_context@2@@Z 1002d520 f i arena.obj
 0001:0002c550       ??$to_bits_ref@_N@?$atomic_impl@_N@internal@tbb@@SAAACAA_N@Z 1002d550 f i arena.obj
 0001:0002c580       ??$to_value@PAVarena@internal@tbb@@@?$atomic_impl@PAVarena@internal@tbb@@@internal@tbb@@SAPAVarena@12@H@Z 1002d580 f i arena.obj
 0001:0002c5f0       ??$to_value@PAVgeneric_scheduler@internal@tbb@@@?$atomic_impl@PAVgeneric_scheduler@internal@tbb@@@internal@tbb@@SAPAVgeneric_scheduler@12@H@Z 1002d5f0 f i arena.obj
 0001:0002c660       ??$to_value@PAVtask@tbb@@@?$atomic_impl@PAVtask@tbb@@@internal@tbb@@SAPAVtask@2@H@Z 1002d660 f i arena.obj
 0001:0002c6d0       ??$to_value@_N@?$atomic_impl@_N@internal@tbb@@SA_NC@Z 1002d6d0 f i arena.obj
 0001:0002c740       ??$uninitialized_copy@PAPAPAVtask@tbb@@PAPAPAV12@@std@@YAPAPAPAVtask@tbb@@QAPAPAV12@0PAPAPAV12@@Z 1002d740 f i arena.obj
 0001:0002c850       ??0?$_Deque_const_iterator@V?$_Deque_val@U?$_Deque_simple_types@PAVtask@tbb@@@std@@@std@@@std@@QAE@IPBU_Container_base12@1@@Z 1002d850 f i arena.obj
 0001:0002c8c0       ??0?$_Deque_iterator@V?$_Deque_val@U?$_Deque_simple_types@PAVtask@tbb@@@std@@@std@@@std@@QAE@IPBU_Container_base12@1@@Z 1002d8c0 f i arena.obj
 0001:0002c900       ??0?$_Deque_val@U?$_Deque_simple_types@PAVtask@tbb@@@std@@@std@@QAE@XZ 1002d900 f i arena.obj
 0001:0002c950       ??0?$context_guard_helper@$0A@@internal@tbb@@QAE@XZ 1002d950 f i arena.obj
 0001:0002c9a0       ??0?$converter@PAVarena@internal@tbb@@@?$atomic_impl@PAVarena@internal@tbb@@@internal@tbb@@QAE@XZ 1002d9a0 f i arena.obj
 0001:0002c9c0       ??0?$converter@PAVgeneric_scheduler@internal@tbb@@@?$atomic_impl@PAVgeneric_scheduler@internal@tbb@@@internal@tbb@@QAE@PAVgeneric_scheduler@23@@Z 1002d9c0 f i arena.obj
 0001:0002c9e0       ??0?$converter@PAVgeneric_scheduler@internal@tbb@@@?$atomic_impl@PAVgeneric_scheduler@internal@tbb@@@internal@tbb@@QAE@XZ 1002d9e0 f i arena.obj
 0001:0002ca00       ??0?$converter@PAVtask@tbb@@@?$atomic_impl@PAVtask@tbb@@@internal@tbb@@QAE@PAVtask@3@@Z 1002da00 f i arena.obj
 0001:0002ca20       ??0?$converter@PAVtask@tbb@@@?$atomic_impl@PAVtask@tbb@@@internal@tbb@@QAE@XZ 1002da20 f i arena.obj
 0001:0002ca40       ??0?$converter@PAVtask_group_context@tbb@@@?$atomic_impl@PAVtask_group_context@tbb@@@internal@tbb@@QAE@PAVtask_group_context@3@@Z 1002da40 f i arena.obj
 0001:0002ca60       ??0?$deque@PAVtask@tbb@@V?$tbb_allocator@PAVtask@tbb@@@2@@std@@QAE@XZ 1002da60 f i arena.obj
 0001:0002cac0       ??0?$function_task@Vspawn_functor@graph@interface10@flow@tbb@@@internal@tbb@@QAE@$$QAVspawn_functor@graph@interface10@flow@2@@Z 1002dac0 f i arena.obj
 0001:0002cb10       ??0?$padded@U?$queue_and_mutex@PAVtask@tbb@@Vspin_mutex@2@@internal@tbb@@$0IA@@internal@tbb@@QAE@XZ 1002db10 f i arena.obj
 0001:0002cb40       ??0?$padded@Uarena_base@internal@tbb@@$0IA@@internal@tbb@@QAE@XZ 1002db40 f i arena.obj
 0001:0002cb70       ??0?$padded@Uintrusive_list_node@internal@tbb@@$0IA@@internal@tbb@@QAE@XZ 1002db70 f i arena.obj
 0001:0002cba0       ??0?$padded_base@U?$queue_and_mutex@PAVtask@tbb@@Vspin_mutex@2@@internal@tbb@@$0IA@$0BI@@internal@tbb@@QAE@XZ 1002dba0 f i arena.obj
 0001:0002cbd0       ??0?$padded_base@Uarena_base@internal@tbb@@$0IA@$0BA@@internal@tbb@@QAE@XZ 1002dbd0 f i arena.obj
 0001:0002cc00       ??0?$padded_base@Uintrusive_list_node@internal@tbb@@$0IA@$07@internal@tbb@@QAE@XZ 1002dc00 f i arena.obj
 0001:0002cc30       ??0?$ptr_converter@PAPAVtask_group_context@tbb@@@?$atomic_impl@PAVtask_group_context@tbb@@@internal@tbb@@QAE@PAPAVtask_group_context@3@@Z 1002dc30 f i arena.obj
 0001:0002cc50       ??0?$queue_and_mutex@PAVtask@tbb@@Vspin_mutex@2@@internal@tbb@@QAE@XZ 1002dc50 f i arena.obj
 0001:0002ccc0       ??0?$task_stream@$02@internal@tbb@@QAE@XZ 1002dcc0 f i arena.obj
 0001:0002cd20       ??0?$tbb_allocator@PAVtask@tbb@@@tbb@@QAE@XZ 1002dd20 f i arena.obj
 0001:0002cd40       ??0_Container_base12@std@@QAE@XZ 1002dd40 f i arena.obj
 0001:0002cd60       ??0_Container_proxy@std@@QAE@PAU_Container_base12@1@@Z 1002dd60 f i arena.obj
 0001:0002cd90       ??0_Iterator_base12@std@@QAE@XZ 1002dd90 f i arena.obj
 0001:0002cdc0       ??0arena_base@internal@tbb@@QAE@XZ 1002ddc0 f i arena.obj
 0001:0002ce50       ??0auto_empty_task@internal@tbb@@QAE@PAVgeneric_scheduler@12@PAVtask_group_context@2@@Z 1002de50 f i arena.obj
 0001:0002ceb0       ??0delegated_task@internal@interface7@tbb@@QAE@AAVdelegate_base@123@AAVconcurrent_monitor@13@PAVtask@3@@Z 1002deb0 f i arena.obj
 0001:0002cf00       ??0empty_task@tbb@@QAE@XZ  1002df00 f i arena.obj
 0001:0002cf30       ??0isolation_guard@internal@interface7@tbb@@QAE@AAH@Z 1002df30 f i arena.obj
 0001:0002cf60       ??0mail_inbox@internal@tbb@@QAE@XZ 1002df60 f i arena.obj
 0001:0002cf80       ??0nested_arena_context@internal@tbb@@QAE@PAVgeneric_scheduler@12@PAVarena@12@I_N2@Z 1002df80 f i arena.obj
 0001:0002d040       ??0numa_binding_observer@internal@tbb@@QAE@PAVtask_arena@interface7@2@HH@Z 1002e040 f i arena.obj
 0001:0002d0d0       ??0observer_list@internal@tbb@@QAE@XZ 1002e0d0 f i arena.obj
 0001:0002d100       ??0outermost_context@?1??execute@delegated_task@internal@interface7@tbb@@EAEPAVtask@5@XZ@QAE@PAV2345@AAVgeneric_scheduler@35@@Z 1002e100 f i arena.obj
 0001:0002d1e0       ??0scheduler_state@internal@tbb@@QAE@XZ 1002e1e0 f i arena.obj
 0001:0002d210       ??0task_scheduler_observer@interface6@tbb@@QAE@AAVtask_arena@interface7@2@@Z 1002e210 f i arena.obj
 0001:0002d250       ??0task_scheduler_observer_v3@internal@tbb@@QAE@XZ 1002e250 f i arena.obj
 0001:0002d290       ??0wait_task@internal@interface7@tbb@@QAE@AAVbinary_semaphore@13@@Z 1002e290 f i arena.obj
 0001:0002d2d0       ??1?$_Deque_const_iterator@V?$_Deque_val@U?$_Deque_simple_types@PAVtask@tbb@@@std@@@std@@@std@@QAE@XZ 1002e2d0 f i arena.obj
 0001:0002d300       ??1?$_Deque_iterator@V?$_Deque_val@U?$_Deque_simple_types@PAVtask@tbb@@@std@@@std@@@std@@QAE@XZ 1002e300 f i arena.obj
 0001:0002d330       ??1?$context_guard_helper@$0A@@internal@tbb@@QAE@XZ 1002e330 f i arena.obj
 0001:0002d3b0       ??1?$deque@PAVtask@tbb@@V?$tbb_allocator@PAVtask@tbb@@@2@@std@@QAE@XZ 1002e3b0 f i arena.obj
 0001:0002d460       ??1?$function_task@Vspawn_functor@graph@interface10@flow@tbb@@@internal@tbb@@UAE@XZ 1002e460 f i arena.obj
 0001:0002d490       ??1?$padded@U?$queue_and_mutex@PAVtask@tbb@@Vspin_mutex@2@@internal@tbb@@$0IA@@internal@tbb@@QAE@XZ 1002e490 f i arena.obj
 0001:0002d4c0       ??1?$padded@Uarena_base@internal@tbb@@$0IA@@internal@tbb@@QAE@XZ 1002e4c0 f i arena.obj
 0001:0002d4f0       ??1?$padded_base@U?$queue_and_mutex@PAVtask@tbb@@Vspin_mutex@2@@internal@tbb@@$0IA@$0BI@@internal@tbb@@QAE@XZ 1002e4f0 f i arena.obj
 0001:0002d520       ??1?$padded_base@Uarena_base@internal@tbb@@$0IA@$0BA@@internal@tbb@@QAE@XZ 1002e520 f i arena.obj
 0001:0002d550       ??1?$queue_and_mutex@PAVtask@tbb@@Vspin_mutex@2@@internal@tbb@@QAE@XZ 1002e550 f i arena.obj
 0001:0002d580       ??1?$task_stream@$02@internal@tbb@@QAE@XZ 1002e580 f i arena.obj
 0001:0002d600       ??1_Iterator_base12@std@@QAE@XZ 1002e600 f i arena.obj
 0001:0002d690       ??1arena@internal@tbb@@QAE@XZ 1002e690 f i arena.obj
 0001:0002d6c0       ??1arena_base@internal@tbb@@QAE@XZ 1002e6c0 f i arena.obj
 0001:0002d700       ??1auto_empty_task@internal@tbb@@QAE@XZ 1002e700 f i arena.obj
 0001:0002d760       ??1delegated_task@internal@interface7@tbb@@EAE@XZ 1002e760 f i arena.obj
 0001:0002d820       ??1empty_task@tbb@@UAE@XZ  1002e820 f i arena.obj
 0001:0002d850       ??1isolation_guard@internal@interface7@tbb@@QAE@XZ 1002e850 f i arena.obj
 0001:0002d870       ??1nested_arena_context@internal@tbb@@QAE@XZ 1002e870 f i arena.obj
 0001:0002d940       ??1numa_binding_observer@internal@tbb@@UAE@XZ 1002e940 f i arena.obj
 0001:0002d9b0       ??1outermost_context@?1??execute@delegated_task@internal@interface7@tbb@@EAEPAVtask@5@XZ@QAE@XZ 1002e9b0 f i arena.obj
 0001:0002da30       ??1task_scheduler_observer@interface6@tbb@@UAE@XZ 1002ea30 f i arena.obj
 0001:0002daa0       ??1task_scheduler_observer_v3@internal@tbb@@UAE@XZ 1002eaa0 f i arena.obj
 0001:0002db10       ??1wait_task@internal@interface7@tbb@@UAE@XZ 1002eb10 f i arena.obj
 0001:0002db40       ??4?$atomic@PAVtask_group_context@tbb@@@tbb@@QAEPAVtask_group_context@1@PAV21@@Z 1002eb40 f i arena.obj
 0001:0002db70       ??8?$_Deque_const_iterator@V?$_Deque_val@U?$_Deque_simple_types@PAVtask@tbb@@@std@@@std@@@std@@QBE_NABV01@@Z 1002eb70 f i arena.obj
 0001:0002dbd0       ??9?$_Deque_const_iterator@V?$_Deque_val@U?$_Deque_simple_types@PAVtask@tbb@@@std@@@std@@@std@@QBE_NABV01@@Z 1002ebd0 f i arena.obj
 0001:0002dc20       ??9cpu_ctl_env@internal@tbb@@QBE_NABV012@@Z 1002ec20 f i arena.obj
 0001:0002dc70       ??Bauto_empty_task@internal@tbb@@QAEAAVtask@2@XZ 1002ec70 f i arena.obj
 0001:0002dc90       ??D?$_Deque_const_iterator@V?$_Deque_val@U?$_Deque_simple_types@PAVtask@tbb@@@std@@@std@@@std@@QBEABQAVtask@tbb@@XZ 1002ec90 f i arena.obj
 0001:0002ddf0       ??D?$_Deque_iterator@V?$_Deque_val@U?$_Deque_simple_types@PAVtask@tbb@@@std@@@std@@@std@@QBEAAPAVtask@tbb@@XZ 1002edf0 f i arena.obj
 0001:0002de20       ??E?$_Deque_const_iterator@V?$_Deque_val@U?$_Deque_simple_types@PAVtask@tbb@@@std@@@std@@@std@@QAEAAV01@XZ 1002ee20 f i arena.obj
 0001:0002df50       ??E?$_Deque_iterator@V?$_Deque_val@U?$_Deque_simple_types@PAVtask@tbb@@@std@@@std@@@std@@QAEAAV01@XZ 1002ef50 f i arena.obj
 0001:0002df80       ??Iauto_empty_task@internal@tbb@@QAEPAVtask@2@XZ 1002ef80 f i arena.obj
 0001:0002dfa0       ??R?$less@H@std@@QBE_NABH0@Z 1002efa0 f i arena.obj
 0001:0002dfe0       ??R?$less@I@std@@QBE_NABI0@Z 1002efe0 f i arena.obj
 0001:0002e020       ??Rdelegated_task@internal@interface7@tbb@@QBE_NI@Z 1002f020 f i arena.obj
 0001:0002e060       ??Rspawn_functor@graph@interface10@flow@tbb@@QBEXXZ 1002f060 f i arena.obj
 0001:0002e090       ??_E?$padded@U?$queue_and_mutex@PAVtask@tbb@@Vspin_mutex@2@@internal@tbb@@$0IA@@internal@tbb@@QAEPAXI@Z 1002f090 f i arena.obj
 0001:0002e150       ??_G?$function_task@Vspawn_functor@graph@interface10@flow@tbb@@@internal@tbb@@UAEPAXI@Z 1002f150 f i arena.obj
 0001:0002e150       ??_E?$function_task@Vspawn_functor@graph@interface10@flow@tbb@@@internal@tbb@@UAEPAXI@Z 1002f150 f i arena.obj
 0001:0002e190       ??_Garena@internal@tbb@@QAEPAXI@Z 1002f190 f i arena.obj
 0001:0002e1e0       ??_Edelegated_task@internal@interface7@tbb@@EAEPAXI@Z 1002f1e0 f i arena.obj
 0001:0002e1e0       ??_Gdelegated_task@internal@interface7@tbb@@EAEPAXI@Z 1002f1e0 f i arena.obj
 0001:0002e220       ??_Eempty_task@tbb@@UAEPAXI@Z 1002f220 f i arena.obj
 0001:0002e220       ??_Gempty_task@tbb@@UAEPAXI@Z 1002f220 f i arena.obj
 0001:0002e260       ??_Gnuma_binding_observer@internal@tbb@@UAEPAXI@Z 1002f260 f i arena.obj
 0001:0002e260       ??_Enuma_binding_observer@internal@tbb@@UAEPAXI@Z 1002f260 f i arena.obj
 0001:0002e2a0       ??_Gtask_group_context@tbb@@QAEPAXI@Z 1002f2a0 f i arena.obj
 0001:0002e2f0       ??_Etask_scheduler_observer@interface6@tbb@@UAEPAXI@Z 1002f2f0 f i arena.obj
 0001:0002e2f0       ??_Gtask_scheduler_observer@interface6@tbb@@UAEPAXI@Z 1002f2f0 f i arena.obj
 0001:0002e330       ??_Etask_scheduler_observer_v3@internal@tbb@@UAEPAXI@Z 1002f330 f i arena.obj
 0001:0002e330       ??_Gtask_scheduler_observer_v3@internal@tbb@@UAEPAXI@Z 1002f330 f i arena.obj
 0001:0002e370       ??_Gwait_task@internal@interface7@tbb@@UAEPAXI@Z 1002f370 f i arena.obj
 0001:0002e370       ??_Ewait_task@internal@interface7@tbb@@UAEPAXI@Z 1002f370 f i arena.obj
 0001:0002e3b0       ?_Adopt@_Iterator_base12@std@@QAEXPBU_Container_base12@2@@Z 1002f3b0 f i arena.obj
 0001:0002e4c0       ?_Compat@?$_Deque_const_iterator@V?$_Deque_val@U?$_Deque_simple_types@PAVtask@tbb@@@std@@@std@@@std@@QBEXABV12@@Z 1002f4c0 f i arena.obj
 0001:0002e560       ?_Get_data@?$deque@PAVtask@tbb@@V?$tbb_allocator@PAVtask@tbb@@@2@@std@@AAEAAV?$_Deque_val@U?$_Deque_simple_types@PAVtask@tbb@@@std@@@2@XZ 1002f560 f i arena.obj
 0001:0002e580       ?_Get_data@?$deque@PAVtask@tbb@@V?$tbb_allocator@PAVtask@tbb@@@2@@std@@ABEABV?$_Deque_val@U?$_Deque_simple_types@PAVtask@tbb@@@std@@@2@XZ 1002f580 f i arena.obj
 0001:0002e5a0       ?_Get_first@?$_Compressed_pair@V?$tbb_allocator@PAVtask@tbb@@@tbb@@V?$_Deque_val@U?$_Deque_simple_types@PAVtask@tbb@@@std@@@std@@$00@std@@QAEAAV?$tbb_allocator@PAVtask@tbb@@@tbb@@XZ 1002f5a0 f i arena.obj
 0001:0002e5c0       ?_Get_first@?$_Compressed_pair@V?$tbb_allocator@PAVtask@tbb@@@tbb@@V?$_Deque_val@U?$_Deque_simple_types@PAVtask@tbb@@@std@@@std@@$00@std@@QBEABV?$tbb_allocator@PAVtask@tbb@@@tbb@@XZ 1002f5c0 f i arena.obj
 0001:0002e5e0       ?_Getal@?$deque@PAVtask@tbb@@V?$tbb_allocator@PAVtask@tbb@@@2@@std@@AAEAAV?$tbb_allocator@PAVtask@tbb@@@tbb@@XZ 1002f5e0 f i arena.obj
 0001:0002e610       ?_Getal@?$deque@PAVtask@tbb@@V?$tbb_allocator@PAVtask@tbb@@@2@@std@@ABEABV?$tbb_allocator@PAVtask@tbb@@@tbb@@XZ 1002f610 f i arena.obj
 0001:0002e640       ?_Getblock@?$_Deque_val@U?$_Deque_simple_types@PAVtask@tbb@@@std@@@std@@QBEII@Z 1002f640 f i arena.obj
 0001:0002e670       ?_Getblock@?$deque@PAVtask@tbb@@V?$tbb_allocator@PAVtask@tbb@@@2@@std@@ABEII@Z 1002f670 f i arena.obj
 0001:0002e6b0       ?_Getcont@_Iterator_base12@std@@QBEPBU_Container_base12@2@XZ 1002f6b0 f i arena.obj
 0001:0002e6f0       ?_Growmap@?$deque@PAVtask@tbb@@V?$tbb_allocator@PAVtask@tbb@@@2@@std@@AAEXI@Z 1002f6f0 f i arena.obj
 0001:0002e990       ?_Map@?$deque@PAVtask@tbb@@V?$tbb_allocator@PAVtask@tbb@@@2@@std@@AAEAAPAPAPAVtask@tbb@@XZ 1002f990 f i arena.obj
 0001:0002e9c0       ?_Mapsize@?$deque@PAVtask@tbb@@V?$tbb_allocator@PAVtask@tbb@@@2@@std@@AAEAAIXZ 1002f9c0 f i arena.obj
 0001:0002e9f0       ?_Myoff@?$deque@PAVtask@tbb@@V?$tbb_allocator@PAVtask@tbb@@@2@@std@@AAEAAIXZ 1002f9f0 f i arena.obj
 0001:0002ea20       ?_Myoff@?$deque@PAVtask@tbb@@V?$tbb_allocator@PAVtask@tbb@@@2@@std@@ABEABIXZ 1002fa20 f i arena.obj
 0001:0002ea50       ?_Mysize@?$deque@PAVtask@tbb@@V?$tbb_allocator@PAVtask@tbb@@@2@@std@@AAEAAIXZ 1002fa50 f i arena.obj
 0001:0002ea80       ?_Mysize@?$deque@PAVtask@tbb@@V?$tbb_allocator@PAVtask@tbb@@@2@@std@@ABEABIXZ 1002fa80 f i arena.obj
 0001:0002eab0       ?_Orphan_all@?$deque@PAVtask@tbb@@V?$tbb_allocator@PAVtask@tbb@@@2@@std@@AAEXXZ 1002fab0 f i arena.obj
 0001:0002eae0       ?_Orphan_all@_Container_base12@std@@QAEXXZ 1002fae0 f i arena.obj
 0001:0002ebb0       ?_Orphan_me@_Iterator_base12@std@@QAEXXZ 1002fbb0 f i arena.obj
 0001:0002ec90       ?_Orphan_off@?$deque@PAVtask@tbb@@V?$tbb_allocator@PAVtask@tbb@@@2@@std@@ABEXI@Z 1002fc90 f i arena.obj
 0001:0002edc0       ?_Setcont@?$_Deque_const_iterator@V?$_Deque_val@U?$_Deque_simple_types@PAVtask@tbb@@@std@@@std@@@std@@QAEXPBV?$_Deque_val@U?$_Deque_simple_types@PAVtask@tbb@@@std@@@2@@Z 1002fdc0 f i arena.obj
 0001:0002edf0       ?_Tidy@?$deque@PAVtask@tbb@@V?$tbb_allocator@PAVtask@tbb@@@2@@std@@AAEXXZ 1002fdf0 f i arena.obj
 0001:0002ef60       ?_Xlen@?$deque@PAVtask@tbb@@V?$tbb_allocator@PAVtask@tbb@@@2@@std@@ABEXXZ 1002ff60 f i arena.obj
 0001:0002ef90       ?__TBB_set_cpu_ctl_env@@YAXPBVcpu_ctl_env@internal@tbb@@@Z 1002ff90 f i arena.obj
 0001:0002efb0       ?allocate@?$tbb_allocator@PAPAVtask@tbb@@@tbb@@QAEPAPAPAVtask@2@IPBX@Z 1002ffb0 f i arena.obj
 0001:0002efe0       ?allocate@?$tbb_allocator@PAVtask@tbb@@@tbb@@QAEPAPAVtask@2@IPBX@Z 1002ffe0 f i arena.obj
 0001:0002f010       ?allocate@?$tbb_allocator@U_Container_proxy@std@@@tbb@@QAEPAU_Container_proxy@std@@IPBX@Z 10030010 f i arena.obj
 0001:0002f040       ?allocation_size@arena@internal@tbb@@SAHI@Z 10030040 f i arena.obj
 0001:0002f060       ?assert_context_valid@generic_scheduler@internal@tbb@@SAXPBVtask_group_context@3@@Z 10030060 f i arena.obj
 0001:0002f250       ?attach@mail_inbox@internal@tbb@@QAEXAAVmail_outbox@23@@Z 10030250 f i arena.obj
 0001:0002f270       ?attach_mailbox@generic_scheduler@internal@tbb@@QAEXG@Z 10030270 f i arena.obj
 0001:0002f2e0       ?begin@?$deque@PAVtask@tbb@@V?$tbb_allocator@PAVtask@tbb@@@2@@std@@QAE?AV?$_Deque_iterator@V?$_Deque_val@U?$_Deque_simple_types@PAVtask@tbb@@@std@@@std@@@2@XZ 100302e0 f i arena.obj
 0001:0002f330       ?clear@?$deque@PAVtask@tbb@@V?$tbb_allocator@PAVtask@tbb@@@2@@std@@QAEXXZ 10030330 f i arena.obj
 0001:0002f360       ?clear_one_bit@internal@tbb@@YAXAAIH@Z 10030360 f i arena.obj
 0001:0002f3d0       ?compare_and_swap@?$atomic_impl@PAVarena@internal@tbb@@@internal@tbb@@QAEPAVarena@23@PAV423@0@Z 100303d0 f i arena.obj
 0001:0002f400       ?compare_and_swap@?$atomic_impl@PAVgeneric_scheduler@internal@tbb@@@internal@tbb@@QAEPAVgeneric_scheduler@23@PAV423@0@Z 10030400 f i arena.obj
 0001:0002f430       ?compare_and_swap@?$atomic_impl@PAVtask@tbb@@@internal@tbb@@QAEPAVtask@3@PAV43@0@Z 10030430 f i arena.obj
 0001:0002f460       ?construct@mail_outbox@internal@tbb@@QAEXXZ 10030460 f i arena.obj
 0001:0002f530       ?current_thread_index@task_arena@interface7@tbb@@SAHXZ 10030530 f i arena.obj
 0001:0002f550       ?current_thread_index@this_task_arena@tbb@@YAHXZ 10030550 f i arena.obj
 0001:0002f5a0       ?deallocate@?$_Normal_allocator_traits@V?$tbb_allocator@U_Container_proxy@std@@@tbb@@@std@@SAXAAV?$tbb_allocator@U_Container_proxy@std@@@tbb@@PAU_Container_proxy@2@I@Z 100305a0 f i arena.obj
 0001:0002f5c0       ?deallocate@?$tbb_allocator@PAPAVtask@tbb@@@tbb@@QAEXPAPAPAVtask@2@I@Z 100305c0 f i arena.obj
 0001:0002f5f0       ?deallocate@?$tbb_allocator@PAVtask@tbb@@@tbb@@QAEXPAPAVtask@2@I@Z 100305f0 f i arena.obj
 0001:0002f620       ?deallocate@?$tbb_allocator@U_Container_proxy@std@@@tbb@@QAEXPAU_Container_proxy@std@@I@Z 10030620 f i arena.obj
 0001:0002f650       ?destroy@?$tbb_allocator@PAVtask@tbb@@@tbb@@QAEXPAPAVtask@2@@Z 10030650 f i arena.obj
 0001:0002f670       ?detach@mail_inbox@internal@tbb@@QAEXXZ 10030670 f i arena.obj
 0001:0002f6c0       ?drain@?$task_stream@$02@internal@tbb@@QAEHXZ 100306c0 f i arena.obj
 0001:0002f8c0       ?drain@mail_outbox@internal@tbb@@QAEHXZ 100308c0 f i arena.obj
 0001:0002f930       ?empty@?$deque@PAVtask@tbb@@V?$tbb_allocator@PAVtask@tbb@@@2@@std@@QBE_NXZ 10030930 f i arena.obj
 0001:0002f980       ?empty@observer_list@internal@tbb@@QBE_NXZ 10030980 f i arena.obj
 0001:0002f9c0       ?end@?$deque@PAVtask@tbb@@V?$tbb_allocator@PAVtask@tbb@@@2@@std@@QAE?AV?$_Deque_iterator@V?$_Deque_val@U?$_Deque_simple_types@PAVtask@tbb@@@std@@@std@@@2@XZ 100309c0 f i arena.obj
 0001:0002fa20       ?execute@?$function_task@Vspawn_functor@graph@interface10@flow@tbb@@@internal@tbb@@EAEPAVtask@3@XZ 10030a20 f i arena.obj
 0001:0002fa50       ?execute@delegated_task@internal@interface7@tbb@@EAEPAVtask@4@XZ 10030a50 f i arena.obj
 0001:0002fb60       ?execute@empty_task@tbb@@EAEPAVtask@2@XZ 10030b60 f i arena.obj
 0001:0002fb80       ?execute@wait_task@internal@interface7@tbb@@EAEPAVtask@4@XZ 10030b80 f i arena.obj
 0001:0002fc80       ?free_task_pool@arena_slot@internal@tbb@@QAEXXZ 10030c80 f i arena.obj
 0001:0002fd00       ?get@FastRandom@internal@tbb@@QAEGAAI@Z 10030d00 f i arena.obj
 0001:0002fd80       ?get@FastRandom@internal@tbb@@QAEGXZ 10030d80 f i arena.obj
 0001:0002fdb0       ?initialize@?$task_stream@$02@internal@tbb@@QAEXI@Z 10030db0 f i arena.obj
 0001:0002ffa0       ?inlineCreateEventEx@@YGPAXPAU_SECURITY_ATTRIBUTES@@PB_WKK@Z 10030fa0 f i arena.obj
 0001:00030030       ?is_bit_set@internal@tbb@@YA_NIH@Z 10031030 f i arena.obj
 0001:000300b0       ?is_busy_or_empty@arena@internal@tbb@@SA_NI@Z 100310b0 f i arena.obj
 0001:000300e0       ?is_idle_state@mail_inbox@internal@tbb@@QBE_N_N@Z 100310e0 f i arena.obj
 0001:00030130       ?is_local_task_pool_quiescent@generic_scheduler@internal@tbb@@QBE_NXZ 10031130 f i arena.obj
 0001:000301b0       ?is_quiescent_local_task_pool_reset@generic_scheduler@internal@tbb@@QBE_NXZ 100311b0 f i arena.obj
 0001:00030250       ?is_recall_requested@arena@internal@tbb@@QBE_NXZ 10031250 f i arena.obj
 0001:000302a0       ?load_with_acquire@?$machine_load_store@PAVgeneric_scheduler@internal@tbb@@$03@internal@tbb@@SAPAVgeneric_scheduler@23@ADSAV423@@Z 100312a0 f i arena.obj
 0001:000302c0       ?load_with_acquire@?$machine_load_store@PAVtask@tbb@@$03@internal@tbb@@SAPAVtask@3@ADSAV43@@Z 100312c0 f i arena.obj
 0001:000302e0       ?mailbox@arena@internal@tbb@@QAEAAVmail_outbox@23@G@Z 100312e0 f i arena.obj
 0001:00030360       ?max@?$numeric_limits@H@std@@SAHXZ 10031360 f i arena.obj
 0001:00030370       ?max_size@?$_Normal_allocator_traits@V?$tbb_allocator@PAVtask@tbb@@@tbb@@@std@@SAIABV?$tbb_allocator@PAVtask@tbb@@@tbb@@@Z 10031370 f i arena.obj
 0001:00030390       ?max_size@?$deque@PAVtask@tbb@@V?$tbb_allocator@PAVtask@tbb@@@2@@std@@QBEIXZ 10031390 f i arena.obj
 0001:000303f0       ?max_size@?$tbb_allocator@PAVtask@tbb@@@tbb@@QBEIXZ 100313f0 f i arena.obj
 0001:00030440       ?may_have_tasks@arena@internal@tbb@@QAE_NPAVgeneric_scheduler@23@AA_N1@Z 10031440 f i arena.obj
 0001:000304d0       ?mimic_outermost_level@nested_arena_context@internal@tbb@@AAEXPAVarena@23@_N@Z 100314d0 f i arena.obj
 0001:00030560       ?notify_entry_observers@observer_list@internal@tbb@@QAEXAAPAVobserver_proxy@23@_N@Z 10031560 f i arena.obj
 0001:000305a0       ?notify_exit_observers@observer_list@internal@tbb@@QAEXAAPAVobserver_proxy@23@_N@Z 100315a0 f i arena.obj
 0001:00030640       ?notify_one@concurrent_monitor@internal@tbb@@QAEXXZ 10031640 f i arena.obj
 0001:00030670       ?num_arena_slots@arena@internal@tbb@@SAII@Z 10031670 f i arena.obj
 0001:000306a0       ?numa_id@task_arena_base@internal@interface7@tbb@@IAEHXZ 100316a0 f i arena.obj
 0001:000306e0       ?observe@task_scheduler_observer@interface6@tbb@@QAEX_N@Z 100316e0 f i arena.obj
 0001:00030760       ?on_scheduler_entry@numa_binding_observer@internal@tbb@@UAEX_N@Z 10031760 f i arena.obj
 0001:000307a0       ?on_scheduler_entry@task_scheduler_observer_v3@internal@tbb@@UAEX_N@Z 100317a0 f i arena.obj
 0001:000307c0       ?on_scheduler_exit@numa_binding_observer@internal@tbb@@UAEX_N@Z 100317c0 f i arena.obj
 0001:00030800       ?on_scheduler_exit@task_scheduler_observer_v3@internal@tbb@@UAEX_N@Z 10031800 f i arena.obj
 0001:00030820       ?pop_back@?$deque@PAVtask@tbb@@V?$tbb_allocator@PAVtask@tbb@@@2@@std@@QAEXXZ 10031820 f i arena.obj
 0001:00030990       ?prefix@auto_empty_task@internal@tbb@@QAEAAVtask_prefix@23@XZ 10031990 f i arena.obj
 0001:000309c0       ?push@?$task_stream@$02@internal@tbb@@QAEXPAVtask@3@HAAVFastRandom@23@@Z 100319c0 f i arena.obj
 0001:00030af0       ?push_back@?$deque@PAVtask@tbb@@V?$tbb_allocator@PAVtask@tbb@@@2@@std@@QAEXABQAVtask@tbb@@@Z 10031af0 f i arena.obj
 0001:00030b30       ?ref_count@task@tbb@@QBEHXZ 10031b30 f i arena.obj
 0001:00030ba0       ?restore_default@?$context_guard_helper@$0A@@internal@tbb@@QAEXXZ 10031ba0 f i arena.obj
 0001:00030c00       ?rethrow_exception@std@@YAXVexception_ptr@1@@Z 10031c00 f i arena.obj
 0001:00030c60       ?rethrow_exception_broken@governor@internal@tbb@@SA_NXZ 10031c60 f i arena.obj
 0001:00030c70       ?set_ctx@?$context_guard_helper@$0A@@internal@tbb@@QAEXPBVtask_group_context@3@@Z 10031c70 f i arena.obj
 0001:00030d30       ?set_env@cpu_ctl_env@internal@tbb@@QBEXXZ 10031d30 f i arena.obj
 0001:00030d60       ?set_is_idle@mail_inbox@internal@tbb@@QAEX_N@Z 10031d60 f i arena.obj
 0001:00030dd0       ?set_one_bit@internal@tbb@@YAXAAIH@Z 10031dd0 f i arena.obj
 0001:00030e30       ?store_with_release@?$atomic_impl@PAVtask_group_context@tbb@@@internal@tbb@@IAEPAVtask_group_context@3@PAV43@@Z 10031e30 f i arena.obj
 0001:00030e80       ?store_with_release@?$machine_load_store@PAVgeneric_scheduler@internal@tbb@@$03@internal@tbb@@SAXACRAVgeneric_scheduler@23@PAV423@@Z 10031e80 f i arena.obj
 0001:00030e90       ?throw_self@tbb_exception_ptr@internal@tbb@@QAEXXZ 10031e90 f i arena.obj
 0001:00030ed0       ?update_task_node_count@market@internal@tbb@@QAEXH@Z 10031ed0 f i arena.obj
 0001:00030f00       ?worker_outermost_level@generic_scheduler@internal@tbb@@QBE_NXZ 10031f00 f i arena.obj
 0001:00030ff0       ??1scheduler@internal@tbb@@UAE@XZ 10031ff0 f   scheduler.obj
 0001:00031010       ?init_stack_info@generic_scheduler@internal@tbb@@QAEXXZ 10032010 f   scheduler.obj
 0001:00031110       ?get_mailbox_task@generic_scheduler@internal@tbb@@QAEPAVtask@3@H@Z 10032110 f   scheduler.obj
 0001:000311f0       ?steal_task@generic_scheduler@internal@tbb@@QAEPAVtask@3@H@Z 100321f0 f   scheduler.obj
 0001:00031360       ?steal_task_from@generic_scheduler@internal@tbb@@QAEPAVtask@3@AAUarena_slot@23@H@Z 10032360 f   scheduler.obj
 0001:000315f0       ?create_master@generic_scheduler@internal@tbb@@SAPAV123@PAVarena@23@@Z 100325f0 f   scheduler.obj
 0001:00031870       ?cleanup_master@generic_scheduler@internal@tbb@@QAE_N_N@Z 10032870 f   scheduler.obj
 0001:00031b90       ?create_worker@generic_scheduler@internal@tbb@@SAPAV123@AAVmarket@23@I_N@Z 10032b90 f   scheduler.obj
 0001:00031c40       ?cleanup_worker@generic_scheduler@internal@tbb@@SAXPAX_N@Z 10032c40 f   scheduler.obj
 0001:00031cb0       ??0generic_scheduler@internal@tbb@@IAE@AAVmarket@12@_N@Z 10032cb0 f   scheduler.obj
 0001:00031f10       ?spawn@generic_scheduler@internal@tbb@@UAEXAAVtask@3@AAPAV43@@Z 10032f10 f   scheduler.obj
 0001:00031f50       ?spawn_root_and_wait@generic_scheduler@internal@tbb@@UAEXAAVtask@3@AAPAV43@@Z 10032f50 f   scheduler.obj
 0001:00031f90       ?enqueue@generic_scheduler@internal@tbb@@UAEXAAVtask@3@PAX@Z 10032f90 f   scheduler.obj
 0001:00032000       ?local_spawn@generic_scheduler@internal@tbb@@QAEXPAVtask@3@AAPAV43@@Z 10033000 f   scheduler.obj
 0001:000322d0       ?local_spawn_root_and_wait@generic_scheduler@internal@tbb@@QAEXPAVtask@3@AAPAV43@@Z 100332d0 f   scheduler.obj
 0001:00032500       ?destroy@generic_scheduler@internal@tbb@@QAEXXZ 10033500 f   scheduler.obj
 0001:00032580       ?cleanup_scheduler@generic_scheduler@internal@tbb@@QAEXXZ 10033580 f   scheduler.obj
 0001:000326f0       ?allocate_task@generic_scheduler@internal@tbb@@QAEAAVtask@3@IPAV43@PAVtask_group_context@3@@Z 100336f0 f   scheduler.obj
 0001:00032920       ?free_nonlocal_small_task@generic_scheduler@internal@tbb@@QAEXAAVtask@3@@Z 10033920 f   scheduler.obj
 0001:00032a50       ?reload_tasks@generic_scheduler@internal@tbb@@QAEPAVtask@3@H@Z 10033a50 f   scheduler.obj
 0001:00032bf0       ?reload_tasks@generic_scheduler@internal@tbb@@QAEPAVtask@3@AAPAV43@AAPAPAV43@HH@Z 10033bf0 f   scheduler.obj
 0001:00032f50       ?winnow_task_pool@generic_scheduler@internal@tbb@@QAEPAVtask@3@H@Z 10033f50 f   scheduler.obj
 0001:000331a0       ?get_task_and_activate_task_pool@generic_scheduler@internal@tbb@@QAEPAVtask@3@IIH@Z 100341a0 f   scheduler.obj
 0001:000333e0       ?cleanup_local_context_list@generic_scheduler@internal@tbb@@QAEXXZ 100343e0 f   scheduler.obj
 0001:000335d0       ?Scheduler_OneTimeInitialization@internal@tbb@@YAX_N@Z 100345d0 f   scheduler.obj
 0001:00033640       ??$__TBB_load_relaxed@PAUtask_proxy@internal@tbb@@@internal@tbb@@YAPAUtask_proxy@01@ADSAU201@@Z 10034640 f i scheduler.obj
 0001:00033660       ??$__TBB_store_relaxed@PAPAVtask@tbb@@PAPAV12@@internal@tbb@@YAXACRAPAVtask@1@PAPAV21@@Z 10034660 f i scheduler.obj
 0001:00033680       ??$__TBB_store_relaxed@PAUtask_proxy@internal@tbb@@PAU123@@internal@tbb@@YAXACRAUtask_proxy@01@PAU201@@Z 10034680 f i scheduler.obj
 0001:000336a0       ??$__TBB_store_with_release@PAPAVtask@tbb@@PAPAV12@@internal@tbb@@YAXACRAPAVtask@1@PAPAV21@@Z 100346a0 f i scheduler.obj
 0001:000336c0       ??$advertise_new_work@$00@arena@internal@tbb@@QAEXXZ 100346c0 f i scheduler.obj
 0001:00033950       ??$advertise_new_work@$0A@@arena@internal@tbb@@QAEXXZ 10034950 f i scheduler.obj
 0001:00033be0       ??$as_atomic@PAPAUtask_proxy@internal@tbb@@@internal@tbb@@YAAAU?$atomic@PAPAUtask_proxy@internal@tbb@@@1@AAPAPAUtask_proxy@01@@Z 10034be0 f i scheduler.obj
 0001:00033bf0       ??$as_atomic@PAPAVtask@tbb@@@internal@tbb@@YAAAU?$atomic@PAPAVtask@tbb@@@1@AAPAPAVtask@1@@Z 10034bf0 f i scheduler.obj
 0001:00033c00       ??$compare_and_swap@$0A@@?$atomic_impl@PAPAUtask_proxy@internal@tbb@@@internal@tbb@@QAEPAPAUtask_proxy@12@PAPAU312@0@Z 10034c00 f i scheduler.obj
 0001:00033c50       ??$compare_and_swap@$0A@@?$atomic_impl@PAPAVtask@tbb@@@internal@tbb@@QAEPAPAVtask@2@PAPAV32@0@Z 10034c50 f i scheduler.obj
 0001:00033ca0       ??$extract_task@$00@task_proxy@internal@tbb@@QAEPAVtask@2@XZ 10034ca0 f i scheduler.obj
 0001:00033db0       ??$extract_task@$01@task_proxy@internal@tbb@@QAEPAVtask@2@XZ 10034db0 f i scheduler.obj
 0001:00033ec0       ??$free_task@$01@generic_scheduler@internal@tbb@@QAEXAAVtask@2@@Z 10034ec0 f i scheduler.obj
 0001:00034040       ??$free_task@$05@generic_scheduler@internal@tbb@@QAEXAAVtask@2@@Z 10035040 f i scheduler.obj
 0001:000341c0       ??$free_task@$0A@@generic_scheduler@internal@tbb@@QAEXAAVtask@2@@Z 100351c0 f i scheduler.obj
 0001:00034340       ??$init@I@FastRandom@internal@tbb@@QAEXI@Z 10035340 f i scheduler.obj
 0001:00034380       ??$is_poisoned@Vtask@tbb@@@internal@tbb@@YA_NPAVtask@1@@Z 10035380 f i scheduler.obj
 0001:000343b0       ??$poison_pointer@Vtask_group_context@tbb@@@internal@tbb@@YAXAAPAVtask_group_context@1@@Z 100353b0 f i scheduler.obj
 0001:000343c0       ??$suppress_unused_warning@_N@internal@tbb@@YAXAB_N@Z 100353c0 f i scheduler.obj
 0001:000343d0       ??$to_bits@PAPAUtask_proxy@internal@tbb@@@?$atomic_impl@PAPAUtask_proxy@internal@tbb@@@internal@tbb@@SAHPAPAUtask_proxy@12@@Z 100353d0 f i scheduler.obj
 0001:00034400       ??$to_bits@PAPAVtask@tbb@@@?$atomic_impl@PAPAVtask@tbb@@@internal@tbb@@SAHPAPAVtask@2@@Z 10035400 f i scheduler.obj
 0001:00034430       ??$to_value@PAPAUtask_proxy@internal@tbb@@@?$atomic_impl@PAPAUtask_proxy@internal@tbb@@@internal@tbb@@SAPAPAUtask_proxy@12@H@Z 10035430 f i scheduler.obj
 0001:000344a0       ??$to_value@PAPAVtask@tbb@@@?$atomic_impl@PAPAVtask@tbb@@@internal@tbb@@SAPAPAVtask@2@H@Z 100354a0 f i scheduler.obj
 0001:00034510       ??0?$_Deque_unchecked_const_iterator@V?$_Deque_val@U?$_Deque_simple_types@PAVtask@tbb@@@std@@@std@@@std@@QAE@IPBU_Container_base12@1@@Z 10035510 f i scheduler.obj
 0001:00034540       ??0?$_Deque_unchecked_iterator@V?$_Deque_val@U?$_Deque_simple_types@PAVtask@tbb@@@std@@@std@@@std@@QAE@IPBU_Container_base12@1@@Z 10035540 f i scheduler.obj
 0001:00034580       ??0?$context_guard_helper@$00@internal@tbb@@QAE@XZ 10035580 f i scheduler.obj
 0001:000345d0       ??0?$converter@PAPAUtask_proxy@internal@tbb@@@?$atomic_impl@PAPAUtask_proxy@internal@tbb@@@internal@tbb@@QAE@PAPAUtask_proxy@23@@Z 100355d0 f i scheduler.obj
 0001:000345f0       ??0?$converter@PAPAUtask_proxy@internal@tbb@@@?$atomic_impl@PAPAUtask_proxy@internal@tbb@@@internal@tbb@@QAE@XZ 100355f0 f i scheduler.obj
 0001:00034610       ??0?$converter@PAPAVtask@tbb@@@?$atomic_impl@PAPAVtask@tbb@@@internal@tbb@@QAE@PAPAVtask@3@@Z 10035610 f i scheduler.obj
 0001:00034630       ??0?$converter@PAPAVtask@tbb@@@?$atomic_impl@PAPAVtask@tbb@@@internal@tbb@@QAE@XZ 10035630 f i scheduler.obj
 0001:00034650       ??0?$custom_scheduler@UDefaultSchedulerTraits@internal@tbb@@@internal@tbb@@AAE@AAVmarket@12@_N@Z 10035650 f i scheduler.obj
 0001:00034690       ??0?$custom_scheduler@UIntelSchedulerTraits@internal@tbb@@@internal@tbb@@AAE@AAVmarket@12@_N@Z 10035690 f i scheduler.obj
 0001:000346d0       ??0?$fast_reverse_vector@PAVtask@tbb@@$0BA@@internal@tbb@@QAE@PAPAVtask@2@I@Z 100356d0 f i scheduler.obj
 0001:00034750       ??0FastRandom@internal@tbb@@QAE@PAX@Z 10035750 f i scheduler.obj
 0001:00034780       ??0auto_indicator@internal@tbb@@QAE@AC_N@Z 10035780 f i scheduler.obj
 0001:000347b0       ??0scheduler@internal@tbb@@QAE@XZ 100357b0 f i scheduler.obj
 0001:000347d0       ??1?$context_guard_helper@$00@internal@tbb@@QAE@XZ 100357d0 f i scheduler.obj
 0001:00034860       ??1?$custom_scheduler@UDefaultSchedulerTraits@internal@tbb@@@internal@tbb@@UAE@XZ 10035860 f i scheduler.obj
 0001:00034890       ??1?$custom_scheduler@UIntelSchedulerTraits@internal@tbb@@@internal@tbb@@UAE@XZ 10035890 f i scheduler.obj
 0001:000348c0       ??1?$fast_reverse_vector@PAVtask@tbb@@$0BA@@internal@tbb@@QAE@XZ 100358c0 f i scheduler.obj
 0001:00034950       ??1auto_indicator@internal@tbb@@QAE@XZ 10035950 f i scheduler.obj
 0001:00034970       ??1generic_scheduler@internal@tbb@@UAE@XZ 10035970 f i scheduler.obj
 0001:000349a0       ??D?$_Deque_unchecked_const_iterator@V?$_Deque_val@U?$_Deque_simple_types@PAVtask@tbb@@@std@@@std@@@std@@QBEABQAVtask@tbb@@XZ 100359a0 f i scheduler.obj
 0001:00034a10       ??D?$_Deque_unchecked_iterator@V?$_Deque_val@U?$_Deque_simple_types@PAVtask@tbb@@@std@@@std@@@std@@QBEAAPAVtask@tbb@@XZ 10035a10 f i scheduler.obj
 0001:00034a40       ??_G?$custom_scheduler@UDefaultSchedulerTraits@internal@tbb@@@internal@tbb@@UAEPAXI@Z 10035a40 f i scheduler.obj
 0001:00034a40       ??_E?$custom_scheduler@UDefaultSchedulerTraits@internal@tbb@@@internal@tbb@@UAEPAXI@Z 10035a40 f i scheduler.obj
 0001:00034a90       ??_G?$custom_scheduler@UIntelSchedulerTraits@internal@tbb@@@internal@tbb@@UAEPAXI@Z 10035a90 f i scheduler.obj
 0001:00034a90       ??_E?$custom_scheduler@UIntelSchedulerTraits@internal@tbb@@@internal@tbb@@UAEPAXI@Z 10035a90 f i scheduler.obj
 0001:00034ae0       ??_Egeneric_scheduler@internal@tbb@@UAEPAXI@Z 10035ae0 f i scheduler.obj
 0001:00034ae0       ??_Ggeneric_scheduler@internal@tbb@@UAEPAXI@Z 10035ae0 f i scheduler.obj
 0001:00034b30       ?CancellationInfoPresent@internal@tbb@@YA_NAAVtask@2@@Z 10035b30 f i scheduler.obj
 0001:00034b70       ?ConcurrentWaitsEnabled@internal@tbb@@YA_NAAVtask@2@@Z 10035b70 f i scheduler.obj
 0001:00034bc0       ?_Unchecked_begin@?$deque@PAVtask@tbb@@V?$tbb_allocator@PAVtask@tbb@@@2@@std@@QAE?AV?$_Deque_unchecked_iterator@V?$_Deque_val@U?$_Deque_simple_types@PAVtask@tbb@@@std@@@std@@@2@XZ 10035bc0 f i scheduler.obj
 0001:00034c10       ?acquire_task_pool@generic_scheduler@internal@tbb@@QBEXXZ 10035c10 f i scheduler.obj
 0001:00034de0       ?allocate_scheduler@?$custom_scheduler@UDefaultSchedulerTraits@internal@tbb@@@internal@tbb@@SAPAVgeneric_scheduler@23@AAVmarket@23@_N@Z 10035de0 f i scheduler.obj
 0001:00034ea0       ?allocate_scheduler@?$custom_scheduler@UIntelSchedulerTraits@internal@tbb@@@internal@tbb@@SAPAVgeneric_scheduler@23@AAVmarket@23@_N@Z 10035ea0 f i scheduler.obj
 0001:00034f60       ?allocate_scheduler@internal@tbb@@YAPAVgeneric_scheduler@12@AAVmarket@12@_N@Z 10035f60 f i scheduler.obj
 0001:00034f90       ?allocate_task_pool@arena_slot@internal@tbb@@QAEXI@Z 10035f90 f i scheduler.obj
 0001:00035010       ?assert_ok@?$intrusive_list_base@V?$intrusive_list@Vgeneric_scheduler@internal@tbb@@@internal@tbb@@Vgeneric_scheduler@23@@internal@tbb@@ABEXXZ 10036010 f i scheduler.obj
 0001:00035070       ?bounded_pause@atomic_backoff@internal@tbb@@QAE_NXZ 10036070 f i scheduler.obj
 0001:000350c0       ?can_steal@generic_scheduler@internal@tbb@@QAE_NXZ 100360c0 f i scheduler.obj
 0001:00035100       ?commit_relocated_tasks@generic_scheduler@internal@tbb@@QAEXI@Z 10036100 f i scheduler.obj
 0001:00035180       ?commit_spawned_tasks@generic_scheduler@internal@tbb@@QAEXI@Z 10036180 f i scheduler.obj
 0001:00035210       ?compare_and_swap@?$atomic_impl@PAPAUtask_proxy@internal@tbb@@@internal@tbb@@QAEPAPAUtask_proxy@23@PAPAU423@0@Z 10036210 f i scheduler.obj
 0001:00035240       ?compare_and_swap@?$atomic_impl@PAPAVtask@tbb@@@internal@tbb@@QAEPAPAVtask@3@PAPAV43@0@Z 10036240 f i scheduler.obj
 0001:00035270       ?copy_memory@?$fast_reverse_vector@PAVtask@tbb@@$0BA@@internal@tbb@@QBEXPAPAVtask@3@@Z 10036270 f i scheduler.obj
 0001:00035340       ?effective_reference_priority@generic_scheduler@internal@tbb@@QBEHXZ 10036340 f i scheduler.obj
 0001:000353b0       ?empty@mail_inbox@internal@tbb@@QAE_NXZ 100363b0 f i scheduler.obj
 0001:000353e0       ?empty@mail_outbox@internal@tbb@@QAE_NXZ 100363e0 f i scheduler.obj
 0001:00035430       ?fill_with_canary_pattern@arena_slot@internal@tbb@@QAEXII@Z 10036430 f i scheduler.obj
 0001:00035490       ?front@?$deque@PAVtask@tbb@@V?$tbb_allocator@PAVtask@tbb@@@2@@std@@QAEAAPAVtask@tbb@@XZ 10036490 f i scheduler.obj
 0001:00035580       ?get_task@generic_scheduler@internal@tbb@@QAEPAVtask@3@H@Z 10036580 f i scheduler.obj
 0001:00035a10       ?get_task@generic_scheduler@internal@tbb@@QAEPAVtask@3@IHAA_N@Z 10036a10 f i scheduler.obj
 0001:00035c10       ?init@FastRandom@internal@tbb@@QAEXIU?$int_to_type@$03@23@@Z 10036c10 f i scheduler.obj
 0001:00035c50       ?internal_pop@mail_outbox@internal@tbb@@AAEPAUtask_proxy@23@H@Z 10036c50 f i scheduler.obj
 0001:00035e00       ?is_enqueued_task@task@tbb@@QBE_NXZ 10036e00 f i scheduler.obj
 0001:00035e50       ?is_proxy@generic_scheduler@internal@tbb@@SA_NABVtask@3@@Z 10036e50 f i scheduler.obj
 0001:00035e90       ?is_quiescent_local_task_pool_empty@generic_scheduler@internal@tbb@@QBE_NXZ 10036e90 f i scheduler.obj
 0001:00035f30       ?is_shared@task_proxy@internal@tbb@@SA_NH@Z 10036f30 f i scheduler.obj
 0001:00035f60       ?is_task_pool_published@generic_scheduler@internal@tbb@@QBE_NXZ 10036f60 f i scheduler.obj
 0001:00035fd0       ?is_version_3_task@generic_scheduler@internal@tbb@@SA_NAAVtask@3@@Z 10036fd0 f i scheduler.obj
 0001:00036020       ?leave_task_pool@generic_scheduler@internal@tbb@@QAEXXZ 10037020 f i scheduler.obj
 0001:00036150       ?load@?$machine_load_store_relaxed@PAUtask_proxy@internal@tbb@@$03@internal@tbb@@SAPAUtask_proxy@23@ADSAU423@@Z 10037150 f i scheduler.obj
 0001:00036160       ?local_wait_for_all@?$custom_scheduler@UDefaultSchedulerTraits@internal@tbb@@@internal@tbb@@EAEXAAVtask@3@PAV43@@Z 10037160 f i scheduler.obj
 0001:00036cd0       ?local_wait_for_all@?$custom_scheduler@UIntelSchedulerTraits@internal@tbb@@@internal@tbb@@EAEXAAVtask@3@PAV43@@Z 10037cd0 f i scheduler.obj
 0001:00037830       ?lock_task_pool@generic_scheduler@internal@tbb@@QBEPAPAVtask@3@PAUarena_slot@23@@Z 10038830 f i scheduler.obj
 0001:000379a0       ?node@?$intrusive_list@Vgeneric_scheduler@internal@tbb@@@internal@tbb@@CAAAUintrusive_list_node@23@AAVgeneric_scheduler@23@@Z 100389a0 f i scheduler.obj
 0001:000379b0       ?node@?$intrusive_list_base@V?$intrusive_list@Vgeneric_scheduler@internal@tbb@@@internal@tbb@@Vgeneric_scheduler@23@@internal@tbb@@CAAAUintrusive_list_node@23@AAVgeneric_scheduler@23@@Z 100389b0 f i scheduler.obj
 0001:000379d0       ?offload_task@generic_scheduler@internal@tbb@@QAEXAAVtask@3@H@Z 100389d0 f i scheduler.obj
 0001:00037a90       ?outbox@mail_inbox@internal@tbb@@QBEPAXXZ 10038a90 f i scheduler.obj
 0001:00037ab0       ?plugged_return_list@generic_scheduler@internal@tbb@@SAPAVtask@3@XZ 10038ab0 f i scheduler.obj
 0001:00037ac0       ?pop@?$task_stream@$02@internal@tbb@@QAEPAVtask@3@HAAI@Z 10038ac0 f i scheduler.obj
 0001:00037c70       ?pop@mail_inbox@internal@tbb@@QAEPAUtask_proxy@23@H@Z 10038c70 f i scheduler.obj
 0001:00037ca0       ?pop_front@?$deque@PAVtask@tbb@@V?$tbb_allocator@PAVtask@tbb@@@2@@std@@QAEXXZ 10038ca0 f i scheduler.obj
 0001:00037e20       ?prepare_for_spawning@generic_scheduler@internal@tbb@@QAEPAVtask@3@PAV43@@Z 10038e20 f i scheduler.obj
 0001:00038060       ?prepare_task_pool@generic_scheduler@internal@tbb@@QAEII@Z 10039060 f i scheduler.obj
 0001:000382f0       ?priority@internal@tbb@@YAAAHAAVtask@2@@Z 100392f0 f i scheduler.obj
 0001:00038310       ?process_bypass_loop@?$custom_scheduler@UDefaultSchedulerTraits@internal@tbb@@@internal@tbb@@AAE_NAAV?$context_guard_helper@$00@23@PAVtask@3@H@Z 10039310 f i scheduler.obj
 0001:00038960       ?process_bypass_loop@?$custom_scheduler@UIntelSchedulerTraits@internal@tbb@@@internal@tbb@@AAE_NAAV?$context_guard_helper@$0A@@23@PAVtask@3@H@Z 10039960 f i scheduler.obj
 0001:00038fa0       ?prolonged_pause@internal@tbb@@YAXXZ 10039fa0 f i scheduler.obj
 0001:00039070       ?publish_task_pool@generic_scheduler@internal@tbb@@QAEXXZ 1003a070 f i scheduler.obj
 0001:000391e0       ?push@mail_outbox@internal@tbb@@QAE_NPAUtask_proxy@23@@Z 1003a1e0 f i scheduler.obj
 0001:00039280       ?push_back@?$fast_reverse_vector@PAVtask@tbb@@$0BA@@internal@tbb@@QAEXABQAVtask@3@@Z 1003a280 f i scheduler.obj
 0001:000393a0       ?push_front@?$intrusive_list_base@V?$intrusive_list@Vgeneric_scheduler@internal@tbb@@@internal@tbb@@Vgeneric_scheduler@23@@internal@tbb@@QAEXAAVgeneric_scheduler@23@@Z 1003a3a0 f i scheduler.obj
 0001:00039480       ?receive_or_steal_task@?$custom_scheduler@UDefaultSchedulerTraits@internal@tbb@@@internal@tbb@@UAEPAVtask@3@AAHH@Z 1003a480 f i scheduler.obj
 0001:00039ce0       ?receive_or_steal_task@?$custom_scheduler@UIntelSchedulerTraits@internal@tbb@@@internal@tbb@@UAEPAVtask@3@AAHH@Z 1003ace0 f i scheduler.obj
 0001:0003a510       ?recipient_is_idle@mail_outbox@internal@tbb@@QAE_NXZ 1003b510 f i scheduler.obj
 0001:0003a530       ?register_master@market@internal@tbb@@QAEXAAPAX@Z 1003b530 f i scheduler.obj
 0001:0003a5a0       ?release_task_pool@generic_scheduler@internal@tbb@@QBEXXZ 1003b5a0 f i scheduler.obj
 0001:0003a670       ?remove@?$intrusive_list_base@V?$intrusive_list@Vgeneric_scheduler@internal@tbb@@@internal@tbb@@Vgeneric_scheduler@23@@internal@tbb@@QAEXAAVgeneric_scheduler@23@@Z 1003b670 f i scheduler.obj
 0001:0003a7e0       ?reset_extra_state@internal@tbb@@YAXPAVtask@2@@Z 1003b7e0 f i scheduler.obj
 0001:0003a820       ?reset_task_pool_and_leave@generic_scheduler@internal@tbb@@QAEXXZ 1003b820 f i scheduler.obj
 0001:0003a8a0       ?restore_default@?$context_guard_helper@$00@internal@tbb@@QAEXXZ 1003b8a0 f i scheduler.obj
 0001:0003a900       ?set_ctx@?$context_guard_helper@$00@internal@tbb@@QAEXPBVtask_group_context@3@@Z 1003b900 f i scheduler.obj
 0001:0003a9d0       ?size@?$fast_reverse_vector@PAVtask@tbb@@$0BA@@internal@tbb@@QBEIXZ 1003b9d0 f i scheduler.obj
 0001:0003aa00       ?store@?$machine_load_store_relaxed@PAPAVtask@tbb@@$03@internal@tbb@@SAXACRAPAVtask@3@PAPAV43@@Z 1003ba00 f i scheduler.obj
 0001:0003aa10       ?store@?$machine_load_store_relaxed@PAUtask_proxy@internal@tbb@@$03@internal@tbb@@SAXACRAUtask_proxy@23@PAU423@@Z 1003ba10 f i scheduler.obj
 0001:0003aa20       ?store_with_release@?$machine_load_store@PAPAVtask@tbb@@$03@internal@tbb@@SAXACRAPAVtask@3@PAPAV43@@Z 1003ba20 f i scheduler.obj
 0001:0003aa30       ?tally_completion_of_predecessor@?$custom_scheduler@UDefaultSchedulerTraits@internal@tbb@@@internal@tbb@@AAEXAAVtask@3@AAPAV43@H@Z 1003ba30 f i scheduler.obj
 0001:0003abe0       ?tally_completion_of_predecessor@?$custom_scheduler@UIntelSchedulerTraits@internal@tbb@@@internal@tbb@@AAEXAAVtask@3@AAPAV43@H@Z 1003bbe0 f i scheduler.obj
 0001:0003ad90       ?task_ptr@task_proxy@internal@tbb@@SAPAVtask@3@H@Z 1003bd90 f i scheduler.obj
 0001:0003ada0       ?unlock_task_pool@generic_scheduler@internal@tbb@@QBEXPAUarena_slot@23@PAPAVtask@3@@Z 1003bda0 f i scheduler.obj
 0001:0003ae40       ?unregister_master@market@internal@tbb@@QBEXAAPAX@Z 1003be40 f i scheduler.obj
 0001:0003ae90       ?wait_for_all@?$custom_scheduler@UDefaultSchedulerTraits@internal@tbb@@@internal@tbb@@EAEXAAVtask@3@PAV43@@Z 1003be90 f i scheduler.obj
 0001:0003aed0       ?wait_for_all@?$custom_scheduler@UIntelSchedulerTraits@internal@tbb@@@internal@tbb@@EAEXAAVtask@3@PAV43@@Z 1003bed0 f i scheduler.obj
 0001:0003af10       _NtCurrentTeb              1003bf10 f i scheduler.obj
 0001:0003af70       ?observe@task_scheduler_observer_v3@internal@tbb@@QAEX_N@Z 1003bf70 f   observer_proxy.obj
 0001:0003b390       ?do_notify_entry_observers@observer_list@internal@tbb@@AAEXAAPAVobserver_proxy@23@_N@Z 1003c390 f   observer_proxy.obj
 0001:0003b660       ?do_notify_exit_observers@observer_list@internal@tbb@@AAEXPAVobserver_proxy@23@_N@Z 1003c660 f   observer_proxy.obj
 0001:0003b900       ?clear@observer_list@internal@tbb@@QAEXXZ 1003c900 f   observer_proxy.obj
 0001:0003bb50       ?insert@observer_list@internal@tbb@@QAEXPAVobserver_proxy@23@@Z 1003cb50 f   observer_proxy.obj
 0001:0003bc00       ?remove@observer_list@internal@tbb@@QAEXPAVobserver_proxy@23@@Z 1003cc00 f   observer_proxy.obj
 0001:0003bd90       ?remove_ref@observer_list@internal@tbb@@QAEXPAVobserver_proxy@23@@Z 1003cd90 f   observer_proxy.obj
 0001:0003bf70       ?get_v6_observer@observer_proxy@internal@tbb@@AAEPAVtask_scheduler_observer@interface6@3@XZ 1003cf70 f   observer_proxy.obj
 0001:0003bfa0       ?is_global@observer_proxy@internal@tbb@@AAE_NXZ 1003cfa0 f   observer_proxy.obj
 0001:0003c000       ??0observer_proxy@internal@tbb@@AAE@AAVtask_scheduler_observer_v3@12@@Z 1003d000 f   observer_proxy.obj
 0001:0003c0d0       ??1observer_proxy@internal@tbb@@AAE@XZ 1003d0d0 f   observer_proxy.obj
 0001:0003c180       ??$fetch_and_store@$01@?$atomic_impl@_N@internal@tbb@@QAE_N_N@Z 1003d180 f i observer_proxy.obj
 0001:0003c1d0       ??$load@$02@?$atomic_impl@H@internal@tbb@@QBEHXZ 1003d1d0 f i observer_proxy.obj
 0001:0003c210       ??$load@$02H@tbb@@YAHABU?$atomic@H@0@@Z 1003d210 f i observer_proxy.obj
 0001:0003c230       ??$poison_pointer@Vobserver_proxy@internal@tbb@@@internal@tbb@@YAXAAPAVobserver_proxy@01@@Z 1003d230 f i observer_proxy.obj
 0001:0003c240       ??$poison_value@U?$atomic@H@tbb@@@internal@tbb@@YAXAAU?$atomic@H@1@@Z 1003d240 f i observer_proxy.obj
 0001:0003c270       ??$punned_cast@PAU?$atomic@H@tbb@@$$CBI@internal@tbb@@YAPAU?$atomic@H@1@PBI@Z 1003d270 f i observer_proxy.obj
 0001:0003c290       ??$punned_cast@PAVspin_rw_mutex_v3@tbb@@$$CBV?$aligned_space@Vspin_rw_mutex_v3@tbb@@$00@2@@internal@tbb@@YAPAVspin_rw_mutex_v3@1@PBV?$aligned_space@Vspin_rw_mutex_v3@tbb@@$00@1@@Z 1003d290 f i observer_proxy.obj
 0001:0003c2b0       ??$to_bits_ref@$$CBH@?$atomic_impl@H@internal@tbb@@SAAAHABH@Z 1003d2b0 f i observer_proxy.obj
 0001:0003c2e0       ??0?$padded@Vobserver_list@internal@tbb@@$0IA@@internal@tbb@@QAE@XZ 1003d2e0 f i observer_proxy.obj
 0001:0003c310       ??0?$padded_base@Vobserver_list@internal@tbb@@$0IA@$0BA@@internal@tbb@@QAE@XZ 1003d310 f i observer_proxy.obj
 0001:0003c340       ??0?$ptr_converter@PBH@?$atomic_impl@H@internal@tbb@@QAE@PBH@Z 1003d340 f i observer_proxy.obj
 0001:0003c360       ??1check_observer_proxy_count@internal@tbb@@QAE@XZ 1003d360 f i observer_proxy.obj
 0001:0003c3e0       ??4?$atomic@H@tbb@@QAEAAU01@ABU01@@Z 1003d3e0 f i observer_proxy.obj
 0001:0003c420       ??_Gobserver_proxy@internal@tbb@@AAEPAXI@Z 1003d420 f i observer_proxy.obj
 0001:0003c460       ?begin@?$aligned_space@Vspin_rw_mutex_v3@tbb@@$00@tbb@@QBEPAVspin_rw_mutex_v3@2@XZ 1003d460 f i observer_proxy.obj
 0001:0003c490       ?fetch_and_store@?$atomic_traits@$00$01@internal@tbb@@SACPCXC@Z 1003d490 f i observer_proxy.obj
 0001:0003c4b0       ?initialize@task_arena@interface7@tbb@@QAEXXZ 1003d4b0 f i observer_proxy.obj
 0001:0003c4f0       ?mark_initialized@task_arena@interface7@tbb@@AAEXXZ 1003d4f0 f i observer_proxy.obj
 0001:0003c580       ?mutex@observer_list@internal@tbb@@QAEAAVspin_rw_mutex_v3@3@XZ 1003d580 f i observer_proxy.obj
 0001:0003c5c0       ?remove_ref_fast@observer_list@internal@tbb@@CAXAAPAVobserver_proxy@23@@Z 1003d5c0 f i observer_proxy.obj
 0001:0003c620       ?internal_create@global_control@interface9@tbb@@AAEXXZ 1003d620 f   tbb_main.obj
 0001:0003c780       ?internal_destroy@global_control@interface9@tbb@@AAEXXZ 1003d780 f   tbb_main.obj
 0001:0003c9e0       ?active_value@global_control@interface9@tbb@@CAIH@Z 1003d9e0 f   tbb_main.obj
 0001:0003cb60       ?DoOneTimeInitializations@internal@tbb@@YAXXZ 1003db60 f   tbb_main.obj
 0001:0003cc30       ?ITT_DoUnsafeOneTimeInitialization@internal@tbb@@YAXXZ 1003dc30 f   tbb_main.obj
 0001:0003ccd0       ?add_ref@__TBB_InitOnce@internal@tbb@@SAXXZ 1003dcd0 f   tbb_main.obj
 0001:0003ccf0       ?remove_ref@__TBB_InitOnce@internal@tbb@@SAXXZ 1003dcf0 f   tbb_main.obj
 0001:0003cd50       ?itt_set_sync_name_v3@internal@tbb@@YAXPAXPB_W@Z 1003dd50 f   tbb_main.obj
 0001:0003cda0       ?call_itt_notify_v5@internal@tbb@@YAXHPAX@Z 1003dda0 f   tbb_main.obj
 0001:0003ce70       ?itt_store_pointer_with_release_v3@internal@tbb@@YAXPAX0@Z 1003de70 f   tbb_main.obj
 0001:0003ceb0       ?itt_load_pointer_with_acquire_v3@internal@tbb@@YAPAXPBX@Z 1003deb0 f   tbb_main.obj
 0001:0003cf00       ?itt_load_pointer_v3@internal@tbb@@YAPAXPBX@Z 1003df00 f   tbb_main.obj
 0001:0003cf20       ?itt_make_task_group_v7@internal@tbb@@YAXW4itt_domain_enum@12@PAX_K12W4string_index@12@@Z 1003df20 f   tbb_main.obj
 0001:0003d120       ?itt_metadata_str_add_v7@internal@tbb@@YAXW4itt_domain_enum@12@PAX_KW4string_index@12@PBD@Z 1003e120 f   tbb_main.obj
 0001:0003d270       ?itt_metadata_ptr_add_v11@internal@tbb@@YAXW4itt_domain_enum@12@PAX_KW4string_index@12@1@Z 1003e270 f   tbb_main.obj
 0001:0003d3b0       ?itt_relation_add_v7@internal@tbb@@YAXW4itt_domain_enum@12@PAX_KW4itt_relation@12@12@Z 1003e3b0 f   tbb_main.obj
 0001:0003d560       ?itt_task_begin_v7@internal@tbb@@YAXW4itt_domain_enum@12@PAX_K12W4string_index@12@@Z 1003e560 f   tbb_main.obj
 0001:0003d730       ?itt_task_end_v7@internal@tbb@@YAXW4itt_domain_enum@12@@Z 1003e730 f   tbb_main.obj
 0001:0003d790       ?itt_region_begin_v9@internal@tbb@@YAXW4itt_domain_enum@12@PAX_K12W4string_index@12@@Z 1003e790 f   tbb_main.obj
 0001:0003d950       ?itt_region_end_v9@internal@tbb@@YAXW4itt_domain_enum@12@PAX_K@Z 1003e950 f   tbb_main.obj
 0001:0003da80       ?app_parallelism_limit@market@internal@tbb@@SAIXZ 1003ea80 f   tbb_main.obj
 0001:0003dcd0       _ITT_DoOneTimeInitialization 1003ecd0 f   tbb_main.obj
 0001:0003dd00       _DllMain@12                1003ed00 f   tbb_main.obj
 0001:0003deb0       ??$__TBB_load_with_acquire@PAX@internal@tbb@@YAPAXADSAX@Z 1003eeb0 f i tbb_main.obj
 0001:0003ded0       ??$__TBB_store_with_release@PAXPAX@internal@tbb@@YAXACRAXPAX@Z 1003eed0 f i tbb_main.obj
 0001:0003def0       ??$min@I@internal@tbb@@YAIABI0@Z 1003eef0 f i tbb_main.obj
 0001:0003df20       ??$suppress_unused_warning@$$BY0HM@D@internal@tbb@@YAXAAY0HM@$$CBD@Z 1003ef20 f i tbb_main.obj
 0001:0003df30       ??$suppress_unused_warning@PAXPB_W@internal@tbb@@YAXABQAXABQB_W@Z 1003ef30 f i tbb_main.obj
 0001:0003df40       ??$to_bits@PAVglobal_control@interface9@tbb@@@?$atomic_impl@PAVglobal_control@interface9@tbb@@@internal@tbb@@CAHPAVglobal_control@interface9@2@@Z 1003ef40 f i tbb_main.obj
 0001:0003df70       ??$to_bits_ref@PAVglobal_control@interface9@tbb@@@?$atomic_impl@PAVglobal_control@interface9@tbb@@@internal@tbb@@CAAAHAAPAVglobal_control@interface9@2@@Z 1003ef70 f i tbb_main.obj
 0001:0003dfa0       ??$to_bits_ref@SAVglobal_control@interface9@tbb@@@?$atomic_impl@PAVglobal_control@interface9@tbb@@@internal@tbb@@CAAAHADSAVglobal_control@interface9@2@@Z 1003efa0 f i tbb_main.obj
 0001:0003dfd0       ??$to_value@PAVglobal_control@interface9@tbb@@@?$atomic_impl@PAVglobal_control@interface9@tbb@@@internal@tbb@@CAPAVglobal_control@interface9@2@H@Z 1003efd0 f i tbb_main.obj
 0001:0003e040       ??0?$converter@PAVglobal_control@interface9@tbb@@@?$atomic_impl@PAVglobal_control@interface9@tbb@@@internal@tbb@@QAE@PAVglobal_control@interface9@3@@Z 1003f040 f i tbb_main.obj
 0001:0003e060       ??0?$converter@PAVglobal_control@interface9@tbb@@@?$atomic_impl@PAVglobal_control@interface9@tbb@@@internal@tbb@@QAE@XZ 1003f060 f i tbb_main.obj
 0001:0003e080       ??0?$padded@Vcontrol_storage@internal@tbb@@$0IA@@internal@tbb@@QAE@XZ 1003f080 f i tbb_main.obj
 0001:0003e0b0       ??0?$padded_base@Vcontrol_storage@internal@tbb@@$0IA@$0BA@@internal@tbb@@QAE@XZ 1003f0b0 f i tbb_main.obj
 0001:0003e0e0       ??0?$ptr_converter@PAPAVglobal_control@interface9@tbb@@@?$atomic_impl@PAVglobal_control@interface9@tbb@@@internal@tbb@@QAE@PAPAVglobal_control@interface9@3@@Z 1003f0e0 f i tbb_main.obj
 0001:0003e100       ??0?$ptr_converter@PDSAVglobal_control@interface9@tbb@@@?$atomic_impl@PAVglobal_control@interface9@tbb@@@internal@tbb@@QAE@PDSAVglobal_control@interface9@3@@Z 1003f100 f i tbb_main.obj
 0001:0003e120       ??0allowed_parallelism_control@internal@tbb@@QAE@XZ 1003f120 f i tbb_main.obj
 0001:0003e150       ??0control_storage@internal@tbb@@QAE@XZ 1003f150 f i tbb_main.obj
 0001:0003e190       ??0stack_size_control@internal@tbb@@QAE@XZ 1003f190 f i tbb_main.obj
 0001:0003e1c0       ??4?$atomic@PAVglobal_control@interface9@tbb@@@tbb@@QAEPAVglobal_control@interface9@1@PAV231@@Z 1003f1c0 f i tbb_main.obj
 0001:0003e1f0       ??B?$atomic_impl@PAVglobal_control@interface9@tbb@@@internal@tbb@@QDEPAVglobal_control@interface9@2@XZ 1003f1f0 f i tbb_main.obj
 0001:0003e230       ??C?$atomic@PAVglobal_control@interface9@tbb@@@tbb@@QBEPAVglobal_control@interface9@1@XZ 1003f230 f i tbb_main.obj
 0001:0003e260       ?active_value@allowed_parallelism_control@internal@tbb@@EBEIXZ 1003f260 f i tbb_main.obj
 0001:0003e2f0       ?active_value@control_storage@internal@tbb@@MBEIXZ 1003f2f0 f i tbb_main.obj
 0001:0003e350       ?active_value_if_present@allowed_parallelism_control@internal@tbb@@QBEIXZ 1003f350 f i tbb_main.obj
 0001:0003e3a0       ?apply_active@allowed_parallelism_control@internal@tbb@@EBEXXZ 1003f3a0 f i tbb_main.obj
 0001:0003e400       ?apply_active@control_storage@internal@tbb@@MBEXXZ 1003f400 f i tbb_main.obj
 0001:0003e420       ?apply_active@stack_size_control@internal@tbb@@EBEXXZ 1003f420 f i tbb_main.obj
 0001:0003e440       ?default_page_size@governor@internal@tbb@@SAIXZ 1003f440 f i tbb_main.obj
 0001:0003e490       ?default_value@allowed_parallelism_control@internal@tbb@@EBEIXZ 1003f490 f i tbb_main.obj
 0001:0003e4e0       ?default_value@stack_size_control@internal@tbb@@EBEIXZ 1003f4e0 f i tbb_main.obj
 0001:0003e500       ?is_first_arg_preferred@allowed_parallelism_control@internal@tbb@@EBE_NII@Z 1003f500 f i tbb_main.obj
 0001:0003e540       ?is_first_arg_preferred@control_storage@internal@tbb@@MBE_NII@Z 1003f540 f i tbb_main.obj
 0001:0003e580       ?load_with_acquire@?$machine_load_store@PAX$03@internal@tbb@@SAPAXADSAX@Z 1003f580 f i tbb_main.obj
 0001:0003e5a0       ?lock@__TBB_InitOnce@internal@tbb@@SAXXZ 1003f5a0 f i tbb_main.obj
 0001:0003e5c0       ?max_num_workers@market@internal@tbb@@SAIXZ 1003f5c0 f i tbb_main.obj
 0001:0003e660       ?store_with_release@?$atomic_impl@PAVglobal_control@interface9@tbb@@@internal@tbb@@IAEPAVglobal_control@interface9@3@PAV453@@Z 1003f660 f i tbb_main.obj
 0001:0003e6b0       ?store_with_release@?$machine_load_store@PAX$03@internal@tbb@@SAXACRAXPAX@Z 1003f6b0 f i tbb_main.obj
 0001:0003e6c0       ?terminate_auto_initialized_scheduler@governor@internal@tbb@@SAXXZ 1003f6c0 f i tbb_main.obj
 0001:0003e6e0       ?unlock@__TBB_InitOnce@internal@tbb@@SAXXZ 1003f6e0 f i tbb_main.obj
 0001:0003e700       ___itt_id_make             1003f700 f i tbb_main.obj
 0001:0003e8a0       ?internal_reserve@concurrent_vector_base@internal@tbb@@IAEXIII@Z 1003f8a0 f   concurrent_vector_v2.obj
 0001:0003e9a0       ?internal_capacity@concurrent_vector_base@internal@tbb@@IBEIXZ 1003f9a0 f   concurrent_vector_v2.obj
 0001:0003e9e0       ?internal_grow_to_at_least@concurrent_vector_base@internal@tbb@@IAEXIIP6AXPAXI@Z@Z 1003f9e0 f   concurrent_vector_v2.obj
 0001:0003ea60       ?internal_grow@concurrent_vector_base@internal@tbb@@IAEXIIIP6AXPAXI@Z@Z 1003fa60 f   concurrent_vector_v2.obj
 0001:0003ec50       ?internal_grow_by@concurrent_vector_base@internal@tbb@@IAEIIIP6AXPAXI@Z@Z 1003fc50 f   concurrent_vector_v2.obj
 0001:0003ecb0       ?internal_push_back@concurrent_vector_base@internal@tbb@@IAEPAXIAAI@Z 1003fcb0 f   concurrent_vector_v2.obj
 0001:0003ee60       ?internal_clear@concurrent_vector_base@internal@tbb@@IAEXP6AXPAXI@Z_N@Z 1003fe60 f   concurrent_vector_v2.obj
 0001:0003f040       ?internal_copy@concurrent_vector_base@internal@tbb@@IAEXABV123@IP6AXPAXPBXI@Z@Z 10040040 f   concurrent_vector_v2.obj
 0001:0003f1a0       ?internal_assign@concurrent_vector_base@internal@tbb@@IAEXABV123@IP6AXPAXI@ZP6AX1PBXI@Z4@Z 100401a0 f   concurrent_vector_v2.obj
 0001:0003f430       ?extend_segment@helper@concurrent_vector_base@internal@tbb@@CAXAAV234@@Z 10040430 f   concurrent_vector_v2.obj
 0001:0003f550       ??$compare_and_swap@$0A@@?$atomic_impl@PAUsegment_t@concurrent_vector_base@internal@tbb@@@internal@tbb@@QAEPAUsegment_t@concurrent_vector_base@12@PAU3412@0@Z 10040550 f i concurrent_vector_v2.obj
 0001:0003f5a0       ??$spin_wait_while_eq@PAXPAX@internal@tbb@@YAXADSAXPAX@Z 100405a0 f i concurrent_vector_v2.obj
 0001:0003f620       ??$to_bits@PAUsegment_t@concurrent_vector_base@internal@tbb@@@?$atomic_impl@PAUsegment_t@concurrent_vector_base@internal@tbb@@@internal@tbb@@CAHPAUsegment_t@concurrent_vector_base@12@@Z 10040620 f i concurrent_vector_v2.obj
 0001:0003f650       ??$to_bits_ref@PAUsegment_t@concurrent_vector_base@internal@tbb@@@?$atomic_impl@PAUsegment_t@concurrent_vector_base@internal@tbb@@@internal@tbb@@CAAAHAAPAUsegment_t@concurrent_vector_base@12@@Z 10040650 f i concurrent_vector_v2.obj
 0001:0003f680       ??$to_bits_ref@SAUsegment_t@concurrent_vector_base@internal@tbb@@@?$atomic_impl@PAUsegment_t@concurrent_vector_base@internal@tbb@@@internal@tbb@@CAAAHADSAUsegment_t@concurrent_vector_base@12@@Z 10040680 f i concurrent_vector_v2.obj
 0001:0003f6b0       ??$to_value@PAUsegment_t@concurrent_vector_base@internal@tbb@@@?$atomic_impl@PAUsegment_t@concurrent_vector_base@internal@tbb@@@internal@tbb@@CAPAUsegment_t@concurrent_vector_base@12@H@Z 100406b0 f i concurrent_vector_v2.obj
 0001:0003f720       ??0?$converter@PAUsegment_t@concurrent_vector_base@internal@tbb@@@?$atomic_impl@PAUsegment_t@concurrent_vector_base@internal@tbb@@@internal@tbb@@QAE@PAUsegment_t@concurrent_vector_base@23@@Z 10040720 f i concurrent_vector_v2.obj
 0001:0003f740       ??0?$converter@PAUsegment_t@concurrent_vector_base@internal@tbb@@@?$atomic_impl@PAUsegment_t@concurrent_vector_base@internal@tbb@@@internal@tbb@@QAE@XZ 10040740 f i concurrent_vector_v2.obj
 0001:0003f760       ??0?$ptr_converter@PAPAUsegment_t@concurrent_vector_base@internal@tbb@@@?$atomic_impl@PAUsegment_t@concurrent_vector_base@internal@tbb@@@internal@tbb@@QAE@PAPAUsegment_t@concurrent_vector_base@23@@Z 10040760 f i concurrent_vector_v2.obj
 0001:0003f780       ??0?$ptr_converter@PDSAUsegment_t@concurrent_vector_base@internal@tbb@@@?$atomic_impl@PAUsegment_t@concurrent_vector_base@internal@tbb@@@internal@tbb@@QAE@PDSAUsegment_t@concurrent_vector_base@23@@Z 10040780 f i concurrent_vector_v2.obj
 0001:0003f7a0       ??4?$atomic@PAUsegment_t@concurrent_vector_base@internal@tbb@@@tbb@@QAEPAUsegment_t@concurrent_vector_base@internal@1@PAU2341@@Z 100407a0 f i concurrent_vector_v2.obj
 0001:0003f7d0       ??B?$atomic_impl@PAUsegment_t@concurrent_vector_base@internal@tbb@@@internal@tbb@@QDEPAUsegment_t@concurrent_vector_base@12@XZ 100407d0 f i concurrent_vector_v2.obj
 0001:0003f810       ?compare_and_swap@?$atomic_impl@PAUsegment_t@concurrent_vector_base@internal@tbb@@@internal@tbb@@QAEPAUsegment_t@concurrent_vector_base@23@PAU4523@0@Z 10040810 f i concurrent_vector_v2.obj
 0001:0003f840       ?extend_segment_if_necessary@helper@concurrent_vector_base@internal@tbb@@SAXAAV234@I@Z 10040840 f i concurrent_vector_v2.obj
 0001:0003f890       ?find_segment_end@helper@concurrent_vector_base@internal@tbb@@SAKABV234@@Z 10040890 f i concurrent_vector_v2.obj
 0001:0003f930       ?segment_base@concurrent_vector_base@internal@tbb@@KAKK@Z 10040930 f i concurrent_vector_v2.obj
 0001:0003f950       ?segment_index_of@concurrent_vector_base@internal@tbb@@KAKI@Z 10040950 f i concurrent_vector_v2.obj
 0001:0003f990       ?segment_size@concurrent_vector_base@internal@tbb@@KAKK@Z 10040990 f i concurrent_vector_v2.obj
 0001:0003fa20       ?store_with_release@?$atomic_impl@PAUsegment_t@concurrent_vector_base@internal@tbb@@@internal@tbb@@IAEPAUsegment_t@concurrent_vector_base@23@PAU4523@@Z 10040a20 f i concurrent_vector_v2.obj
 0001:0003fa70       ??0concurrent_queue_base@internal@tbb@@IAE@I@Z 10040a70 f   concurrent_queue_v2.obj
 0001:0003fc70       ??1concurrent_queue_base@internal@tbb@@MAE@XZ 10040c70 f   concurrent_queue_v2.obj
 0001:0003fd80       ?internal_push@concurrent_queue_base@internal@tbb@@IAEXPBX@Z 10040d80 f   concurrent_queue_v2.obj
 0001:0003fe50       ?internal_pop@concurrent_queue_base@internal@tbb@@IAEXPAX@Z 10040e50 f   concurrent_queue_v2.obj
 0001:0003fec0       ?internal_push_if_not_full@concurrent_queue_base@internal@tbb@@IAE_NPBX@Z 10040ec0 f   concurrent_queue_v2.obj
 0001:0003ffb0       ?internal_pop_if_present@concurrent_queue_base@internal@tbb@@IAE_NPAX@Z 10040fb0 f   concurrent_queue_v2.obj
 0001:00040090       ?internal_size@concurrent_queue_base@internal@tbb@@IBEHXZ 10041090 f   concurrent_queue_v2.obj
 0001:00040100       ?internal_set_capacity@concurrent_queue_base@internal@tbb@@IAEXHI@Z 10041100 f   concurrent_queue_v2.obj
 0001:00040140       ??0concurrent_queue_iterator_base@internal@tbb@@IAE@ABVconcurrent_queue_base@12@@Z 10041140 f   concurrent_queue_v2.obj
 0001:00040200       ?assign@concurrent_queue_iterator_base@internal@tbb@@IAEXABV123@@Z 10041200 f   concurrent_queue_v2.obj
 0001:000402b0       ?advance@concurrent_queue_iterator_base@internal@tbb@@IAEXXZ 100412b0 f   concurrent_queue_v2.obj
 0001:000403c0       ??1concurrent_queue_iterator_base@internal@tbb@@IAE@XZ 100413c0 f   concurrent_queue_v2.obj
 0001:00040460       ?push@micro_queue@internal@tbb@@QAEXPBXIAAVconcurrent_queue_base@23@@Z 10041460 f   concurrent_queue_v2.obj
 0001:00040640       ?pop@micro_queue@internal@tbb@@QAE_NPAXIAAVconcurrent_queue_base@23@@Z 10041640 f   concurrent_queue_v2.obj
 0001:000407d0       ??$to_bits@PAUpage@concurrent_queue_base@internal@tbb@@@?$atomic_impl@PAUpage@concurrent_queue_base@internal@tbb@@@internal@tbb@@CAHPAUpage@concurrent_queue_base@12@@Z 100417d0 f i concurrent_queue_v2.obj
 0001:00040800       ??$to_bits_ref@PAUpage@concurrent_queue_base@internal@tbb@@@?$atomic_impl@PAUpage@concurrent_queue_base@internal@tbb@@@internal@tbb@@CAAAHAAPAUpage@concurrent_queue_base@12@@Z 10041800 f i concurrent_queue_v2.obj
 0001:00040830       ??$to_bits_ref@SAUpage@concurrent_queue_base@internal@tbb@@@?$atomic_impl@PAUpage@concurrent_queue_base@internal@tbb@@@internal@tbb@@CAAAHADSAUpage@concurrent_queue_base@12@@Z 10041830 f i concurrent_queue_v2.obj
 0001:00040860       ??$to_value@PAUpage@concurrent_queue_base@internal@tbb@@@?$atomic_impl@PAUpage@concurrent_queue_base@internal@tbb@@@internal@tbb@@CAPAUpage@concurrent_queue_base@12@H@Z 10041860 f i concurrent_queue_v2.obj
 0001:000408d0       ??0?$converter@PAUpage@concurrent_queue_base@internal@tbb@@@?$atomic_impl@PAUpage@concurrent_queue_base@internal@tbb@@@internal@tbb@@QAE@PAUpage@concurrent_queue_base@23@@Z 100418d0 f i concurrent_queue_v2.obj
 0001:000408f0       ??0?$converter@PAUpage@concurrent_queue_base@internal@tbb@@@?$atomic_impl@PAUpage@concurrent_queue_base@internal@tbb@@@internal@tbb@@QAE@XZ 100418f0 f i concurrent_queue_v2.obj
 0001:00040910       ??0?$ptr_converter@PAPAUpage@concurrent_queue_base@internal@tbb@@@?$atomic_impl@PAUpage@concurrent_queue_base@internal@tbb@@@internal@tbb@@QAE@PAPAUpage@concurrent_queue_base@23@@Z 10041910 f i concurrent_queue_v2.obj
 0001:00040930       ??0?$ptr_converter@PDSAUpage@concurrent_queue_base@internal@tbb@@@?$atomic_impl@PAUpage@concurrent_queue_base@internal@tbb@@@internal@tbb@@QAE@PDSAUpage@concurrent_queue_base@23@@Z 10041930 f i concurrent_queue_v2.obj
 0001:00040950       ??0concurrent_queue_iterator_rep@internal@tbb@@QAE@ABVconcurrent_queue_base@12@@Z 10041950 f i concurrent_queue_v2.obj
 0001:000409e0       ??0pop_finalizer@micro_queue@internal@tbb@@QAE@AAU123@IPAUpage@concurrent_queue_base@23@@Z 100419e0 f i concurrent_queue_v2.obj
 0001:00040a20       ??0push_finalizer@micro_queue@internal@tbb@@QAE@AAU123@I@Z 10041a20 f i concurrent_queue_v2.obj
 0001:00040a50       ??1pop_finalizer@micro_queue@internal@tbb@@QAE@XZ 10041a50 f i concurrent_queue_v2.obj
 0001:00040b60       ??1push_finalizer@micro_queue@internal@tbb@@QAE@XZ 10041b60 f i concurrent_queue_v2.obj
 0001:00040bc0       ??4?$atomic@PAUpage@concurrent_queue_base@internal@tbb@@@tbb@@QAEPAUpage@concurrent_queue_base@internal@1@PAU2341@@Z 10041bc0 f i concurrent_queue_v2.obj
 0001:00040bf0       ??B?$atomic_impl@PAUpage@concurrent_queue_base@internal@tbb@@@internal@tbb@@QDEPAUpage@concurrent_queue_base@12@XZ 10041bf0 f i concurrent_queue_v2.obj
 0001:00040c30       ??_Econcurrent_queue_base@internal@tbb@@MAEPAXI@Z 10041c30 f i concurrent_queue_v2.obj
 0001:00040c30       ??_Gconcurrent_queue_base@internal@tbb@@MAEPAXI@Z 10041c30 f i concurrent_queue_v2.obj
 0001:00040c70       ?choose@concurrent_queue_iterator_rep@internal@tbb@@QAEPAXI@Z 10041c70 f i concurrent_queue_v2.obj
 0001:00040d30       ?store_with_release@?$atomic_impl@PAUpage@concurrent_queue_base@internal@tbb@@@internal@tbb@@IAEPAUpage@concurrent_queue_base@23@PAU4523@@Z 10041d30 f i concurrent_queue_v2.obj
 0001:00040d80       ?internal_itt_releasing@spin_rw_mutex@tbb@@CAXPAV12@@Z 10041d80 f   spin_rw_mutex_v2.obj
 0001:00040dd0       ?internal_acquire_writer@spin_rw_mutex@tbb@@CA_NPAV12@@Z 10041dd0 f   spin_rw_mutex_v2.obj
 0001:00040ef0       ?internal_release_writer@spin_rw_mutex@tbb@@CAXPAV12@@Z 10041ef0 f   spin_rw_mutex_v2.obj
 0001:00040f50       ?internal_acquire_reader@spin_rw_mutex@tbb@@CAXPAV12@@Z 10041f50 f   spin_rw_mutex_v2.obj
 0001:00041080       ?internal_upgrade@spin_rw_mutex@tbb@@CA_NPAV12@@Z 10042080 f   spin_rw_mutex_v2.obj
 0001:00041240       ?internal_downgrade@spin_rw_mutex@tbb@@CAXPAV12@@Z 10042240 f   spin_rw_mutex_v2.obj
 0001:000412f0       ?internal_release_reader@spin_rw_mutex@tbb@@CAXPAV12@@Z 100422f0 f   spin_rw_mutex_v2.obj
 0001:00041380       ?internal_try_acquire_writer@spin_rw_mutex@tbb@@CA_NPAV12@@Z 10042380 f   spin_rw_mutex_v2.obj
 0001:000413f0       ?internal_try_acquire_reader@spin_rw_mutex@tbb@@CA_NPAV12@@Z 100423f0 f   spin_rw_mutex_v2.obj
 0001:00041530       ??$as_atomic@$$CCI@internal@tbb@@YAAAU?$atomic@$$CCI@1@ACI@Z 10042530 f i spin_rw_mutex_v2.obj
 0001:00041540       ??$compare_and_swap@$0A@@?$atomic_impl@$$CCI@internal@tbb@@QAE?CIII@Z 10042540 f i spin_rw_mutex_v2.obj
 0001:00041590       ??$to_bits@I@?$atomic_impl@$$CCI@internal@tbb@@CAHI@Z 10042590 f i spin_rw_mutex_v2.obj
 0001:000415c0       ??$to_value@$$CCI@?$atomic_impl@$$CCI@internal@tbb@@CA?CIH@Z 100425c0 f i spin_rw_mutex_v2.obj
 0001:00041630       ??0?$converter@$$CCI@?$atomic_impl@$$CCI@internal@tbb@@QAE@XZ 10042630 f i spin_rw_mutex_v2.obj
 0001:00041650       ??0?$converter@I@?$atomic_impl@$$CCI@internal@tbb@@QAE@I@Z 10042650 f i spin_rw_mutex_v2.obj
 0001:00041670       ?compare_and_swap@?$atomic_impl@$$CCI@internal@tbb@@QAE?CIII@Z 10042670 f i spin_rw_mutex_v2.obj
 0001:000416a0       ?destroy@task@tbb@@QAEXAAV12@@Z 100426a0 f   task_v2.obj
 0001:000416d0       ___TBB_machine_fetchadd1   100426d0     atomic_support.obj
 0001:000416e0       ___TBB_machine_fetchstore1 100426e0     atomic_support.obj
 0001:000416ec       ___TBB_machine_cmpswp1     100426ec     atomic_support.obj
 0001:00041700       ___TBB_machine_fetchadd2   10042700     atomic_support.obj
 0001:00041710       ___TBB_machine_fetchstore2 10042710     atomic_support.obj
 0001:00041720       ___TBB_machine_cmpswp2     10042720     atomic_support.obj
 0001:00041734       ___TBB_machine_fetchadd4   10042734     atomic_support.obj
 0001:00041744       ___TBB_machine_fetchstore4 10042744     atomic_support.obj
 0001:00041750       ___TBB_machine_cmpswp4     10042750     atomic_support.obj
 0001:00041764       ___TBB_machine_fetchadd8   10042764     atomic_support.obj
 0001:00041784       ___TBB_machine_fetchstore8 10042784     atomic_support.obj
 0001:000417a0       ___TBB_machine_cmpswp8     100427a0     atomic_support.obj
 0001:000417c0       ___TBB_machine_load8       100427c0     atomic_support.obj
 0001:000417f4       ___TBB_machine_store8      100427f4     atomic_support.obj
 0001:00041810       ___TBB_machine_try_lock_elided 10042810     itsx.obj
 0001:00041820       ___TBB_machine_unlock_elided 10042820     itsx.obj
 0001:0004182c       ___TBB_machine_begin_transaction 1004282c     itsx.obj
 0001:00041838       ___TBB_machine_end_transaction 10042838     itsx.obj
 0001:0004183c       ___TBB_machine_transaction_conflict_abort 1004283c     itsx.obj
 0001:00041840       ___TBB_machine_is_in_transaction 10042840     itsx.obj
 0001:00041850       ___TBB_machine_trylockbyte 10042850     lock_byte.obj
 0001:0004186b       _SwitchToThread@0          1004286b f   kernel32:KERNEL32.dll
 0001:00041871       _CloseHandle@4             10042871 f   kernel32:KERNEL32.dll
 0001:00041877       _SetEvent@4                10042877 f   kernel32:KERNEL32.dll
 0001:0004187d       _WaitForSingleObjectEx@12  1004287d f   kernel32:KERNEL32.dll
 0001:00041883       _GetLastError@0            10042883 f   kernel32:KERNEL32.dll
 0001:00041889       _SetErrorMode@4            10042889 f   kernel32:KERNEL32.dll
 0001:0004188f       _FreeLibrary@4             1004288f f   kernel32:KERNEL32.dll
 0001:00041895       _GetModuleFileNameA@12     10042895 f   kernel32:KERNEL32.dll
 0001:0004189b       _GetModuleHandleExA@12     1004289b f   kernel32:KERNEL32.dll
 0001:000418a1       _GetProcAddress@8          100428a1 f   kernel32:KERNEL32.dll
 0001:000418a7       _LoadLibraryA@4            100428a7 f   kernel32:KERNEL32.dll
 0001:000418ad       _GetEnvironmentVariableA@12 100428ad f   kernel32:KERNEL32.dll
 0001:000418b3       _InitializeCriticalSection@4 100428b3 f   kernel32:KERNEL32.dll
 0001:000418b9       _EnterCriticalSection@4    100428b9 f   kernel32:KERNEL32.dll
 0001:000418bf       _LeaveCriticalSection@4    100428bf f   kernel32:KERNEL32.dll
 0001:000418c5       _GetCurrentThreadId@0      100428c5 f   kernel32:KERNEL32.dll
 0001:000418cb       _lstrcmpA@8                100428cb f   kernel32:KERNEL32.dll
 0001:000418d1       _ReleaseSemaphore@12       100428d1 f   kernel32:KERNEL32.dll
 0001:000418d7       _CreateSemaphoreW@16       100428d7 f   kernel32:KERNEL32.dll
 0001:000418dd       _TlsAlloc@0                100428dd f   kernel32:KERNEL32.dll
 0001:000418e3       _TlsGetValue@4             100428e3 f   kernel32:KERNEL32.dll
 0001:000418e9       _TlsSetValue@8             100428e9 f   kernel32:KERNEL32.dll
 0001:000418ef       _TlsFree@4                 100428ef f   kernel32:KERNEL32.dll
 0001:000418f5       _InitializeCriticalSectionAndSpinCount@8 100428f5 f   kernel32:KERNEL32.dll
 0001:000418fb       _TryEnterCriticalSection@4 100428fb f   kernel32:KERNEL32.dll
 0001:00041901       _DeleteCriticalSection@4   10042901 f   kernel32:KERNEL32.dll
 0001:00041907       _SetLastError@4            10042907 f   kernel32:KERNEL32.dll
 0001:0004190d       _QueryPerformanceFrequency@4 1004290d f   kernel32:KERNEL32.dll
 0001:00041913       _ResetEvent@4              10042913 f   kernel32:KERNEL32.dll
 0001:00041919       _CreateEventA@16           10042919 f   kernel32:KERNEL32.dll
 0001:0004191f       _QueryPerformanceCounter@4 1004291f f   kernel32:KERNEL32.dll
 0001:00041925       _Sleep@4                   10042925 f   kernel32:KERNEL32.dll
 0001:0004192b       _ResumeThread@4            1004292b f   kernel32:KERNEL32.dll
 0001:00041931       _GetSystemInfo@4           10042931 f   kernel32:KERNEL32.dll
 0001:00041937       _FormatMessageA@28         10042937 f   kernel32:KERNEL32.dll
 0001:0004193d       _GetCurrentProcess@0       1004293d f   kernel32:KERNEL32.dll
 0001:00041943       _GetCurrentThread@0        10042943 f   kernel32:KERNEL32.dll
 0001:00041949       _GetNativeSystemInfo@4     10042949 f   kernel32:KERNEL32.dll
 0001:0004194f       _GetProcessAffinityMask@12 1004294f f   kernel32:KERNEL32.dll
 0001:00041955       _CreateEventW@16           10042955 f   kernel32:KERNEL32.dll
 0001:0004195b       ?__ExceptionPtrCreate@@YAXPAX@Z 1004295b f   msvcprtd:MSVCP140D.dll
 0001:00041961       ?__ExceptionPtrDestroy@@YAXPAX@Z 10042961 f   msvcprtd:MSVCP140D.dll
 0001:00041967       ?__ExceptionPtrCopy@@YAXPAXPBX@Z 10042967 f   msvcprtd:MSVCP140D.dll
 0001:0004196d       ?__ExceptionPtrCurrentException@@YAXPAX@Z 1004296d f   msvcprtd:MSVCP140D.dll
 0001:00041973       ?__ExceptionPtrCopyException@@YAXPAXPBX1@Z 10042973 f   msvcprtd:MSVCP140D.dll
 0001:00041979       ??0_Lockit@std@@QAE@H@Z    10042979 f   msvcprtd:MSVCP140D.dll
 0001:0004197f       ??1_Lockit@std@@QAE@XZ     1004297f f   msvcprtd:MSVCP140D.dll
 0001:00041985       ?__ExceptionPtrRethrow@@YAXPBX@Z 10042985 f   msvcprtd:MSVCP140D.dll
 0001:0004198b       ?_Xlength_error@std@@YAXPBD@Z 1004298b f   msvcprtd:MSVCP140D.dll
 0001:000419a0       @_RTC_AllocaHelper@12      100429a0 f   MSVCRTD:stack.obj
 0001:000419e0       @_RTC_CheckStackVars2@12   100429e0 f   MSVCRTD:stack.obj
 0001:00041ac0       @_RTC_CheckStackVars@8     10042ac0 f   MSVCRTD:stack.obj
 0001:00041b20       __RTC_CheckEsp             10042b20 f   MSVCRTD:stack.obj
 0001:00041b60       __CRT_RTC_INIT             10042b60 f   MSVCRTD:init.obj
 0001:00041b70       __CRT_RTC_INITW            10042b70 f   MSVCRTD:init.obj
 0001:00041b80       __RTC_InitBase             10042b80 f   MSVCRTD:init.obj
 0001:00041bb0       __RTC_Shutdown             10042bb0 f   MSVCRTD:init.obj
 0001:00041bd0       ??3@YAXPAXI@Z              10042bd0 f   MSVCRTD:delete_scalar_size.obj
 0001:00041bf0       @__security_check_cookie@4 10042bf0 f   MSVCRTD:secchk.obj
 0001:00041c10       ??1type_info@@UAE@XZ       10042c10 f   MSVCRTD:std_type_info_static.obj
 0001:00041c30       ??_Gtype_info@@UAEPAXI@Z   10042c30 f i MSVCRTD:std_type_info_static.obj
 0001:00041c30       ??_Etype_info@@UAEPAXI@Z   10042c30 f i MSVCRTD:std_type_info_static.obj
 0001:00041c60       ??_M@YGXPAXIHP6EX0@Z@Z     10042c60 f   MSVCRTD:ehvecdtr.obj
 0001:00041c80       ??_M@YGXPAXIIP6EX0@Z@Z     10042c80 f   MSVCRTD:ehvecdtr.obj
 0001:00041da0       ?__ArrayUnwind@@YGXPAXIIP6EX0@Z@Z 10042da0 f   MSVCRTD:ehvecdtr.obj
 0001:00041e50       ___raise_securityfailure   10042e50 f   MSVCRTD:gs_report.obj
 0001:00041e80       ___report_gsfailure        10042e80 f   MSVCRTD:gs_report.obj
 0001:00041f90       ___report_rangecheckfailure 10042f90 f   MSVCRTD:gs_report.obj
 0001:00041fa0       ___report_securityfailure  10042fa0 f   MSVCRTD:gs_report.obj
 0001:00042080       ___report_securityfailureEx 10043080 f   MSVCRTD:gs_report.obj
 0001:000421b0       ??2@YAPAXI@Z               100431b0 f   MSVCRTD:new_scalar.obj
 0001:00042200       __ftoui3                   10043200 f   MSVCRTD:ftol3.obj
 0001:00042246       __ftoul3                   10043246 f   MSVCRTD:ftol3.obj
 0001:000422b8       __ftol3                    100432b8 f   MSVCRTD:ftol3.obj
 0001:00042325       __dtoui3                   10043325 f   MSVCRTD:ftol3.obj
 0001:00042399       __dtoul3                   10043399 f   MSVCRTD:ftol3.obj
 0001:0004243b       __dtol3                    1004343b f   MSVCRTD:ftol3.obj
 0001:000424f0       __ultod3                   100434f0 f   MSVCRTD:ftol3.obj
 0001:00042550       __ltod3                    10043550 f   MSVCRTD:ftol3.obj
 0001:000425a0       __alloca_probe_16          100435a0 f   MSVCRTD:alloca16.obj
 0001:000425b6       __alloca_probe_8           100435b6     MSVCRTD:alloca16.obj
 0001:000425d0       ?__scrt_initialize_type_info@@YAXXZ 100435d0 f   MSVCRTD:tncleanup.obj
 0001:000425e0       ?__scrt_uninitialize_type_info@@YAXXZ 100435e0 f   MSVCRTD:tncleanup.obj
 0001:00042720       __Init_thread_abort        10043720 f   MSVCRTD:thread_safe_statics.obj
 0001:00042740       __Init_thread_footer       10043740 f   MSVCRTD:thread_safe_statics.obj
 0001:00042790       __Init_thread_header       10043790 f   MSVCRTD:thread_safe_statics.obj
 0001:00042800       __Init_thread_lock         10043800 f   MSVCRTD:thread_safe_statics.obj
 0001:00042810       __Init_thread_notify       10043810 f   MSVCRTD:thread_safe_statics.obj
 0001:00042860       __Init_thread_unlock       10043860 f   MSVCRTD:thread_safe_statics.obj
 0001:00042870       __Init_thread_wait         10043870 f   MSVCRTD:thread_safe_statics.obj
 0001:00042900       ??_L@YGXPAXIHP6EX0@Z1@Z    10043900 f   MSVCRTD:ehvecctr.obj
 0001:00042920       ??_L@YGXPAXIIP6EX0@Z1@Z    10043920 f   MSVCRTD:ehvecctr.obj
 0001:000429e0       ??_U@YAPAXI@Z              100439e0 f   MSVCRTD:new_array.obj
 0001:00042a00       ??_V@YAXPAXI@Z             10043a00 f   MSVCRTD:delete_array_size.obj
 0001:00042a20       ?configure_argv@__scrt_narrow_argv_policy@@SAHXZ 10043a20 f i MSVCRTD:utility.obj
 0001:00042ad0       ?initialize_environment@__scrt_narrow_environment_policy@@SAHXZ 10043ad0 f i MSVCRTD:utility.obj
 0001:00042b50       ___scrt_acquire_startup_lock 10043b50 f   MSVCRTD:utility.obj
 0001:00042ba0       ___scrt_dllmain_after_initialize_c 10043ba0 f   MSVCRTD:utility.obj
 0001:00042bd0       ___scrt_dllmain_before_initialize_c 10043bd0 f   MSVCRTD:utility.obj
 0001:00042bf0       ___scrt_dllmain_crt_thread_attach 10043bf0 f   MSVCRTD:utility.obj
 0001:00042c20       ___scrt_dllmain_crt_thread_detach 10043c20 f   MSVCRTD:utility.obj
 0001:00042c40       ___scrt_dllmain_exception_filter 10043c40 f   MSVCRTD:utility.obj
 0001:00042c90       ___scrt_dllmain_uninitialize_c 10043c90 f   MSVCRTD:utility.obj
 0001:00042cc0       ___scrt_dllmain_uninitialize_critical 10043cc0 f   MSVCRTD:utility.obj
 0001:00042ce0       ___scrt_initialize_crt     10043ce0 f   MSVCRTD:utility.obj
 0001:00042d30       ___scrt_initialize_onexit_tables 10043d30 f   MSVCRTD:utility.obj
 0001:00042e10       ___scrt_is_nonwritable_in_current_image 10043e10 f   MSVCRTD:utility.obj
 0001:00042f40       ___scrt_release_startup_lock 10043f40 f   MSVCRTD:utility.obj
 0001:00042f70       ___scrt_uninitialize_crt   10043f70 f   MSVCRTD:utility.obj
 0001:00042fb0       __onexit                   10043fb0 f   MSVCRTD:utility.obj
 0001:00043020       _at_quick_exit             10044020 f   MSVCRTD:utility.obj
 0001:00043060       _atexit                    10044060 f   MSVCRTD:utility.obj
 0001:00043090       ??3@YAXPAX@Z               10044090 f   MSVCRTD:delete_scalar.obj
 0001:00043580       __CRT_INIT@12              10044580 f   MSVCRTD:dll_dllmain.obj
 0001:000435a0       __DllMainCRTStartup@12     100445a0 f   MSVCRTD:dll_dllmain.obj
 0001:00043660       ?_RTC_AllocaFailure@@YAXPAXPAU_RTC_ALLOCA_NODE@@H@Z 10044660 f   MSVCRTD:error.obj
 0001:00043750       ?_RTC_Failure@@YAXPAXH@Z   10044750 f   MSVCRTD:error.obj
 0001:000437a0       ?_RTC_StackFailure@@YAXPAXPBD@Z 100447a0 f   MSVCRTD:error.obj
 0001:00043b60       __RTC_UninitUse            10044b60 f   MSVCRTD:error.obj
 0001:00043c10       __vsprintf_s_l             10044c10 f i MSVCRTD:error.obj
 0001:00043c40       _sprintf_s                 10044c40 f i MSVCRTD:error.obj
 0001:00043c60       ?_RTC_GetErrorFunc@@YAP6AHHPBDH00ZZPBX@Z 10044c60 f   MSVCRTD:userapi.obj
 0001:00043c70       ?_RTC_GetErrorFuncW@@YAP6AHHPB_WH00ZZPBX@Z 10044c70 f   MSVCRTD:userapi.obj
 0001:00043c80       __RTC_GetErrDesc           10044c80 f   MSVCRTD:userapi.obj
 0001:00043ca0       __RTC_NumErrors            10044ca0 f   MSVCRTD:userapi.obj
 0001:00043cb0       __RTC_SetErrorFunc         10044cb0 f   MSVCRTD:userapi.obj
 0001:00043cd0       __RTC_SetErrorFuncW        10044cd0 f   MSVCRTD:userapi.obj
 0001:00043cf0       __RTC_SetErrorType         10044cf0 f   MSVCRTD:userapi.obj
 0001:00043d20       __except_handler4          10044d20 f   MSVCRTD:chandler4gs.obj
 0001:00043d60       @_guard_check_icall_nop@4  10044d60 f i MSVCRTD:guard_support.obj
 0001:00043d70       _ReadNoFence               10044d70 f i MSVCRTD:guard_support.obj
 0001:00043d90       _ReadPointerNoFence        10044d90 f i MSVCRTD:guard_support.obj
 0001:00043db0       __guard_icall_checks_enforced 10044db0 f i MSVCRTD:guard_support.obj
 0001:00043de0       ??0bad_alloc@std@@AAE@QBD@Z 10044de0 f i MSVCRTD:throw_bad_alloc.obj
 0001:00043e10       ??0bad_array_new_length@std@@QAE@ABV01@@Z 10044e10 f i MSVCRTD:throw_bad_alloc.obj
 0001:00043e40       ??0bad_array_new_length@std@@QAE@XZ 10044e40 f i MSVCRTD:throw_bad_alloc.obj
 0001:00043e70       ??1bad_array_new_length@std@@UAE@XZ 10044e70 f i MSVCRTD:throw_bad_alloc.obj
 0001:00043e90       ??_Ebad_array_new_length@std@@UAEPAXI@Z 10044e90 f i MSVCRTD:throw_bad_alloc.obj
 0001:00043e90       ??_Gbad_array_new_length@std@@UAEPAXI@Z 10044e90 f i MSVCRTD:throw_bad_alloc.obj
 0001:00043ec0       ?__scrt_throw_std_bad_alloc@@YAXXZ 10044ec0 f   MSVCRTD:throw_bad_alloc.obj
 0001:00043ee0       ?__scrt_throw_std_bad_array_new_length@@YAXXZ 10044ee0 f   MSVCRTD:throw_bad_alloc.obj
 0001:00043f00       ___isa_available_init      10044f00 f   MSVCRTD:cpu_disp.obj
 0001:00044240       __alloca_probe             10045240 f   MSVCRTD:chkstk.obj
 0001:00044240       __chkstk                   10045240 f   MSVCRTD:chkstk.obj
 0001:00044270       ___scrt_fastfail           10045270 f   MSVCRTD:utility_desktop.obj
 0001:000443b0       ___scrt_get_show_window_mode 100453b0 f   MSVCRTD:utility_desktop.obj
 0001:000443f0       ___scrt_initialize_mta     100453f0 f   MSVCRTD:utility_desktop.obj
 0001:00044400       ___scrt_initialize_winrt   10045400 f   MSVCRTD:utility_desktop.obj
 0001:00044410       ___scrt_is_managed_app     10045410 f   MSVCRTD:utility_desktop.obj
 0001:000444a0       ___scrt_set_unhandled_exception_filter 100454a0 f   MSVCRTD:utility_desktop.obj
 0001:000444b0       ___scrt_exe_initialize_mta 100454b0 f   MSVCRTD:utility_desktop.obj
 0001:000444b0       ___scrt_stub_for_initialize_mta 100454b0 f   MSVCRTD:utility_desktop.obj
 0001:000444c0       ___scrt_unhandled_exception_filter@4 100454c0 f   MSVCRTD:utility_desktop.obj
 0001:00044540       __crt_debugger_hook        10045540 f   MSVCRTD:utility_desktop.obj
 0001:00044550       ??_V@YAXPAX@Z              10045550 f   MSVCRTD:delete_array.obj
 0001:00044570       __get_startup_argv_mode    10045570 f   MSVCRTD:argv_mode.obj
 0001:00044580       ___scrt_is_ucrt_dll_in_use 10045580 f   MSVCRTD:ucrt_detection.obj
 0001:00044620       ___security_init_cookie    10045620 f   MSVCRTD:gs_support.obj
 0001:000446a0       ___local_stdio_scanf_options 100456a0 f i MSVCRTD:default_local_stdio_options.obj
 0001:000446b0       ___scrt_initialize_default_local_stdio_options 100456b0 f   MSVCRTD:default_local_stdio_options.obj
 0001:000446f0       ___scrt_get_dyn_tls_init_callback 100456f0 f   MSVCRTD:dyn_tls_init.obj
 0001:00044700       __RTC_Initialize           10045700 f   MSVCRTD:initsect.obj
 0001:00044730       __RTC_Terminate            10045730 f   MSVCRTD:initsect.obj
 0001:00044be0       ?_RTC_GetSrcLine@@YAHPAEPA_WKPAH1K@Z 10045be0 f   MSVCRTD:pdblkup.obj
 0001:00044f60       __except_handler4_noexcept 10045f60 f   MSVCRTD:chandler4_noexcept.obj
 0001:00044fbb       __purecall                 10045fbb f   vcruntimed:VCRUNTIME140D.dll
 0001:00044fc1       _memset                    10045fc1 f   vcruntimed:VCRUNTIME140D.dll
 0001:00044fc7       __CxxThrowException@8      10045fc7 f   vcruntimed:VCRUNTIME140D.dll
 0001:00044fcd       ___CxxFrameHandler3        10045fcd f   vcruntimed:VCRUNTIME140D.dll
 0001:00044fd3       _strrchr                   10045fd3 f   vcruntimed:VCRUNTIME140D.dll
 0001:00044fd9       ___std_exception_copy      10045fd9 f   vcruntimed:VCRUNTIME140D.dll
 0001:00044fdf       ___std_exception_destroy   10045fdf f   vcruntimed:VCRUNTIME140D.dll
 0001:00044fe5       ___RTtypeid                10045fe5 f   vcruntimed:VCRUNTIME140D.dll
 0001:00044feb       ___std_type_info_name      10045feb f   vcruntimed:VCRUNTIME140D.dll
 0001:00044ff1       _memmove                   10045ff1 f   vcruntimed:VCRUNTIME140D.dll
 0001:00044ff7       ___RTDynamicCast           10045ff7 f   vcruntimed:VCRUNTIME140D.dll
 0001:00044ffd       _memcpy                    10045ffd f   vcruntimed:VCRUNTIME140D.dll
 0001:00045003       ___current_exception       10046003 f   vcruntimed:VCRUNTIME140D.dll
 0001:00045009       ___current_exception_context 10046009 f   vcruntimed:VCRUNTIME140D.dll
 0001:0004500f       ___std_type_info_destroy_list 1004600f f   vcruntimed:VCRUNTIME140D.dll
 0001:00045015       __except_handler4_common   10046015 f   vcruntimed:VCRUNTIME140D.dll
 0001:0004501b       ___vcrt_GetModuleFileNameW 1004601b f   vcruntimed:VCRUNTIME140D.dll
 0001:00045021       ___vcrt_GetModuleHandleW   10046021 f   vcruntimed:VCRUNTIME140D.dll
 0001:00045027       ___vcrt_LoadLibraryExW     10046027 f   vcruntimed:VCRUNTIME140D.dll
 0001:0004502d       __invalid_parameter        1004602d f   ucrtd:ucrtbased.dll
 0001:00045033       __CrtDbgReport             10046033 f   ucrtd:ucrtbased.dll
 0001:00045039       _strcat                    10046039 f   ucrtd:ucrtbased.dll
 0001:0004503f       _strcpy                    1004603f f   ucrtd:ucrtbased.dll
 0001:00045045       _strlen                    10046045 f   ucrtd:ucrtbased.dll
 0001:0004504b       __wcsdup                   1004604b f   ucrtd:ucrtbased.dll
 0001:00045051       _wcscmp                    10046051 f   ucrtd:ucrtbased.dll
 0001:00045057       _strncpy_s                 10046057 f   ucrtd:ucrtbased.dll
 0001:0004505d       __strdup                   1004605d f   ucrtd:ucrtbased.dll
 0001:00045063       _malloc                    10046063 f   ucrtd:ucrtbased.dll
 0001:00045069       _free                      10046069 f   ucrtd:ucrtbased.dll
 0001:0004506f       __beginthreadex            1004606f f   ucrtd:ucrtbased.dll
 0001:00045075       __errno                    10046075 f   ucrtd:ucrtbased.dll
 0001:0004507b       _exit                      1004607b f   ucrtd:ucrtbased.dll
 0001:00045081       ___acrt_iob_func           10046081 f   ucrtd:ucrtbased.dll
 0001:00045087       ___stdio_common_vfprintf   10046087 f   ucrtd:ucrtbased.dll
 0001:0004508d       _fputs                     1004608d f   ucrtd:ucrtbased.dll
 0001:00045093       ___stdio_common_vsprintf   10046093 f   ucrtd:ucrtbased.dll
 0001:00045099       _strerror                  10046099 f   ucrtd:ucrtbased.dll
 0001:0004509f       _strncpy                   1004609f f   ucrtd:ucrtbased.dll
 0001:000450a5       _getenv                    100460a5 f   ucrtd:ucrtbased.dll
 0001:000450ab       _strspn                    100460ab f   ucrtd:ucrtbased.dll
 0001:000450b1       __CrtDbgReportW            100460b1 f   ucrtd:ucrtbased.dll
 0001:000450b7       _terminate                 100460b7 f   ucrtd:ucrtbased.dll
 0001:000450bd       __callnewh                 100460bd f   ucrtd:ucrtbased.dll
 0001:000450c3       __except1                  100460c3 f   ucrtd:ucrtbased.dll
 0001:000450c9       __seh_filter_dll           100460c9 f   ucrtd:ucrtbased.dll
 0001:000450cf       __configure_narrow_argv    100460cf f   ucrtd:ucrtbased.dll
 0001:000450d5       __initialize_narrow_environment 100460d5 f   ucrtd:ucrtbased.dll
 0001:000450db       __initialize_onexit_table  100460db f   ucrtd:ucrtbased.dll
 0001:000450e1       __register_onexit_function 100460e1 f   ucrtd:ucrtbased.dll
 0001:000450e7       __execute_onexit_table     100460e7 f   ucrtd:ucrtbased.dll
 0001:000450ed       __crt_atexit               100460ed f   ucrtd:ucrtbased.dll
 0001:000450f3       __crt_at_quick_exit        100460f3 f   ucrtd:ucrtbased.dll
 0001:000450f9       __cexit                    100460f9 f   ucrtd:ucrtbased.dll
 0001:000450ff       __free_dbg                 100460ff f   ucrtd:ucrtbased.dll
 0001:00045105       __initterm                 10046105 f   ucrtd:ucrtbased.dll
 0001:0004510b       __initterm_e               1004610b f   ucrtd:ucrtbased.dll
 0001:00045111       _strcpy_s                  10046111 f   ucrtd:ucrtbased.dll
 0001:00045117       _strcat_s                  10046117 f   ucrtd:ucrtbased.dll
 0001:0004511d       ___stdio_common_vsprintf_s 1004611d f   ucrtd:ucrtbased.dll
 0001:00045123       __wmakepath_s              10046123 f   ucrtd:ucrtbased.dll
 0001:00045129       __wsplitpath_s             10046129 f   ucrtd:ucrtbased.dll
 0001:0004512f       _wcscpy_s                  1004612f f   ucrtd:ucrtbased.dll
 0001:00045135       _UnhandledExceptionFilter@4 10046135 f   kernel32:KERNEL32.dll
 0001:0004513b       _SetUnhandledExceptionFilter@4 1004613b f   kernel32:KERNEL32.dll
 0001:00045141       _TerminateProcess@8        10046141 f   kernel32:KERNEL32.dll
 0001:00045147       _IsProcessorFeaturePresent@4 10046147 f   kernel32:KERNEL32.dll
 0001:0004514d       _InitializeSListHead@4     1004614d f   kernel32:KERNEL32.dll
 0001:00045153       _GetModuleHandleW@4        10046153 f   kernel32:KERNEL32.dll
 0001:00045159       _IsDebuggerPresent@0       10046159 f   kernel32:KERNEL32.dll
 0001:0004515f       _RaiseException@16         1004615f f   kernel32:KERNEL32.dll
 0001:00045165       _MultiByteToWideChar@24    10046165 f   kernel32:KERNEL32.dll
 0001:0004516b       _WideCharToMultiByte@32    1004616b f   kernel32:KERNEL32.dll
 0001:00045171       _GetStartupInfoW@4         10046171 f   kernel32:KERNEL32.dll
 0001:00045177       _GetCurrentProcessId@0     10046177 f   kernel32:KERNEL32.dll
 0001:0004517d       _GetSystemTimeAsFileTime@4 1004617d f   kernel32:KERNEL32.dll
 0001:00045183       _HeapAlloc@12              10046183 f   kernel32:KERNEL32.dll
 0001:00045189       _HeapFree@12               10046189 f   kernel32:KERNEL32.dll
 0001:0004518f       _GetProcessHeap@0          1004618f f   kernel32:KERNEL32.dll
 0001:00045195       _VirtualQuery@12           10046195 f   kernel32:KERNEL32.dll
 0001:000451a0       ___acrt_initialize         100461a0 f   MSVCRTD:ucrt_stubs.obj
 0001:000451a0       ___scrt_stub_for_acrt_initialize 100461a0 f   MSVCRTD:ucrt_stubs.obj
 0001:000451a0       ___vcrt_initialize         100461a0 f   MSVCRTD:ucrt_stubs.obj
 0001:000451b0       ___scrt_stub_for_acrt_thread_attach 100461b0 f   MSVCRTD:ucrt_stubs.obj
 0001:000451b0       ___vcrt_thread_attach      100461b0 f   MSVCRTD:ucrt_stubs.obj
 0001:000451b0       ___acrt_thread_attach      100461b0 f   MSVCRTD:ucrt_stubs.obj
 0001:000451c0       ___scrt_stub_for_acrt_thread_detach 100461c0 f   MSVCRTD:ucrt_stubs.obj
 0001:000451c0       ___acrt_thread_detach      100461c0 f   MSVCRTD:ucrt_stubs.obj
 0001:000451c0       ___vcrt_thread_detach      100461c0 f   MSVCRTD:ucrt_stubs.obj
 0001:000451d0       ___scrt_stub_for_acrt_uninitialize 100461d0 f   MSVCRTD:ucrt_stubs.obj
 0001:000451d0       ___acrt_uninitialize       100461d0 f   MSVCRTD:ucrt_stubs.obj
 0001:000451d0       ___vcrt_uninitialize       100461d0 f   MSVCRTD:ucrt_stubs.obj
 0001:000451e0       ___vcrt_uninitialize_critical 100461e0 f   MSVCRTD:ucrt_stubs.obj
 0001:000451e0       ___acrt_uninitialize_critical 100461e0 f   MSVCRTD:ucrt_stubs.obj
 0001:000451e0       ___scrt_stub_for_acrt_uninitialize_critical 100461e0 f   MSVCRTD:ucrt_stubs.obj
 0001:000451f0       ___scrt_stub_for_is_c_termination_complete 100461f0 f   MSVCRTD:ucrt_stubs.obj
 0001:000451f0       __is_c_termination_complete 100461f0 f   MSVCRTD:ucrt_stubs.obj
 0001:00045200       __filter_x86_sse2_floating_point_exception 10046200 f   MSVCRTD:x86_exception_filter.obj
 0001:00045200       __filter_x86_sse2_floating_point_exception_default 10046200 f   MSVCRTD:x86_exception_filter.obj
 0002:00000000       __imp__SwitchToThread@0    10048000     kernel32:KERNEL32.dll
 0002:00000004       __imp__CloseHandle@4       10048004     kernel32:KERNEL32.dll
 0002:00000008       __imp__SetEvent@4          10048008     kernel32:KERNEL32.dll
 0002:0000000c       __imp__WaitForSingleObjectEx@12 1004800c     kernel32:KERNEL32.dll
 0002:00000010       __imp__GetLastError@0      10048010     kernel32:KERNEL32.dll
 0002:00000014       __imp__SetErrorMode@4      10048014     kernel32:KERNEL32.dll
 0002:00000018       __imp__FreeLibrary@4       10048018     kernel32:KERNEL32.dll
 0002:0000001c       __imp__GetModuleFileNameA@12 1004801c     kernel32:KERNEL32.dll
 0002:00000020       __imp__GetModuleHandleExA@12 10048020     kernel32:KERNEL32.dll
 0002:00000024       __imp__GetProcAddress@8    10048024     kernel32:KERNEL32.dll
 0002:00000028       __imp__LoadLibraryA@4      10048028     kernel32:KERNEL32.dll
 0002:0000002c       __imp__GetEnvironmentVariableA@12 1004802c     kernel32:KERNEL32.dll
 0002:00000030       __imp__InitializeCriticalSection@4 10048030     kernel32:KERNEL32.dll
 0002:00000034       __imp__EnterCriticalSection@4 10048034     kernel32:KERNEL32.dll
 0002:00000038       __imp__LeaveCriticalSection@4 10048038     kernel32:KERNEL32.dll
 0002:0000003c       __imp__GetCurrentThreadId@0 1004803c     kernel32:KERNEL32.dll
 0002:00000040       __imp__lstrcmpA@8          10048040     kernel32:KERNEL32.dll
 0002:00000044       __imp__ReleaseSemaphore@12 10048044     kernel32:KERNEL32.dll
 0002:00000048       __imp__CreateSemaphoreW@16 10048048     kernel32:KERNEL32.dll
 0002:0000004c       __imp__TlsAlloc@0          1004804c     kernel32:KERNEL32.dll
 0002:00000050       __imp__TlsGetValue@4       10048050     kernel32:KERNEL32.dll
 0002:00000054       __imp__TlsSetValue@8       10048054     kernel32:KERNEL32.dll
 0002:00000058       __imp__TlsFree@4           10048058     kernel32:KERNEL32.dll
 0002:0000005c       __imp__InitializeCriticalSectionAndSpinCount@8 1004805c     kernel32:KERNEL32.dll
 0002:00000060       __imp__TryEnterCriticalSection@4 10048060     kernel32:KERNEL32.dll
 0002:00000064       __imp__DeleteCriticalSection@4 10048064     kernel32:KERNEL32.dll
 0002:00000068       __imp__SetLastError@4      10048068     kernel32:KERNEL32.dll
 0002:0000006c       __imp__QueryPerformanceFrequency@4 1004806c     kernel32:KERNEL32.dll
 0002:00000070       __imp__ResetEvent@4        10048070     kernel32:KERNEL32.dll
 0002:00000074       __imp__CreateEventA@16     10048074     kernel32:KERNEL32.dll
 0002:00000078       __imp__QueryPerformanceCounter@4 10048078     kernel32:KERNEL32.dll
 0002:0000007c       __imp__Sleep@4             1004807c     kernel32:KERNEL32.dll
 0002:00000080       __imp__ResumeThread@4      10048080     kernel32:KERNEL32.dll
 0002:00000084       __imp__GetSystemInfo@4     10048084     kernel32:KERNEL32.dll
 0002:00000088       __imp__FormatMessageA@28   10048088     kernel32:KERNEL32.dll
 0002:0000008c       __imp__GetCurrentProcess@0 1004808c     kernel32:KERNEL32.dll
 0002:00000090       __imp__GetCurrentThread@0  10048090     kernel32:KERNEL32.dll
 0002:00000094       __imp__GetNativeSystemInfo@4 10048094     kernel32:KERNEL32.dll
 0002:00000098       __imp__GetProcessAffinityMask@12 10048098     kernel32:KERNEL32.dll
 0002:0000009c       __imp__CreateEventW@16     1004809c     kernel32:KERNEL32.dll
 0002:000000a0       __imp__GetProcessHeap@0    100480a0     kernel32:KERNEL32.dll
 0002:000000a4       __imp__HeapFree@12         100480a4     kernel32:KERNEL32.dll
 0002:000000a8       __imp__HeapAlloc@12        100480a8     kernel32:KERNEL32.dll
 0002:000000ac       __imp__GetSystemTimeAsFileTime@4 100480ac     kernel32:KERNEL32.dll
 0002:000000b0       __imp__GetCurrentProcessId@0 100480b0     kernel32:KERNEL32.dll
 0002:000000b4       __imp__GetStartupInfoW@4   100480b4     kernel32:KERNEL32.dll
 0002:000000b8       __imp__WideCharToMultiByte@32 100480b8     kernel32:KERNEL32.dll
 0002:000000bc       __imp__MultiByteToWideChar@24 100480bc     kernel32:KERNEL32.dll
 0002:000000c0       __imp__RaiseException@16   100480c0     kernel32:KERNEL32.dll
 0002:000000c4       __imp__IsDebuggerPresent@0 100480c4     kernel32:KERNEL32.dll
 0002:000000c8       __imp__GetModuleHandleW@4  100480c8     kernel32:KERNEL32.dll
 0002:000000cc       __imp__InitializeSListHead@4 100480cc     kernel32:KERNEL32.dll
 0002:000000d0       __imp__IsProcessorFeaturePresent@4 100480d0     kernel32:KERNEL32.dll
 0002:000000d4       __imp__TerminateProcess@8  100480d4     kernel32:KERNEL32.dll
 0002:000000d8       __imp__SetUnhandledExceptionFilter@4 100480d8     kernel32:KERNEL32.dll
 0002:000000dc       __imp__UnhandledExceptionFilter@4 100480dc     kernel32:KERNEL32.dll
 0002:000000e0       __imp__VirtualQuery@12     100480e0     kernel32:KERNEL32.dll
 0002:000000e4       \177KERNEL32_NULL_THUNK_DATA 100480e4     kernel32:KERNEL32.dll
 0002:000000e8       __imp_?__ExceptionPtrRethrow@@YAXPBX@Z 100480e8     msvcprtd:MSVCP140D.dll
 0002:000000ec       __imp_??1_Lockit@std@@QAE@XZ 100480ec     msvcprtd:MSVCP140D.dll
 0002:000000f0       __imp_??0_Lockit@std@@QAE@H@Z 100480f0     msvcprtd:MSVCP140D.dll
 0002:000000f4       __imp_?__ExceptionPtrCopyException@@YAXPAXPBX1@Z 100480f4     msvcprtd:MSVCP140D.dll
 0002:000000f8       __imp_?__ExceptionPtrCurrentException@@YAXPAX@Z 100480f8     msvcprtd:MSVCP140D.dll
 0002:000000fc       __imp_?__ExceptionPtrCopy@@YAXPAXPBX@Z 100480fc     msvcprtd:MSVCP140D.dll
 0002:00000100       __imp_?__ExceptionPtrDestroy@@YAXPAX@Z 10048100     msvcprtd:MSVCP140D.dll
 0002:00000104       __imp_?__ExceptionPtrCreate@@YAXPAX@Z 10048104     msvcprtd:MSVCP140D.dll
 0002:00000108       __imp_?_Xlength_error@std@@YAXPBD@Z 10048108     msvcprtd:MSVCP140D.dll
 0002:0000010c       \177MSVCP140D_NULL_THUNK_DATA 1004810c     msvcprtd:MSVCP140D.dll
 0002:00000110       __imp____vcrt_GetModuleFileNameW 10048110     vcruntimed:VCRUNTIME140D.dll
 0002:00000114       __imp____vcrt_LoadLibraryExW 10048114     vcruntimed:VCRUNTIME140D.dll
 0002:00000118       __imp____std_exception_copy 10048118     vcruntimed:VCRUNTIME140D.dll
 0002:0000011c       __imp____std_type_info_destroy_list 1004811c     vcruntimed:VCRUNTIME140D.dll
 0002:00000120       __imp____current_exception_context 10048120     vcruntimed:VCRUNTIME140D.dll
 0002:00000124       __imp____current_exception 10048124     vcruntimed:VCRUNTIME140D.dll
 0002:00000128       __imp__memcpy              10048128     vcruntimed:VCRUNTIME140D.dll
 0002:0000012c       __imp____RTDynamicCast     1004812c     vcruntimed:VCRUNTIME140D.dll
 0002:00000130       __imp__memmove             10048130     vcruntimed:VCRUNTIME140D.dll
 0002:00000134       __imp____std_type_info_name 10048134     vcruntimed:VCRUNTIME140D.dll
 0002:00000138       __imp____RTtypeid          10048138     vcruntimed:VCRUNTIME140D.dll
 0002:0000013c       __imp____vcrt_GetModuleHandleW 1004813c     vcruntimed:VCRUNTIME140D.dll
 0002:00000140       __imp____std_exception_destroy 10048140     vcruntimed:VCRUNTIME140D.dll
 0002:00000144       __imp___purecall           10048144     vcruntimed:VCRUNTIME140D.dll
 0002:00000148       __imp__memset              10048148     vcruntimed:VCRUNTIME140D.dll
 0002:0000014c       __imp___CxxThrowException@8 1004814c     vcruntimed:VCRUNTIME140D.dll
 0002:00000150       __imp____CxxFrameHandler3  10048150     vcruntimed:VCRUNTIME140D.dll
 0002:00000154       __imp__strrchr             10048154     vcruntimed:VCRUNTIME140D.dll
 0002:00000158       __imp___except_handler4_common 10048158     vcruntimed:VCRUNTIME140D.dll
 0002:0000015c       \177VCRUNTIME140D_NULL_THUNK_DATA 1004815c     vcruntimed:VCRUNTIME140D.dll
 0002:00000160       __imp____stdio_common_vsprintf 10048160     ucrtd:ucrtbased.dll
 0002:00000164       __imp__strerror            10048164     ucrtd:ucrtbased.dll
 0002:00000168       __imp__strncpy             10048168     ucrtd:ucrtbased.dll
 0002:0000016c       __imp__getenv              1004816c     ucrtd:ucrtbased.dll
 0002:00000170       __imp__strspn              10048170     ucrtd:ucrtbased.dll
 0002:00000174       __imp___CrtDbgReportW      10048174     ucrtd:ucrtbased.dll
 0002:00000178       __imp__terminate           10048178     ucrtd:ucrtbased.dll
 0002:0000017c       __imp____stdio_common_vfprintf 1004817c     ucrtd:ucrtbased.dll
 0002:00000180       __imp___except1            10048180     ucrtd:ucrtbased.dll
 0002:00000184       __imp___seh_filter_dll     10048184     ucrtd:ucrtbased.dll
 0002:00000188       __imp___configure_narrow_argv 10048188     ucrtd:ucrtbased.dll
 0002:0000018c       __imp___initialize_narrow_environment 1004818c     ucrtd:ucrtbased.dll
 0002:00000190       __imp___initialize_onexit_table 10048190     ucrtd:ucrtbased.dll
 0002:00000194       __imp___register_onexit_function 10048194     ucrtd:ucrtbased.dll
 0002:00000198       __imp___execute_onexit_table 10048198     ucrtd:ucrtbased.dll
 0002:0000019c       __imp___crt_atexit         1004819c     ucrtd:ucrtbased.dll
 0002:000001a0       __imp___crt_at_quick_exit  100481a0     ucrtd:ucrtbased.dll
 0002:000001a4       __imp___cexit              100481a4     ucrtd:ucrtbased.dll
 0002:000001a8       __imp___free_dbg           100481a8     ucrtd:ucrtbased.dll
 0002:000001ac       __imp___initterm           100481ac     ucrtd:ucrtbased.dll
 0002:000001b0       __imp___initterm_e         100481b0     ucrtd:ucrtbased.dll
 0002:000001b4       __imp__strcpy_s            100481b4     ucrtd:ucrtbased.dll
 0002:000001b8       __imp__strcat_s            100481b8     ucrtd:ucrtbased.dll
 0002:000001bc       __imp____stdio_common_vsprintf_s 100481bc     ucrtd:ucrtbased.dll
 0002:000001c0       __imp___wmakepath_s        100481c0     ucrtd:ucrtbased.dll
 0002:000001c4       __imp___wsplitpath_s       100481c4     ucrtd:ucrtbased.dll
 0002:000001c8       __imp__wcscpy_s            100481c8     ucrtd:ucrtbased.dll
 0002:000001cc       __imp__fputs               100481cc     ucrtd:ucrtbased.dll
 0002:000001d0       __imp____acrt_iob_func     100481d0     ucrtd:ucrtbased.dll
 0002:000001d4       __imp__exit                100481d4     ucrtd:ucrtbased.dll
 0002:000001d8       __imp___errno              100481d8     ucrtd:ucrtbased.dll
 0002:000001dc       __imp___beginthreadex      100481dc     ucrtd:ucrtbased.dll
 0002:000001e0       __imp__free                100481e0     ucrtd:ucrtbased.dll
 0002:000001e4       __imp__malloc              100481e4     ucrtd:ucrtbased.dll
 0002:000001e8       __imp___strdup             100481e8     ucrtd:ucrtbased.dll
 0002:000001ec       __imp__strncpy_s           100481ec     ucrtd:ucrtbased.dll
 0002:000001f0       __imp__wcscmp              100481f0     ucrtd:ucrtbased.dll
 0002:000001f4       __imp___wcsdup             100481f4     ucrtd:ucrtbased.dll
 0002:000001f8       __imp__strlen              100481f8     ucrtd:ucrtbased.dll
 0002:000001fc       __imp__strcpy              100481fc     ucrtd:ucrtbased.dll
 0002:00000200       __imp__strcat              10048200     ucrtd:ucrtbased.dll
 0002:00000204       __imp___CrtDbgReport       10048204     ucrtd:ucrtbased.dll
 0002:00000208       __imp___invalid_parameter  10048208     ucrtd:ucrtbased.dll
 0002:0000020c       __imp___callnewh           1004820c     ucrtd:ucrtbased.dll
 0002:00000210       \177ucrtbased_NULL_THUNK_DATA 10048210     ucrtd:ucrtbased.dll
 0002:00000214       ___guard_check_icall_fptr  10048214     MSVCRTD:guard_support.obj
 0002:00000218       ___guard_xfg_check_icall_fptr 10048218     MSVCRTD:guard_support.obj
 0002:0000021c       ___xc_a                    1004821c     MSVCRTD:initializers.obj
 0002:00000240       ___xc_z                    10048240     MSVCRTD:initializers.obj
 0002:00000244       ___xi_a                    10048244     MSVCRTD:initializers.obj
 0002:0000024c       ___xi_z                    1004824c     MSVCRTD:initializers.obj
 0002:00000250       ___xl_a                    10048250     MSVCRTD:tlssup.obj
 0002:00000254       ___xl_z                    10048254     MSVCRTD:tlssup.obj
 0002:00000258       ___xp_a                    10048258     MSVCRTD:initializers.obj
 0002:0000025c       ___xp_z                    1004825c     MSVCRTD:initializers.obj
 0002:00000260       ___xt_a                    10048260     MSVCRTD:initializers.obj
 0002:00000264       ___xt_z                    10048264     MSVCRTD:initializers.obj
 0002:00000f58       ??_7concurrent_queue_base_v3@internal@tbb@@6B@ 10048f58     concurrent_queue.obj
 0002:00000f70       ??_C@_0BG@NCNHOMPJ@the?5list?5is?5not?5empty@ 10048f70     concurrent_queue.obj
 0002:00000f88       ??_C@_0CF@KIMHCJNJ@head?4next?$DN?$DN?$CGhead?5?$CG?$CG?5head?4prev?$DN?$DN@ 10048f88     concurrent_queue.obj
 0002:00000fb0       ??_C@_0FK@JMIFAGNO@C?3?2Users?2Denis?2source?2repos?2Ext@ 10048fb0     concurrent_queue.obj
 0002:0000100c       ??_C@_0CN@PJOPKBDC@attempt?5to?5remove?5an?5item?5from?5@ 1004900c     concurrent_queue.obj
 0002:0000103c       ??_C@_09DMMLFBJB@count?5?$DO?50@ 1004903c     concurrent_queue.obj
 0002:00001048       ??_C@_0DC@HHMBEOFF@use?5of?5commit_wait?$CI?$CJ?5without?5pr@ 10049048     concurrent_queue.obj
 0002:0000107c       ??_C@_09FABKCACJ@thr?4ready@ 1004907c     concurrent_queue.obj
 0002:00001088       ??_C@_0BE@EJJDCDNJ@still?5in?5the?5queue?$DP@ 10049088     concurrent_queue.obj
 0002:0000109c       ??_C@_0BA@CPHLNOGI@?$CBthr?4in_waitset@ 1004909c     concurrent_queue.obj
 0002:000010ac       ??_C@_01JBBJJEPG@p@        100490ac     concurrent_queue.obj
 0002:000010b0       ??_C@_0FK@MEGIEOGF@C?3?2Users?2Denis?2source?2repos?2Ext@ 100490b0     concurrent_queue.obj
 0002:0000110c       ??_C@_0CB@NEAGOMBI@Divisor?5should?5be?5a?5power?5of?5tw@ 1004910c     concurrent_queue.obj
 0002:00001130       ??_C@_0BJ@FFGCKCGK@is_power_of_two?$CIdivisor?$CJ@ 10049130     concurrent_queue.obj
 0002:00001150       ??_C@_0FG@JNMBBJE@C?3?2Users?2Denis?2source?2repos?2Ext@ 10049150     concurrent_queue.obj
 0002:00001bc8       ??_C@_02DKCKIIND@?$CFs@    10049bc8     concurrent_vector.obj
 0002:00001bcc       ??_C@_0CA@LKPOEAOC@should?5have?5been?5freed?5by?5clear@ 10049bcc     concurrent_vector.obj
 0002:00001bec       ??_C@_0CH@LPHMJFBJ@load?$DMrelaxed?$DO?$CI?$CJ?5?$CB?$DN?5segment_allo@ 10049bec     concurrent_vector.obj
 0002:00001c18       ??_C@_0FN@FLPDHBCA@C?3?2Users?2Denis?2source?2repos?2Ext@ 10049c18     concurrent_vector.obj
 0002:00001c78       ??_C@_0BA@LIFNIGJ@start?5?$DM?$DN?5finish@ 10049c78     concurrent_vector.obj
 0002:00001c88       ??_C@_0FL@JOPFJKFL@C?3?2Users?2Denis?2source?2repos?2Ext@ 10049c88     concurrent_vector.obj
 0002:00001ce4       ??_C@_0BH@JGMCJCL@first_block?5?$HM?$HM?5?$CBfinish@ 10049ce4     concurrent_vector.obj
 0002:00001cfc       ??_C@_0O@KKLAEBPF@base?5?$DM?$DN?5start@ 10049cfc     concurrent_vector.obj
 0002:00001d10       ??_C@_0FN@KNAKKIKK@other?5overloads?5of?5store?5should@ 10049d10     concurrent_vector.obj
 0002:00001d70       ??_C@_0EC@MHPKPLNC@segment_value_t?$CIallocated_segme@ 10049d70     concurrent_vector.obj
 0002:00001db8       ??_C@_0EL@EBFKNEI@transition?5from?5?$CCallocated?$CC?5to?5@ 10049db8     concurrent_vector.obj
 0002:00001e04       ??_C@_0BJ@HAJGEHKO@transposed?5pointer?5range@ 10049e04     concurrent_vector.obj
 0002:00001e20       ??_C@_0GJ@NENAPENJ@C?3?2Program?5Files?5?$CIx86?$CJ?2Microsof@ 10049e20     concurrent_vector.obj
 0002:00001e90       ??_C@_1NC@MGIEKFBC@?$AAC?$AA?3?$AA?2?$AAP?$AAr?$AAo?$AAg?$AAr?$AAa?$AAm?$AA?5?$AAF?$AAi?$AAl?$AAe@ 10049e90     concurrent_vector.obj
 0002:00001f64       ??_C@_1CG@LJCPDKEJ@?$AAs?$AAt?$AAd?$AA?3?$AA?3?$AA_?$AAV?$AAe?$AAr?$AAi?$AAf?$AAy?$AA_?$AAr?$AAa@ 10049f64     concurrent_vector.obj
 0002:00001f8c       ??_C@_1DG@FJIKMGFD@?$AA?$CC?$AAt?$AAr?$AAa?$AAn?$AAs?$AAp?$AAo?$AAs?$AAe?$AAd?$AA?5?$AAp?$AAo?$AAi@ 10049f8c     concurrent_vector.obj
 0002:00002450       ??_C@_0BM@JGJMBPHJ@Too?5many?5modules?5are?5loaded@ 1004a450     dynamic_link.obj
 0002:0000246c       ??_C@_07EJHLHDPE@ind?5?$DM?58@ 1004a46c     dynamic_link.obj
 0002:00002478       ??_C@_0FG@BFLGJDKP@C?3?2Users?2Denis?2source?2repos?2Ext@ 1004a478     dynamic_link.obj
 0002:0000519c       ??_7task@tbb@@6B@          1004d19c     pipeline.obj
 0002:000051a8       ??_C@_0BF@FLEJEMAB@execute?5not?5running?$DP@ 1004d1a8     pipeline.obj
 0002:000051c0       ??_C@_0BK@BLKDHJIK@prefix?$CI?$CJ?4state?$DN?$DNexecuting@ 1004d1c0     pipeline.obj
 0002:000051e0       ??_C@_0FA@GCFKEKDH@C?3?2Users?2Denis?2source?2repos?2Ext@ 1004d1e0     pipeline.obj
 0002:00005234       ??_7filter@tbb@@6B@        1004d234     pipeline.obj
 0002:00005244       ??_7pipeline@tbb@@6B@      1004d244     pipeline.obj
 0002:00005248       ??_C@_07DEMLHIDL@?$CBmy_sem@ 1004d248     pipeline.obj
 0002:00005250       ??_C@_0FC@EJJEEDJ@C?3?2Users?2Denis?2source?2repos?2Ext@ 1004d250     pipeline.obj
 0002:000052a4       ??_C@_06PJFJBKOE@my_sem@   1004d2a4     pipeline.obj
 0002:000052ac       ??_C@_05HIFJDKLD@array@    1004d2ac     pipeline.obj
 0002:000052b4       ??_C@_0CC@OJFIPBCH@?$CItokendiff_t?$CJ?$CItoken?9low_token?$CJ?$DO@ 1004d2b4     pipeline.obj
 0002:000052d8       ??_C@_0BN@OAIFFPEB@TLS?5not?5allocated?5for?5filter@ 1004d2d8     pipeline.obj
 0002:000052f8       ??_C@_0BN@LCAOOCFI@Failed?5to?5destroy?5filter?5TLS@ 1004d2f8     pipeline.obj
 0002:0000531c       ??_7stage_task@internal@tbb@@6B@ 1004d31c     pipeline.obj
 0002:00005328       ??_C@_0DC@FJGKNBB@Trying?5to?5finalize?5the?5task?5tha@ 1004d328     pipeline.obj
 0002:0000535c       ??_C@_0P@PMGHPDFJ@is_cancelled?$CI?$CJ@ 1004d35c     pipeline.obj
 0002:00005370       ??_7pipeline_root_task@internal@tbb@@6B@ 1004d370     pipeline.obj
 0002:0000537c       ??_C@_0BI@HDJOOCC@filter?5is?5thread?9bound?$DP@ 1004d37c     pipeline.obj
 0002:00005394       ??_C@_0BM@EKBMLCCI@?$CBcurrent_filter?9?$DOis_bound?$CI?$CJ@ 1004d394     pipeline.obj
 0002:000053b0       ??_C@_0CF@ELPNJBIG@previous?5filter?5is?5not?5thread?9b@ 1004d3b0     pipeline.obj
 0002:000053d8       ??_C@_0DE@MFDJBKCP@current_filter?9?$DOprev_filter_in_@ 1004d3d8     pipeline.obj
 0002:0000540c       ??_C@_0BF@HJPGMKEL@token?5counting?5error@ 1004d40c     pipeline.obj
 0002:00005424       ??_C@_0CJ@JJIHJCLA@refcnt?5?$DM?$DN?5int?$CImy_pipeline?4token@ 1004d424     pipeline.obj
 0002:00005450       ??_C@_0BI@GHAGBPIJ@my_pipeline?4filter_list@ 1004d450     pipeline.obj
 0002:00008250       ??_C@_0FJ@NGDFDMAI@C?3?2Users?2Denis?2source?2repos?2Ext@ 10050250     x86_rtm_rw_mutex.obj
 0002:000082ac       ??_C@_0BG@BEFAEEMA@holding?5mutex?5already@ 100502ac     x86_rtm_rw_mutex.obj
 0002:000082c4       ??_C@_06MDKGKMGM@?$CBmutex@ 100502c4     x86_rtm_rw_mutex.obj
 0002:000082cc       ??_C@_0BG@OJIPJPBB@mutex?5is?5not?5acquired@ 100502cc     x86_rtm_rw_mutex.obj
 0002:000082e4       ??_C@_05IGMCOAJJ@mutex@    100502e4     x86_rtm_rw_mutex.obj
 0002:00009aa0       ??_C@_0CI@FKHHBFIM@QueryPerformanceFrequency?5retur@ 10051aa0     condition_variable.obj
 0002:00009ac8       ??_C@_04HEMGMBLB@rval@     10051ac8     condition_variable.obj
 0002:00009ad0       ??_C@_0FG@INCOCKFM@C?3?2Users?2Denis?2source?2repos?2Ext@ 10051ad0     condition_variable.obj
 0002:00009b28       __real@3ff0000000000000    10051b28     condition_variable.obj
 0002:00009b30       __real@408f400000000000    10051b30     condition_variable.obj
 0002:00009d4c       ??_C@_0BP@PLJHCHPC@QueryPerformanceCounter?5failed@ 10051d4c     tbb_thread.obj
 0002:00009d6c       ??_C@_0BC@DBAKKFEN@Invalid?5parameter@ 10051d6c     tbb_thread.obj
 0002:00009d80       ??_C@_0FK@FOGCIEEN@C?3?2Users?2Denis?2source?2repos?2Ext@ 10051d80     tbb_thread.obj
 0002:00009ddc       ??_C@_0BC@JJJOOGFM@p?5?$DM?5parameter_max@ 10051ddc     tbb_thread.obj
 0002:00009df0       __real@41efffffffe00000    10051df0     tbb_thread.obj
 0002:0000a614       ??_7versioned_object@rml@@6B@ 10052614     private_server.obj
 0002:0000a61c       ??_7server@rml@@6B@        1005261c     private_server.obj
 0002:0000a634       ??_7tbb_server@rml@internal@tbb@@6B@ 10052634     private_server.obj
 0002:0000a654       ??_C@_0CP@ECLIENFE@thread_monitor?3?3launch?3?5_begint@ 10052654     private_server.obj
 0002:0000a688       ??_7private_server@rml@internal@tbb@@6B@ 10052688     private_server.obj
 0002:0000a6ac       ??_C@_05LAPONLG@false@     100526ac     private_server.obj
 0002:0000a6b8       ??_C@_0FI@PCMPJPJK@C?3?2Users?2Denis?2source?2repos?2Ext@ 100526b8     private_server.obj
 0002:0000a710       ??_C@_0L@OCONFJAJ@s?$DN?$DNst_quit@ 10052710     private_server.obj
 0002:0000a71c       ??_C@_0DJ@IIFFPPJI@Should?5not?5wake?5a?5thread?5while?5@ 1005271c     private_server.obj
 0002:0000a758       ??_C@_08HIPBKMAG@?$CBmy_next@ 10052758     private_server.obj
 0002:0000b078       ??_7exception@std@@6B@     10053078     tbb_misc.obj
 0002:0000b080       ??_C@_0BC@EOODALEL@Unknown?5exception@ 10053080     tbb_misc.obj
 0002:0000b098       ??_7bad_alloc@std@@6B@     10053098     tbb_misc.obj
 0002:0000b0a0       ??_C@_0P@GHFPNOJB@bad?5allocation@ 100530a0     tbb_misc.obj
 0002:0000b0b4       ??_7bad_last_alloc@tbb@@6B@ 100530b4     tbb_misc.obj
 0002:0000b0c0       ??_7improper_lock@tbb@@6B@ 100530c0     tbb_misc.obj
 0002:0000b0cc       ??_7user_abort@tbb@@6B@    100530cc     tbb_misc.obj
 0002:0000b0d8       ??_7missing_wait@tbb@@6B@  100530d8     tbb_misc.obj
 0002:0000b0e4       ??_7invalid_multiple_scheduling@tbb@@6B@ 100530e4     tbb_misc.obj
 0002:0000b0f0       ??_7logic_error@std@@6B@   100530f0     tbb_misc.obj
 0002:0000b0fc       ??_7invalid_argument@std@@6B@ 100530fc     tbb_misc.obj
 0002:0000b108       ??_7length_error@std@@6B@  10053108     tbb_misc.obj
 0002:0000b114       ??_7out_of_range@std@@6B@  10053114     tbb_misc.obj
 0002:0000b120       ??_7runtime_error@std@@6B@ 10053120     tbb_misc.obj
 0002:0000b12c       ??_7range_error@std@@6B@   1005312c     tbb_misc.obj
 0002:0000c6b0       ??_C@_0FI@NLJNEEHI@C?3?2Users?2Denis?2source?2repos?2Ext@ 100546b0     task.obj
 0002:0000c708       ??_C@_07BHCJEJPF@task?$CB?$DN0@ 10054708     task.obj
 0002:0000c710       ??_C@_0BE@NMBEFKAA@?$CBis_poisoned?$CI?$CGtask?$CJ@ 10054710     task.obj
 0002:0000c724       ??_C@_0BA@EMBLABKF@misaligned?5task@ 10054724     task.obj
 0002:0000c734       ??_C@_0CG@BKBHDKDA@?$CIuintptr_t?$CJtask?5?$CF?5task_alignmen@ 10054734     task.obj
 0002:0000c75c       ??_C@_0BO@KBNGOBAO@task?9?$DOprefix?$CI?$CJ?4ref_count?5?$DO?$DN?50@ 1005475c     task.obj
 0002:0000c77c       ??_C@_0BN@EHGLMPPM@corrupt?5task?5?$CIinvalid?5state?$CJ@ 1005477c     task.obj
 0002:0000c79c       ??_C@_0DE@JCDKAFFI@?$CIunsigned?$CJtask?9?$DOstate?$CI?$CJ?$DM?$DN?$CIunsig@ 1005479c     task.obj
 0002:0000c7d0       ??_C@_0FB@PGPOGMAG@C?3?2Users?2Denis?2source?2repos?2Ext@ 100547d0     task.obj
 0002:0000c824       ??_C@_08KALFEKOK@my_arena@ 10054824     task.obj
 0002:0000d3ec       ??_7tbb_exception@tbb@@6B@ 100553ec     task_group_context.obj
 0002:0000d408       ??_7captured_exception@tbb@@6B@ 10055408     task_group_context.obj
 0002:00010e08       ??_C@_0CC@MFNMDHO@p?5?$DO?$DN?50?5?$CG?$CG?5p?5?$DM?5num_priority_leve@ 10058e08     market.obj
 0002:00010e2c       ??_C@_0CB@HMEIPHJN@destruction?5of?5an?5acquired?5mute@ 10058e2c     market.obj
 0002:00010e50       ??_C@_06ECFFOEMB@?$CBstate@ 10058e50     market.obj
 0002:00010e5c       ??_7client@rml@@6B@        10058e5c     market.obj
 0002:00010e7c       ??_7tbb_client@rml@internal@tbb@@6B@ 10058e7c     market.obj
 0002:00010ea0       ??_7market@internal@tbb@@6B@ 10058ea0     market.obj
 0002:00010ec0       ??_C@_0PC@JBKCGBCI@?$CImy_priority_levels?$FLmy_global_t@ 10058ec0     market.obj
 0002:00010fb8       ??_C@_0EO@NCOAKKLL@C?3?2Users?2Denis?2source?2repos?2Ext@ 10058fb8     market.obj
 0002:00011008       ??_C@_0CF@JJLIEOOD@Element?5to?5remove?5is?5not?5in?5the@ 10059008     market.obj
 0002:00011030       ??_C@_0EN@OJCEBKLC@node?$CIval?$CJ?4my_prev_node?5?$CB?$DN?5?$CGnode@ 10059030     market.obj
 0002:00011080       ??_C@_0FG@KAIGKODA@C?3?2Users?2Denis?2source?2repos?2Ext@ 10059080     market.obj
 0002:000110d8       ??_C@_0GJ@MCBNLHDF@node?$CIval?$CJ?4my_prev_node?9?$DOmy_next@ 100590d8     market.obj
 0002:00011148       ??_C@_0FG@ECMKMFAA@Object?5with?5intrusive?5list?5node@ 10059148     market.obj
 0002:000111a0       ??_C@_0EN@LEICMHPL@node?$CIval?$CJ?4my_prev_node?5?$DN?$DN?5?$CGnode@ 100591a0     market.obj
 0002:000111f0       ??_C@_0BO@ECOGGHIB@intrusive_list_base?5corrupted@ 100591f0     market.obj
 0002:00011210       ??_C@_0GD@OJFKBGDC@?$CImy_head?4my_prev_node?5?$DN?$DN?5?$CGmy_he@ 10059210     market.obj
 0002:00013f88       ??_C@_0GI@JMEOMKJO@C?3?2Program?5Files?5?$CIx86?$CJ?2Microsof@ 1005bf88     arena.obj
 0002:00013ff0       ??_C@_1NA@FEEOBALC@?$AAC?$AA?3?$AA?2?$AAP?$AAr?$AAo?$AAg?$AAr?$AAa?$AAm?$AA?5?$AAF?$AAi?$AAl?$AAe@ 1005bff0     arena.obj
 0002:000140c0       ??_C@_0BJ@LFDBABJJ@ITERATOR?5LIST?5CORRUPTED?$CB@ 1005c0c0     arena.obj
 0002:000140e0       ??_C@_1EE@KLDMFDFL@?$AAs?$AAt?$AAd?$AA?3?$AA?3?$AA_?$AAI?$AAt?$AAe?$AAr?$AAa?$AAt?$AAo?$AAr?$AA_@ 1005c0e0     arena.obj
 0002:00014124       ??_C@_1DG@PLBPCAEM@?$AA?$CC?$AAI?$AAT?$AAE?$AAR?$AAA?$AAT?$AAO?$AAR?$AA?5?$AAL?$AAI?$AAS?$AAT?$AA?5@ 1005c124     arena.obj
 0002:0001415c       ??_C@_0BH@CBDGOEGG@integer?5overflow?5error@ 1005c15c     arena.obj
 0002:00014174       ??_C@_0BM@NOGDGACD@ref_count_?$DN?$DNint?$CIref_count_?$CJ@ 1005c174     arena.obj
 0002:00014194       ??_7empty_task@tbb@@6B@    1005c194     arena.obj
 0002:000141a0       ??_C@_0BC@JDFJEHHM@my_task_pool_size@ 1005c1a0     arena.obj
 0002:000141b8       ??_C@_0EP@IFHHEPNF@C?3?2Users?2Denis?2source?2repos?2Ext@ 1005c1b8     arena.obj
 0002:00014208       ??_C@_0BP@MNEAKMKM@sizeof?$CI?$CKthis?$CJ?$DN?$DNNFS_MaxLineSize@ 1005c208     arena.obj
 0002:00014228       ??_C@_09OBBJHBOG@?$CBmy_first@ 1005c228     arena.obj
 0002:00014234       ??_C@_08IBAGIHNA@?$CBmy_last@ 1005c234     arena.obj
 0002:00014240       ??_C@_0M@KNJEEGAH@?$CBmy_is_idle@ 1005c240     arena.obj
 0002:0001424c       ??_C@_0N@IIPOOJBI@not?5attached@ 1005c24c     arena.obj
 0002:0001425c       ??_C@_09OEPHKDIP@my_putter@ 1005c25c     arena.obj
 0002:00014268       ??_C@_0DA@EJPFNHBC@attempt?5to?5redundantly?5mark?5mai@ 1005c268     arena.obj
 0002:00014298       ??_C@_0BP@JDMDBFAC@my_putter?9?$DOmy_is_idle?5?$HM?$HM?5value@ 1005c298     arena.obj
 0002:000142b8       ??_C@_0CB@KDJNNNFJ@c?5must?5be?5odd?5for?5big?5rng?5perio@ 1005c2b8     arena.obj
 0002:000142dc       ??_C@_03NLFEFOO@c?$CG1@    1005c2dc     arena.obj
 0002:000142e0       ??_C@_0FA@KGCLOIMC@C?3?2Users?2Denis?2source?2repos?2Ext@ 1005c2e0     arena.obj
 0002:00014330       ??_C@_0BO@KFDPICNO@task_group_context?5is?5invalid@ 1005c330     arena.obj
 0002:00014350       ??_C@_03DJKOPCOJ@tgc@      1005c350     arena.obj
 0002:00014354       ??_C@_0CM@HLNMPAJN@referenced?5task_group_context?5w@ 1005c354     arena.obj
 0002:00014380       ??_C@_0O@JDHKFJME@is_alive?$CIctx?$CJ@ 1005c380     arena.obj
 0002:00014390       ??_C@_0DD@GCCMCKLJ@?$CB?$CIctx?$CG?$HO?$CI3?$HM?$CI7?$DM?$DMtask_group_contex@ 1005c390     arena.obj
 0002:000143c4       ??_C@_0CJ@LFPFLKGK@tgc?9?$DOmy_kind?5?$DM?5task_group_conte@ 1005c3c4     arena.obj
 0002:000143f0       ??_C@_0EL@PBLIFOPJ@tgc?9?$DOmy_cancellation_requested?5@ 1005c3f0     arena.obj
 0002:0001443c       ??_C@_0DJ@LDNDIAH@tgc?9?$DOmy_state?5?$DM?5task_group_cont@ 1005c43c     arena.obj
 0002:00014478       ??_C@_0O@DLOLMOAK@tgc?9?$DOmy_owner@ 1005c478     arena.obj
 0002:00014488       ??_C@_0CN@NLACLNGC@tgc?9?$DOmy_node?4my_next?5?$CG?$CG?5tgc?9?$DOmy@ 1005c488     arena.obj
 0002:000144b8       ??_C@_0DA@NDIDNFBO@is_alive?$CItgc?9?$DOmy_parent?9?$DOmy_ver@ 1005c4b8     arena.obj
 0002:000144e8       ??_C@_06CKCKBIJI@pos?$DO?$DN0@ 1005c4e8     arena.obj
 0002:000144f0       ??_C@_0FD@LKEEAOCD@C?3?2Users?2Denis?2source?2repos?2Ext@ 1005c4f0     arena.obj
 0002:00014544       ??_C@_0CA@GILKEELP@pos?$DMint?$CIsizeof?$CIpopulation_t?$CJ?$CK8?$CJ@ 1005c544     arena.obj
 0002:00014568       ??_7task_scheduler_observer_v3@internal@tbb@@6B@ 1005c568     arena.obj
 0002:00014578       ??_7task_scheduler_observer@interface6@tbb@@6B@ 1005c578     arena.obj
 0002:00014584       ??_C@_0DH@EPAIFAEG@Inconsistent?5state?5of?5task_sche@ 1005c584     arena.obj
 0002:000145bc       ??_C@_0P@CGDGEPMD@?$CBmy_busy_count@ 1005c5bc     arena.obj
 0002:000145d0       ??_C@_0GD@MJDJKAFJ@C?3?2Users?2Denis?2source?2repos?2Ext@ 1005c5d0     arena.obj
 0002:00014638       ??_C@_0FG@CBIEMHEH@C?3?2Users?2Denis?2source?2repos?2Ext@ 1005c638     arena.obj
 0002:00014690       ??_C@_0BK@FFKPNNPE@is_alive?$CI?$CIuintptr_t?$CJlast?$CJ@ 1005c690     arena.obj
 0002:000146ac       ??_C@_04PLGBGIDD@last@     1005c6ac     arena.obj
 0002:000146b4       ??_C@_0CF@KAJGPIBO@affinity?5id?5must?5be?5positive?5in@ 1005c6b4     arena.obj
 0002:000146dc       ??_C@_04GEJGKJHB@0?$DMid@  1005c6dc     arena.obj
 0002:000146e8       ??_C@_0EN@DBIGFFLB@C?3?2Users?2Denis?2source?2repos?2Ext@ 1005c6e8     arena.obj
 0002:00014738       ??_C@_0BK@FLEGBGKI@affinity?5id?5out?5of?5bounds@ 1005c738     arena.obj
 0002:00014754       ??_C@_0BD@OMMHHPPG@id?5?$DM?$DN?5my_num_slots@ 1005c754     arena.obj
 0002:00014768       ??_C@_0O@MBNNLPFM@my_arena_slot@ 1005c768     arena.obj
 0002:00014778       ??_C@_0BL@ODPIFFEN@Task?5pool?5is?5not?5quiescent@ 1005c778     arena.obj
 0002:00014794       ??_C@_0BP@GAMMILEG@is_local_task_pool_quiescent?$CI?$CJ@ 1005c794     arena.obj
 0002:000147b4       ??_C@_04OIAIIDOD@id?$DO0@  1005c7b4     arena.obj
 0002:000147c0       ??_7numa_binding_observer@internal@tbb@@6B@ 1005c7c0     arena.obj
 0002:000147d0       ??_7delegated_task@internal@interface7@tbb@@6B@ 1005c7d0     arena.obj
 0002:000147dc       ??_C@_0CB@OMHFKCP@s?4my_innermost_running_task?5?$DN?$DN?5@ 1005c7dc     arena.obj
 0002:00014800       ??_C@_0EP@EKBAJNKD@C?3?2Users?2Denis?2source?2repos?2Ext@ 1005c800     arena.obj
 0002:00014850       ??_C@_0DM@HNNILCFL@expected?5to?5be?5enqueued?5and?5rec@ 1005c850     arena.obj
 0002:0001488c       ??_C@_0BE@CFOCPJGK@s?4outermost_level?$CI?$CJ@ 1005c88c     arena.obj
 0002:000148a0       ??_C@_0BK@FMIJOJOB@my_root?9?$DOref_count?$CI?$CJ?5?$DN?$DN?52@ 1005c8a0     arena.obj
 0002:000148c0       ??_7?$function_task@Vspawn_functor@graph@interface10@flow@tbb@@@internal@tbb@@6B@ 1005c8c0     arena.obj
 0002:000148d0       ??_7wait_task@internal@interface7@tbb@@6B@ 1005c8d0     arena.obj
 0002:000148dc       ??_C@_01LKDEMHDF@s@        1005c8dc     arena.obj
 0002:000148e0       ??_C@_0DL@KFGKEBJE@The?5enqueued?5task?5can?5be?5proces@ 1005c8e0     arena.obj
 0002:0001491c       ??_C@_0BF@OHGECEBE@s?9?$DOoutermost_level?$CI?$CJ@ 1005c91c     arena.obj
 0002:00014934       ??_C@_0CF@ODNGAPM@s?9?$DOmy_innermost_running_task?5?$DN?$DN@ 1005c934     arena.obj
 0002:0001495c       ??_C@_0CD@OFNAHHEA@is_bit_set?$CI?5population?$FLlevel?$FN?0?5@ 1005c95c     arena.obj
 0002:00014980       ??_C@_0BO@CBFHELNN@number?5of?5lanes?5miscalculated@ 1005c980     arena.obj
 0002:000149a0       ??_C@_0CL@NIIKOCAN@N?$DN?$DNmax_lanes?5?$HM?$HM?5N?$DO?$DNn_lanes?5?$CG?$CG?5?$CI@ 1005c9a0     arena.obj
 0002:000149cc       ??_C@_0BO@GMMHLBMM@N?5?$DM?$DN?5sizeof?$CIpopulation_t?$CJ?5?$CK?58@ 1005c9cc     arena.obj
 0002:000149ec       ??_C@_0BD@KHCHLJLI@?$CBpopulation?$FLlevel?$FN@ 1005c9ec     arena.obj
 0002:00014a00       ??_C@_0DC@GFMAEIG@cannot?5increment?5value?9initiali@ 1005ca00     arena.obj
 0002:00014a38       ??_C@_0GG@LDDGPICM@C?3?2Program?5Files?5?$CIx86?$CJ?2Microsof@ 1005ca38     arena.obj
 0002:00014aa0       ??_C@_1MM@LIKMHCEL@?$AAC?$AA?3?$AA?2?$AAP?$AAr?$AAo?$AAg?$AAr?$AAa?$AAm?$AA?5?$AAF?$AAi?$AAl?$AAe@ 1005caa0     arena.obj
 0002:00014b70       ??_C@_1OK@IPOEJLAK@?$AAs?$AAt?$AAd?$AA?3?$AA?3?$AA_?$AAD?$AAe?$AAq?$AAu?$AAe?$AA_?$AAc?$AAo?$AAn@ 1005cb70     arena.obj
 0002:00014c60       ??_C@_1GI@POACGDOI@?$AA?$CC?$AAc?$AAa?$AAn?$AAn?$AAo?$AAt?$AA?5?$AAi?$AAn?$AAc?$AAr?$AAe?$AAm?$AAe@ 1005cc60     arena.obj
 0002:00014cc8       ??_C@_0CJ@GCBJHNIM@cannot?5increment?5deque?5iterator@ 1005ccc8     arena.obj
 0002:00014cf8       ??_C@_1FG@BGBCEPMC@?$AA?$CC?$AAc?$AAa?$AAn?$AAn?$AAo?$AAt?$AA?5?$AAi?$AAn?$AAc?$AAr?$AAe?$AAm?$AAe@ 1005ccf8     arena.obj
 0002:00014d50       ??_C@_0DE@MANMEIKC@cannot?5dereference?5value?9initia@ 1005cd50     arena.obj
 0002:00014d88       ??_C@_1OI@HFCPILNI@?$AAs?$AAt?$AAd?$AA?3?$AA?3?$AA_?$AAD?$AAe?$AAq?$AAu?$AAe?$AA_?$AAc?$AAo?$AAn@ 1005cd88     arena.obj
 0002:00014e70       ??_C@_1GM@HLAFMPGB@?$AA?$CC?$AAc?$AAa?$AAn?$AAn?$AAo?$AAt?$AA?5?$AAd?$AAe?$AAr?$AAe?$AAf?$AAe?$AAr@ 1005ce70     arena.obj
 0002:00014edc       ??_C@_0CN@IEPDPKI@cannot?5deference?5out?5of?5range?5d@ 1005cedc     arena.obj
 0002:00014f10       ??_C@_1FO@KFELHBJF@?$AA?$CC?$AAc?$AAa?$AAn?$AAn?$AAo?$AAt?$AA?5?$AAd?$AAe?$AAf?$AAe?$AAr?$AAe?$AAn@ 1005cf10     arena.obj
 0002:00014f70       ??_C@_0BN@DOAGFKAN@deque?5iterators?5incompatible@ 1005cf70     arena.obj
 0002:00014f90       ??_C@_1OC@EJJJDGHM@?$AAs?$AAt?$AAd?$AA?3?$AA?3?$AA_?$AAD?$AAe?$AAq?$AAu?$AAe?$AA_?$AAc?$AAo?$AAn@ 1005cf90     arena.obj
 0002:00015074       ??_C@_1DO@MEEAMOJI@?$AA?$CC?$AAd?$AAe?$AAq?$AAu?$AAe?$AA?5?$AAi?$AAt?$AAe?$AAr?$AAa?$AAt?$AAo?$AAr@ 1005d074     arena.obj
 0002:000150b4       ??_C@_0BH@EDKEEENI@deque?5empty?5before?5pop@ 1005d0b4     arena.obj
 0002:000150d0       ??_C@_1KK@IPLLCLGI@?$AAs?$AAt?$AAd?$AA?3?$AA?3?$AAd?$AAe?$AAq?$AAu?$AAe?$AA?$DM?$AAc?$AAl?$AAa?$AAs@ 1005d0d0     arena.obj
 0002:0001517c       ??_C@_1DC@NJAACHCD@?$AA?$CC?$AAd?$AAe?$AAq?$AAu?$AAe?$AA?5?$AAe?$AAm?$AAp?$AAt?$AAy?$AA?5?$AAb?$AAe@ 1005d17c     arena.obj
 0002:000151b0       ??_C@_0BP@CBDJMBJD@broken?5arena?5reference?5counter@ 1005d1b0     arena.obj
 0002:000151d0       ??_C@_0BL@GOOCMMAL@my_references?5?$DO?$DN?5ref_param@ 1005d1d0     arena.obj
 0002:000151ec       ??_C@_0BC@KBDMBKEH@deque?$DMT?$DO?5too?5long@ 1005d1ec     arena.obj
 0002:0001a83c       ??_7scheduler@internal@tbb@@6B@ 1006283c     scheduler.obj
 0002:0001a850       ??_C@_0BH@PJCFOIOF@?$CBcurr?9?$DOnext_in_mailbox@ 10062850     scheduler.obj
 0002:0001a868       ??_C@_0BD@HHLIBELA@my_task_count?5?$DO?$DN?50@ 10062868     scheduler.obj
 0002:0001a87c       ??_C@_04PBNCPCJL@curr@     1006287c     scheduler.obj
 0002:0001a884       ??_C@_01PFHFFBPC@t@        10062884     scheduler.obj
 0002:0001a88c       ??_7generic_scheduler@internal@tbb@@6B@ 1006288c     scheduler.obj
 0002:0001a8a8       ??_C@_0BI@CMOLMDHH@RML?5server?5not?5defined?$DP@ 100628a8     scheduler.obj
 0002:0001a8c0       ??_C@_09PDIAIGKC@my_server@ 100628c0     scheduler.obj
 0002:0001a8cc       ??_C@_0DC@OMPMODAI@Task?5pool?5must?5be?5locked?5when?5r@ 100628cc     scheduler.obj
 0002:0001a900       ??_C@_0DD@IHALEKFF@my_arena_slot?9?$DOtask_pool?5?$DN?$DN?5?$CI?$CIt@ 10062900     scheduler.obj
 0002:0001a934       ??_C@_0BP@DLJALJOC@task?5deque?5end?5was?5overwritten@ 10062934     scheduler.obj
 0002:0001a954       ??_C@_0CN@ICKPEFI@new_tail?5?$DM?$DN?5my_arena_slot?9?$DOmy_t@ 10062954     scheduler.obj
 0002:0001a984       ??_C@_0DP@GHBJMLBA@Task?5pool?5must?5be?5locked?5when?5c@ 10062984     scheduler.obj
 0002:0001a9c4       ??_C@_0CD@CFIANOHN@The?5proxy?5task?5cannot?5be?5offloa@ 100629c4     scheduler.obj
 0002:0001a9e8       ??_C@_0N@GOECIDD@?$CBis_proxy?$CIt?$CJ@ 100629e8     scheduler.obj
 0002:0001a9f8       ??_C@_0EH@OANICANA@my_offloaded_task_list_tail_lin@ 100629f8     scheduler.obj
 0002:0001aa44       ??_7?$custom_scheduler@UDefaultSchedulerTraits@internal@tbb@@@internal@tbb@@6B@ 10062a44     scheduler.obj
 0002:0001aa64       ??_7?$custom_scheduler@UIntelSchedulerTraits@internal@tbb@@@internal@tbb@@6B@ 10062a64     scheduler.obj
 0002:0001aa80       ??_C@_0EC@JPJKCONO@?$CBis_task_pool_published?$CI?$CJ?5?$CG?$CG?5is@ 10062a80     scheduler.obj
 0002:0001aac8       ??_C@_0FD@LOJBOKKM@C?3?2Users?2Denis?2source?2repos?2Ext@ 10062ac8     scheduler.obj
 0002:0001ab1c       ??_C@_0BO@FFGMFFKH@?$CBmy_arena_slot?9?$DOtask_pool_ptr@ 10062b1c     scheduler.obj
 0002:0001ab3c       ??_C@_0DH@BMPONNCM@my_arena_slot?9?$DOmy_task_pool_siz@ 10062b3c     scheduler.obj
 0002:0001ab74       ??_C@_0BJ@EBNAOIPB@invalid?5arena?5slot?5index@ 10062b74     scheduler.obj
 0002:0001ab90       ??_C@_0DF@OAKHJCHO@my_arena_slot?5?$DN?$DN?5my_arena?9?$DOmy_s@ 10062b90     scheduler.obj
 0002:0001abc8       ??_C@_0BI@DDHEOPJ@slot?5ownership?5corrupt?$DP@ 10062bc8     scheduler.obj
 0002:0001abe0       ??_C@_0ED@DPOFMDLB@tp?5?$DN?$DN?5?$CI?$CItask?$CK?$CK?$CJ?$HO?$CIintptr_t?$CJ0?$CJ?5?$HM?$HM@ 10062be0     scheduler.obj
 0002:0001ac24       ??_C@_0BO@BPAKPMEK@not?5really?5acquired?5task?5pool@ 10062c24     scheduler.obj
 0002:0001ac44       ??_C@_0BE@OBDANAJJ@we?5are?5not?5in?5arena@ 10062c44     scheduler.obj
 0002:0001ac58       ??_C@_0BJ@KAKOPABB@arena?5slot?5is?5not?5locked@ 10062c58     scheduler.obj
 0002:0001ac74       ??_C@_0CG@DLNDAJCB@not?5really?5locked?5victim?8s?5task@ 10062c74     scheduler.obj
 0002:0001aca0       ??_C@_0IK@MGPPBPLF@victim_task_pool?5?$DN?$DN?5?$CI?$CItask?$CK?$CK?$CJ0?$CJ@ 10062ca0     scheduler.obj
 0002:0001ad2c       ??_C@_0CA@KPJJIGGI@empty?5victim?5arena?5slot?5pointer@ 10062d2c     scheduler.obj
 0002:0001ad4c       ??_C@_0BC@FDIBDHCF@victim_arena_slot@ 10062d4c     scheduler.obj
 0002:0001ad60       ??_C@_0CA@PNKDECOB@victim?5arena?5slot?5is?5not?5locked@ 10062d60     scheduler.obj
 0002:0001ad80       ??_C@_0DH@EKDIAKJL@victim_arena_slot?9?$DOtask_pool?5?$DN?$DN@ 10062d80     scheduler.obj
 0002:0001adb8       ??_C@_0DH@EOPIIHGK@attempt?5to?5spawn?5task?5that?5is?5n@ 10062db8     scheduler.obj
 0002:0001adf0       ??_C@_0BM@PKOLENLD@t?9?$DOstate?$CI?$CJ?$DN?$DNtask?3?3allocated@ 10062df0     scheduler.obj
 0002:0001ae0c       ??_C@_0DF@OEIDPLN@attempt?5to?5spawn?5task?5whose?5par@ 10062e0c     scheduler.obj
 0002:0001ae44       ??_C@_0N@GFHEPNGJ@ref_count?$DO?$DN0@ 10062e44     scheduler.obj
 0002:0001ae58       ??_C@_0FB@KLFGCIGA@attempt?5to?5spawn?5task?5whose?5par@ 10062e58     scheduler.obj
 0002:0001aeac       ??_C@_0N@GNAOLKKA@ref_count?$CB?$DN0@ 10062eac     scheduler.obj
 0002:0001aebc       ??_C@_0DD@DBDAGODG@backwards?5compatibility?5to?5TBB?5@ 10062ebc     scheduler.obj
 0002:0001aef0       ??_C@_0CJ@OADHCJIC@dst_thread?5?$DN?$DN?50?5?$HM?$HM?5is_version_3@ 10062ef0     scheduler.obj
 0002:0001af1c       ??_C@_0CI@GLNIEMEP@Is?5it?5safe?5to?5get?5a?5task?5at?5pos@ 10062f1c     scheduler.obj
 0002:0001af48       ??_C@_0FB@PEEIAAKN@__TBB_load_relaxed?$CI?5my_arena_sl@ 10062f48     scheduler.obj
 0002:0001af9c       ??_C@_0CL@NKJHBMDP@The?5poisoned?5task?5is?5going?5to?5b@ 10062f9c     scheduler.obj
 0002:0001afc8       ??_C@_0BH@JBFJDMFK@?$CBis_poisoned?$CI?5result?5?$CJ@ 10062fc8     scheduler.obj
 0002:0001afe0       ??_C@_0CM@FLLAMAOI@backwards?5compatibility?5with?5TB@ 10062fe0     scheduler.obj
 0002:0001b00c       ??_C@_0BI@LOLDPLBP@is_version_3_task?$CI?5?$CKt?5?$CJ@ 1006300c     scheduler.obj
 0002:0001b024       ??_C@_0BJ@HJENMGEB@is_task_pool_published?$CI?$CJ@ 10063024     scheduler.obj
 0002:0001b040       ??_C@_07GEMCFJLC@?$CBresult@ 10063040     scheduler.obj
 0002:0001b048       ??_C@_0CL@JFLKFHKK@victim?1thief?5arbitration?5algori@ 10063048     scheduler.obj
 0002:0001b078       ??_C@_0HB@FMCKPCFE@H0?5?$DN?$DN?5__TBB_load_relaxed?$CI?5my_ar@ 10063078     scheduler.obj
 0002:0001b0ec       ??_C@_09HNHGNKJM@T0?5?$DN?$DN?5T?$CL1@ 100630ec     scheduler.obj
 0002:0001b0f8       ??_C@_0CF@LDHNFBMB@is_quiescent_local_task_pool_re@ 100630f8     scheduler.obj
 0002:0001b120       ??_C@_07HCAANLFB@H0?5?$DN?$DN?5T@ 10063120     scheduler.obj
 0002:0001b128       ??_C@_08IAEIEOP@H0?5?$DM?$DN?5T0@ 10063128     scheduler.obj
 0002:0001b134       ??_C@_06KJFADLGN@result@   10063134     scheduler.obj
 0002:0001b13c       ??_C@_0DJ@MBBCHFFI@?$CIintptr_t?$CJ__TBB_load_relaxed?$CI?5m@ 1006313c     scheduler.obj
 0002:0001b178       ??_C@_0EA@DGLADJAL@result?5?$HM?$HM?5tasks_omitted?5?$HM?$HM?5is_q@ 10063178     scheduler.obj
 0002:0001b1b8       ??_C@_0CI@FKMLHL@no?5arena?3?5initialization?5not?5co@ 100631b8     scheduler.obj
 0002:0001b1e0       ??_C@_0CB@LPMOJLPE@arena?5slot?5index?5is?5out?9of?9boun@ 100631e0     scheduler.obj
 0002:0001b204       ??_C@_0CI@OHFLOHIC@my_arena_index?5?$DM?5my_arena?9?$DOmy_n@ 10063204     scheduler.obj
 0002:0001b22c       ??_C@_0DF@PGIDHDB@my_arena_slot?5?$DN?$DN?5?$CGmy_arena?9?$DOmy_@ 1006322c     scheduler.obj
 0002:0001b264       ??_C@_0CE@INOMDMEC@someone?5else?5grabbed?5my?5arena?5s@ 10063264     scheduler.obj
 0002:0001b288       ??_C@_0CI@LGNJBBEB@my_arena_slot?9?$DOtask_pool?5?$DN?$DN?5?$CI?$CIt@ 10063288     scheduler.obj
 0002:0001b2b0       ??_C@_0CG@GFMBLNBF@entering?5arena?5without?5tasks?5to@ 100632b0     scheduler.obj
 0002:0001b2d8       ??_C@_0FC@HABCALHI@__TBB_load_relaxed?$CImy_arena_slo@ 100632d8     scheduler.obj
 0002:0001b32c       ??_C@_0N@GEHBJNPJ@Not?5in?5arena@ 1006332c     scheduler.obj
 0002:0001b33c       ??_C@_0CD@GJBBKPKF@arena?5slot?5and?5slot?5index?5misma@ 1006333c     scheduler.obj
 0002:0001b360       ??_C@_0DF@MEJMMJFG@?$CGmy_arena?9?$DOmy_slots?$FLmy_arena_in@ 10063360     scheduler.obj
 0002:0001b398       ??_C@_0CM@PKMMCBAO@Task?5pool?5must?5be?5locked?5when?5l@ 10063398     scheduler.obj
 0002:0001b3c4       ??_C@_0DD@NMGIJENM@Cannot?5leave?5arena?5when?5the?5tas@ 100633c4     scheduler.obj
 0002:0001b3f8       ??_C@_0CF@NPJCDDNF@is_quiescent_local_task_pool_em@ 100633f8     scheduler.obj
 0002:0001b420       ??_C@_0BK@LFACAHON@Maximal?5capacity?5exceeded@ 10063420     scheduler.obj
 0002:0001b43c       ??_C@_0BO@MDAELBIO@m_num_segments?5?$DM?5max_segments@ 1006343c     scheduler.obj
 0002:0001b460       ??_C@_0FJ@LPNAHPP@C?3?2Users?2Denis?2source?2repos?2Ext@ 10063460     scheduler.obj
 0002:0001b4bc       ??_C@_0CK@LELAGDPJ@Nonempty?5initial?5segment?5must?5b@ 100634bc     scheduler.obj
 0002:0001b4e8       ??_C@_0CA@KCKFCMBB@initial_segment?5?$CG?$CG?5segment_size@ 100634e8     scheduler.obj
 0002:0001b508       ??_C@_0CH@JEFMPKMI@Normal?5task?5misinterpreted?5as?5a@ 10063508     scheduler.obj
 0002:0001b530       ??_C@_0CG@CFHFCKPM@prefix?$CI?$CJ?4extra_state?5?$DN?$DN?5es_task@ 10063530     scheduler.obj
 0002:0001b558       ??_C@_0GI@GIJCFNCK@Proxy?8s?5tag?5cannot?5specify?5both@ 10063558     scheduler.obj
 0002:0001b5c0       ??_C@_0DF@OJCBPOPH@tat?5?$DN?$DN?5from_bit?5?$HM?$HM?5?$CIis_shared?$CIt@ 100635c0     scheduler.obj
 0002:0001b5f8       ??_C@_0DB@IMPNEGJF@Empty?5proxy?5cannot?5contain?5non?9@ 100635f8     scheduler.obj
 0002:0001b62c       ??_C@_0BJ@NAOIKHFB@task_and_tag?5?$DN?$DN?5from_bit@ 1006362c     scheduler.obj
 0002:0001b648       ??_C@_1KM@CNDICFPH@?$AAs?$AAt?$AAd?$AA?3?$AA?3?$AAd?$AAe?$AAq?$AAu?$AAe?$AA?$DM?$AAc?$AAl?$AAa?$AAs@ 10063648     scheduler.obj
 0002:0001b6f4       ??_C@_0BO@PEOHNLIM@front?$CI?$CJ?5called?5on?5empty?5deque@ 100636f4     scheduler.obj
 0002:0001b718       ??_C@_1KE@BCCLBDPP@?$AAs?$AAt?$AAd?$AA?3?$AA?3?$AAd?$AAe?$AAq?$AAu?$AAe?$AA?$DM?$AAc?$AAl?$AAa?$AAs@ 10063718     scheduler.obj
 0002:0001b7c0       ??_C@_1EA@EELNAHHD@?$AA?$CC?$AAf?$AAr?$AAo?$AAn?$AAt?$AA?$CI?$AA?$CJ?$AA?5?$AAc?$AAa?$AAl?$AAl?$AAe?$AAd@ 100637c0     scheduler.obj
 0002:0001b800       ??_C@_0BA@LNNOBJOP@p?4ref_count?5?$DO?50@ 10063800     scheduler.obj
 0002:0001b810       ??_C@_0FI@NECIOGMC@C?3?2Users?2Denis?2source?2repos?2Ext@ 10063810     scheduler.obj
 0002:0001b868       ??_C@_0EF@DFJMMIPF@completion?5of?5task?5caused?5prede@ 10063868     scheduler.obj
 0002:0001b8b0       ??_C@_0P@KPMFOABG@p?4ref_count?$DN?$DN0@ 100638b0     scheduler.obj
 0002:0001b8c0       ??_C@_0DI@KEOEKCDJ@p?4isolation?5?$DN?$DN?5no_isolation?5?$HM?$HM?5@ 100638c0     scheduler.obj
 0002:0001cc50       ??_C@_0CI@PMFFFLKG@task_arena?5initialization?5is?5in@ 10064c50     observer_proxy.obj
 0002:0001cc78       ??_C@_0FG@FOJMHCM@C?3?2Users?2Denis?2source?2repos?2Ext@ 10064c78     observer_proxy.obj
 0002:0001ccd0       ??_C@_0L@KIPAIEID@my_context@ 10064cd0     observer_proxy.obj
 0002:0001ccdc       ??_C@_01KDCPPGHE@r@        10064cdc     observer_proxy.obj
 0002:0001cce0       ??_C@_0CD@KLDPKFDL@Leaked?5?$CFld?5observer_proxy?5objec@ 10064ce0     observer_proxy.obj
 0002:0001d718       ??_7control_storage@internal@tbb@@6B@ 10065718     tbb_main.obj
 0002:0001d72c       ??_7?$padded_base@Vcontrol_storage@internal@tbb@@$0IA@$0BA@@internal@tbb@@6B@ 1006572c     tbb_main.obj
 0002:0001d740       ??_7?$padded@Vcontrol_storage@internal@tbb@@$0IA@@internal@tbb@@6B@ 10065740     tbb_main.obj
 0002:0001d754       ??_7allowed_parallelism_control@internal@tbb@@6B@ 10065754     tbb_main.obj
 0002:0001d764       ??_C@_0BD@PLEDMFOC@my_active_value?$DO?$DN1@ 10065764     tbb_main.obj
 0002:0001d778       ??_C@_0FC@FHAHCEOB@C?3?2Users?2Denis?2source?2repos?2Ext@ 10065778     tbb_main.obj
 0002:0001d7d0       ??_7stack_size_control@internal@tbb@@6B@ 100657d0     tbb_main.obj
 0002:0001dfe8       ??_C@_0CK@MILFLHAC@result?$DN?$DNsegment_base?$CIk?$CL1?$CJ?9segme@ 10065fe8     concurrent_vector_v2.obj
 0002:0001e018       ??_C@_0FM@EAAMAFGE@C?3?2Users?2Denis?2source?2repos?2Ext@ 10066018     concurrent_vector_v2.obj
 0002:0001e5ac       ??_7concurrent_queue_base@internal@tbb@@6B@ 100665ac     concurrent_queue_v2.obj
 0002:0001e5b8       ??_C@_0FN@PEFGFLOM@C?3?2Users?2Denis?2source?2repos?2Ext@ 100665b8     concurrent_queue_v2.obj
 0002:0001eed8       ??_7type_info@@6B@         10066ed8     MSVCRTD:std_type_info_static.obj
 0002:0001ef08       ??_C@_17CNPHIMPH@?$AA?$CF?$AAl?$AAs@ 10066f08     MSVCRTD:thread_safe_statics.obj
 0002:0001ef10       ??_C@_1EC@JIJBPKFM@?$AAa?$AAp?$AAi?$AA?9?$AAm?$AAs?$AA?9?$AAw?$AAi?$AAn?$AA?9?$AAc?$AAo?$AAr?$AAe@ 10066f10     MSVCRTD:thread_safe_statics.obj
 0002:0001ef54       ??_C@_1BK@MGMFAEKH@?$AAk?$AAe?$AAr?$AAn?$AAe?$AAl?$AA3?$AA2?$AA?4?$AAd?$AAl?$AAl@ 10066f54     MSVCRTD:thread_safe_statics.obj
 0002:0001ef70       ??_C@_0BJ@JEBJOJFJ@SleepConditionVariableCS@ 10066f70     MSVCRTD:thread_safe_statics.obj
 0002:0001ef8c       ??_C@_0BJ@PGPPEPCC@WakeAllConditionVariable@ 10066f8c     MSVCRTD:thread_safe_statics.obj
 0002:0001efa8       ??_C@_1JM@MEGLFHBK@?$AAd?$AA?3?$AA?2?$AAa?$AAg?$AAe?$AAn?$AAt?$AA?2?$AA_?$AAw?$AAo?$AAr?$AAk?$AA?2@ 10066fa8     MSVCRTD:thread_safe_statics.obj
 0002:0001f044       __pDefaultRawDllMain       10067044     MSVCRTD:dll_dllmain.obj
 0002:0001f044       __pRawDllMain              10067044     MSVCRTD:dll_dllmain.obj
 0002:0001f0e8       ??_C@_0NN@JMPELKLB@The?5value?5of?5ESP?5was?5not?5proper@ 100670e8     MSVCRTD:error.obj
 0002:0001f1c8       ??_C@_0BBN@ELNNILBE@A?5cast?5to?5a?5smaller?5data?5type?5h@ 100671c8     MSVCRTD:error.obj
 0002:0001f2e8       ??_C@_0BN@BPOGFMJL@Stack?5memory?5was?5corrupted?$AN?6@ 100672e8     MSVCRTD:error.obj
 0002:0001f308       ??_C@_0DG@DAJCDLPN@A?5local?5variable?5was?5used?5befor@ 10067308     MSVCRTD:error.obj
 0002:0001f340       ??_C@_0CM@JMIDGKLA@Stack?5memory?5around?5_alloca?5was@ 10067340     MSVCRTD:error.obj
 0002:0001f36c       ??_C@_0BO@CHIONIOI@Unknown?5Runtime?5Check?5Error?$AN?6@ 1006736c     MSVCRTD:error.obj
 0002:0001f390       ??_C@_1GM@CNOOJIHC@?$AAR?$AAu?$AAn?$AAt?$AAi?$AAm?$AAe?$AA?5?$AAC?$AAh?$AAe?$AAc?$AAk?$AA?5?$AAE@ 10067390     MSVCRTD:error.obj
 0002:0001f400       ??_C@_1EA@NFKNIFJP@?$AAR?$AAu?$AAn?$AA?9?$AAT?$AAi?$AAm?$AAe?$AA?5?$AAC?$AAh?$AAe?$AAc?$AAk?$AA?5@ 10067400     MSVCRTD:error.obj
 0002:0001f440       ??_C@_0BB@PFFGGCJP@Unknown?5Filename@ 10067440     MSVCRTD:error.obj
 0002:0001f454       ??_C@_0BE@GNBOBNCK@Unknown?5Module?5Name@ 10067454     MSVCRTD:error.obj
 0002:0001f468       ??_C@_0CA@IODNCDPG@Run?9Time?5Check?5Failure?5?$CD?$CFd?5?9?5?$CFs@ 10067468     MSVCRTD:error.obj
 0002:0001f488       ??_C@_0CG@IAFNJNEE@Stack?5corrupted?5near?5unknown?5va@ 10067488     MSVCRTD:error.obj
 0002:0001f4b0       ??_C@_05MKKEDADM@?$CF?42X?5@ 100674b0     MSVCRTD:error.obj
 0002:0001f4b8       ??_C@_0EJ@LJKNEOLN@Stack?5area?5around?5_alloca?5memor@ 100674b8     MSVCRTD:error.obj
 0002:0001f504       ??_C@_01EEMJAFIK@?6@       10067504     MSVCRTD:error.obj
 0002:0001f508       ??_C@_02LLMPMKNF@?$DO?5@   10067508     MSVCRTD:error.obj
 0002:0001f50c       ??_C@_08OMAHNMHJ@?6Data?3?5?$DM@ 1006750c     MSVCRTD:error.obj
 0002:0001f518       ??_C@_0CK@DKGBICFE@?6Allocation?5number?5within?5this?5@ 10067518     MSVCRTD:error.obj
 0002:0001f544       ??_C@_07DFDJCKFN@?6Size?3?5@ 10067544     MSVCRTD:error.obj
 0002:0001f54c       ??_C@_0N@MHFFIMFG@?6Address?3?50x@ 1006754c     MSVCRTD:error.obj
 0002:0001f560       ??_C@_0EI@CLEPFNGI@Stack?5area?5around?5_alloca?5memor@ 10067560     MSVCRTD:error.obj
 0002:0001f5a8       ??_C@_0BK@ODNDAGKB@?$CFs?$CFs?$CFp?$CFs?$CFzd?$CFs?$CFd?$CFs?$CFs?$CFs?$CFs?$CFs@ 100675a8     MSVCRTD:error.obj
 0002:0001f5c4       ??_C@_0DE@OHJBPMBP@A?5variable?5is?5being?5used?5withou@ 100675c4     MSVCRTD:error.obj
 0002:0001f60c       ??_C@_0BJ@HEGAHDFO@Stack?5pointer?5corruption@ 1006760c     MSVCRTD:userapi.obj
 0002:0001f628       ??_C@_0CK@FEGOIOPB@Cast?5to?5smaller?5type?5causing?5lo@ 10067628     MSVCRTD:userapi.obj
 0002:0001f654       ??_C@_0BI@CIGMDCBH@Stack?5memory?5corruption@ 10067654     MSVCRTD:userapi.obj
 0002:0001f66c       ??_C@_0CK@CNLNOEPB@Local?5variable?5used?5before?5init@ 1006766c     MSVCRTD:userapi.obj
 0002:0001f698       ??_C@_0BP@OGBCLIBO@Stack?5around?5_alloca?5corrupted@ 10067698     MSVCRTD:userapi.obj
 0002:0001f6bc       ??_7bad_array_new_length@std@@6B@ 100676bc     MSVCRTD:throw_bad_alloc.obj
 0002:0001f6c4       ??_C@_0BF@KINCDENJ@bad?5array?5new?5length@ 100676c4     MSVCRTD:throw_bad_alloc.obj
 0002:0001f728       ??_C@_1EI@MLPKHBGE@?$AAa?$AAp?$AAi?$AA?9?$AAm?$AAs?$AA?9?$AAw?$AAi?$AAn?$AA?9?$AAc?$AAo?$AAr?$AAe@ 10067728     MSVCRTD:pdblkup.obj
 0002:0001f770       ??_C@_1BK@JHLNAEJL@?$AAa?$AAd?$AAv?$AAa?$AAp?$AAi?$AA3?$AA2?$AA?4?$AAd?$AAl?$AAl@ 10067770     MSVCRTD:pdblkup.obj
 0002:0001f78c       ??_C@_0O@COHOBMLB@RegOpenKeyExW@ 1006778c     MSVCRTD:pdblkup.obj
 0002:0001f79c       ??_C@_0BB@GLNAEDBD@RegQueryValueExW@ 1006779c     MSVCRTD:pdblkup.obj
 0002:0001f7b0       ??_C@_0M@HLOHPNFA@RegCloseKey@ 100677b0     MSVCRTD:pdblkup.obj
 0002:0001f7c0       ??_C@_1HE@EBEAGLFB@?$AAS?$AAO?$AAF?$AAT?$AAW?$AAA?$AAR?$AAE?$AA?2?$AAW?$AAo?$AAw?$AA6?$AA4?$AA3@ 100677c0     MSVCRTD:pdblkup.obj
 0002:0001f834       ??_C@_1BG@EABPBLLF@?$AAP?$AAr?$AAo?$AAd?$AAu?$AAc?$AAt?$AAD?$AAi?$AAr@ 10067834     MSVCRTD:pdblkup.obj
 0002:0001f868       ??_C@_1BC@JINFINNJ@?$AAM?$AAS?$AAP?$AAD?$AAB?$AA1?$AA4?$AA0@ 10067868     MSVCRTD:pdblkup.obj
 0002:0001f87c       ??_C@_0BB@KCIACLNC@PDBOpenValidate5@ 1006787c     MSVCRTD:pdblkup.obj
 0002:0001f8e8       __load_config_used         100678e8     MSVCRTD:loadcfg.obj
 0002:0001f9a0       __tls_used                 100679a0     MSVCRTD:tlssup.obj
 0002:0001f9b8       ??_R4concurrent_queue_base_v3@internal@tbb@@6B@ 100679b8     concurrent_queue.obj
 0002:0001f9cc       ??_R3concurrent_queue_base_v3@internal@tbb@@8 100679cc     concurrent_queue.obj
 0002:0001f9dc       ??_R2concurrent_queue_base_v3@internal@tbb@@8 100679dc     concurrent_queue.obj
 0002:0001f9ec       ??_R1A@?0A@EA@concurrent_queue_base_v3@internal@tbb@@8 100679ec     concurrent_queue.obj
 0002:0001fa08       ??_R13?0A@EN@no_copy@internal@tbb@@8 10067a08     concurrent_queue.obj
 0002:0001fa24       ??_R3no_copy@internal@tbb@@8 10067a24     concurrent_queue.obj
 0002:0001fa34       ??_R2no_copy@internal@tbb@@8 10067a34     concurrent_queue.obj
 0002:0001fa40       ??_R1A@?0A@EA@no_copy@internal@tbb@@8 10067a40     concurrent_queue.obj
 0002:0001fa5c       ??_R1A@?0A@EN@no_assign@internal@tbb@@8 10067a5c     concurrent_queue.obj
 0002:0001fa78       ??_R3no_assign@internal@tbb@@8 10067a78     concurrent_queue.obj
 0002:0001fa88       ??_R2no_assign@internal@tbb@@8 10067a88     concurrent_queue.obj
 0002:0001fa90       ??_R1A@?0A@EA@no_assign@internal@tbb@@8 10067a90     concurrent_queue.obj
 0002:0001faac       ??_R13?0A@EN@no_assign@internal@tbb@@8 10067aac     concurrent_queue.obj
 0002:0001fac8       ??_R4task@tbb@@6B@         10067ac8     pipeline.obj
 0002:0001fadc       ??_R3task@tbb@@8           10067adc     pipeline.obj
 0002:0001faec       ??_R2task@tbb@@8           10067aec     pipeline.obj
 0002:0001fb00       ??_R1A@?0A@EA@task@tbb@@8  10067b00     pipeline.obj
 0002:0001fb1c       ??_R13?0A@EA@task_base@internal@interface5@tbb@@8 10067b1c     pipeline.obj
 0002:0001fb38       ??_R3task_base@internal@interface5@tbb@@8 10067b38     pipeline.obj
 0002:0001fb48       ??_R2task_base@internal@interface5@tbb@@8 10067b48     pipeline.obj
 0002:0001fb58       ??_R1A@?0A@EA@task_base@internal@interface5@tbb@@8 10067b58     pipeline.obj
 0002:0001fb74       ??_R1A@?0A@EN@no_copy@internal@tbb@@8 10067b74     pipeline.obj
 0002:0001fb90       ??_R4pipeline@tbb@@6B@     10067b90     pipeline.obj
 0002:0001fba4       ??_R3pipeline@tbb@@8       10067ba4     pipeline.obj
 0002:0001fbb4       ??_R2pipeline@tbb@@8       10067bb4     pipeline.obj
 0002:0001fbbc       ??_R1A@?0A@EA@pipeline@tbb@@8 10067bbc     pipeline.obj
 0002:0001fbd8       ??_R4filter@tbb@@6B@       10067bd8     pipeline.obj
 0002:0001fbec       ??_R3filter@tbb@@8         10067bec     pipeline.obj
 0002:0001fbfc       ??_R2filter@tbb@@8         10067bfc     pipeline.obj
 0002:0001fc0c       ??_R1A@?0A@EA@filter@tbb@@8 10067c0c     pipeline.obj
 0002:0001fc28       ??_R4stage_task@internal@tbb@@6B@ 10067c28     pipeline.obj
 0002:0001fc3c       ??_R3stage_task@internal@tbb@@8 10067c3c     pipeline.obj
 0002:0001fc4c       ??_R2stage_task@internal@tbb@@8 10067c4c     pipeline.obj
 0002:0001fc68       ??_R1A@?0A@EA@stage_task@internal@tbb@@8 10067c68     pipeline.obj
 0002:0001fc84       ??_R13?0A@EA@task_info@internal@tbb@@8 10067c84     pipeline.obj
 0002:0001fca0       ??_R3task_info@internal@tbb@@8 10067ca0     pipeline.obj
 0002:0001fcb0       ??_R2task_info@internal@tbb@@8 10067cb0     pipeline.obj
 0002:0001fcb8       ??_R1A@?0A@EA@task_info@internal@tbb@@8 10067cb8     pipeline.obj
 0002:0001fcd4       ??_R4pipeline_root_task@internal@tbb@@6B@ 10067cd4     pipeline.obj
 0002:0001fce8       ??_R3pipeline_root_task@internal@tbb@@8 10067ce8     pipeline.obj
 0002:0001fcf8       ??_R2pipeline_root_task@internal@tbb@@8 10067cf8     pipeline.obj
 0002:0001fd10       ??_R1A@?0A@EA@pipeline_root_task@internal@tbb@@8 10067d10     pipeline.obj
 0002:0001fd2c       ??_R4server@rml@@6B@       10067d2c     private_server.obj
 0002:0001fd40       ??_R3server@rml@@8         10067d40     private_server.obj
 0002:0001fd50       ??_R2server@rml@@8         10067d50     private_server.obj
 0002:0001fd5c       ??_R1A@?0A@EA@server@rml@@8 10067d5c     private_server.obj
 0002:0001fd78       ??_R1A@?0A@EA@versioned_object@rml@@8 10067d78     private_server.obj
 0002:0001fd94       ??_R3versioned_object@rml@@8 10067d94     private_server.obj
 0002:0001fda4       ??_R2versioned_object@rml@@8 10067da4     private_server.obj
 0002:0001fdac       ??_R4versioned_object@rml@@6B@ 10067dac     private_server.obj
 0002:0001fdc0       ??_R4tbb_server@rml@internal@tbb@@6B@ 10067dc0     private_server.obj
 0002:0001fdd4       ??_R3tbb_server@rml@internal@tbb@@8 10067dd4     private_server.obj
 0002:0001fde4       ??_R2tbb_server@rml@internal@tbb@@8 10067de4     private_server.obj
 0002:0001fdf4       ??_R1A@?0A@EA@tbb_server@rml@internal@tbb@@8 10067df4     private_server.obj
 0002:0001fe10       ??_R4private_server@rml@internal@tbb@@6B@ 10067e10     private_server.obj
 0002:0001fe24       ??_R3private_server@rml@internal@tbb@@8 10067e24     private_server.obj
 0002:0001fe34       ??_R2private_server@rml@internal@tbb@@8 10067e34     private_server.obj
 0002:0001fe50       ??_R1A@?0A@EA@private_server@rml@internal@tbb@@8 10067e50     private_server.obj
 0002:0001fe6c       ??_R4exception@std@@6B@    10067e6c     tbb_misc.obj
 0002:0001fe80       ??_R3exception@std@@8      10067e80     tbb_misc.obj
 0002:0001fe90       ??_R2exception@std@@8      10067e90     tbb_misc.obj
 0002:0001fe98       ??_R1A@?0A@EA@exception@std@@8 10067e98     tbb_misc.obj
 0002:0001feb4       ??_R4bad_alloc@std@@6B@    10067eb4     tbb_misc.obj
 0002:0001fec8       ??_R3bad_alloc@std@@8      10067ec8     tbb_misc.obj
 0002:0001fed8       ??_R2bad_alloc@std@@8      10067ed8     tbb_misc.obj
 0002:0001fee4       ??_R1A@?0A@EA@bad_alloc@std@@8 10067ee4     tbb_misc.obj
 0002:0001ff00       ??_R4bad_last_alloc@tbb@@6B@ 10067f00     tbb_misc.obj
 0002:0001ff14       ??_R3bad_last_alloc@tbb@@8 10067f14     tbb_misc.obj
 0002:0001ff24       ??_R2bad_last_alloc@tbb@@8 10067f24     tbb_misc.obj
 0002:0001ff34       ??_R1A@?0A@EA@bad_last_alloc@tbb@@8 10067f34     tbb_misc.obj
 0002:0001ff50       ??_R4improper_lock@tbb@@6B@ 10067f50     tbb_misc.obj
 0002:0001ff64       ??_R3improper_lock@tbb@@8  10067f64     tbb_misc.obj
 0002:0001ff74       ??_R2improper_lock@tbb@@8  10067f74     tbb_misc.obj
 0002:0001ff80       ??_R1A@?0A@EA@improper_lock@tbb@@8 10067f80     tbb_misc.obj
 0002:0001ff9c       ??_R4user_abort@tbb@@6B@   10067f9c     tbb_misc.obj
 0002:0001ffb0       ??_R3user_abort@tbb@@8     10067fb0     tbb_misc.obj
 0002:0001ffc0       ??_R2user_abort@tbb@@8     10067fc0     tbb_misc.obj
 0002:0001ffcc       ??_R1A@?0A@EA@user_abort@tbb@@8 10067fcc     tbb_misc.obj
 0002:0001ffe8       ??_R4missing_wait@tbb@@6B@ 10067fe8     tbb_misc.obj
 0002:0001fffc       ??_R3missing_wait@tbb@@8   10067ffc     tbb_misc.obj
 0002:0002000c       ??_R2missing_wait@tbb@@8   1006800c     tbb_misc.obj
 0002:00020018       ??_R1A@?0A@EA@missing_wait@tbb@@8 10068018     tbb_misc.obj
 0002:00020034       ??_R4invalid_multiple_scheduling@tbb@@6B@ 10068034     tbb_misc.obj
 0002:00020048       ??_R3invalid_multiple_scheduling@tbb@@8 10068048     tbb_misc.obj
 0002:00020058       ??_R2invalid_multiple_scheduling@tbb@@8 10068058     tbb_misc.obj
 0002:00020064       ??_R1A@?0A@EA@invalid_multiple_scheduling@tbb@@8 10068064     tbb_misc.obj
 0002:00020080       ??_R4logic_error@std@@6B@  10068080     tbb_misc.obj
 0002:00020094       ??_R3logic_error@std@@8    10068094     tbb_misc.obj
 0002:000200a4       ??_R2logic_error@std@@8    100680a4     tbb_misc.obj
 0002:000200b0       ??_R1A@?0A@EA@logic_error@std@@8 100680b0     tbb_misc.obj
 0002:000200cc       ??_R4invalid_argument@std@@6B@ 100680cc     tbb_misc.obj
 0002:000200e0       ??_R3invalid_argument@std@@8 100680e0     tbb_misc.obj
 0002:000200f0       ??_R2invalid_argument@std@@8 100680f0     tbb_misc.obj
 0002:00020100       ??_R1A@?0A@EA@invalid_argument@std@@8 10068100     tbb_misc.obj
 0002:0002011c       ??_R4length_error@std@@6B@ 1006811c     tbb_misc.obj
 0002:00020130       ??_R3length_error@std@@8   10068130     tbb_misc.obj
 0002:00020140       ??_R2length_error@std@@8   10068140     tbb_misc.obj
 0002:00020150       ??_R1A@?0A@EA@length_error@std@@8 10068150     tbb_misc.obj
 0002:0002016c       ??_R4out_of_range@std@@6B@ 1006816c     tbb_misc.obj
 0002:00020180       ??_R3out_of_range@std@@8   10068180     tbb_misc.obj
 0002:00020190       ??_R2out_of_range@std@@8   10068190     tbb_misc.obj
 0002:000201a0       ??_R1A@?0A@EA@out_of_range@std@@8 100681a0     tbb_misc.obj
 0002:000201bc       ??_R4runtime_error@std@@6B@ 100681bc     tbb_misc.obj
 0002:000201d0       ??_R3runtime_error@std@@8  100681d0     tbb_misc.obj
 0002:000201e0       ??_R2runtime_error@std@@8  100681e0     tbb_misc.obj
 0002:000201ec       ??_R1A@?0A@EA@runtime_error@std@@8 100681ec     tbb_misc.obj
 0002:00020208       ??_R4range_error@std@@6B@  10068208     tbb_misc.obj
 0002:0002021c       ??_R3range_error@std@@8    1006821c     tbb_misc.obj
 0002:0002022c       ??_R2range_error@std@@8    1006822c     tbb_misc.obj
 0002:0002023c       ??_R1A@?0A@EA@range_error@std@@8 1006823c     tbb_misc.obj
 0002:00020258       ??_R4tbb_exception@tbb@@6B@ 10068258     task_group_context.obj
 0002:0002026c       ??_R3tbb_exception@tbb@@8  1006826c     task_group_context.obj
 0002:0002027c       ??_R2tbb_exception@tbb@@8  1006827c     task_group_context.obj
 0002:00020288       ??_R1A@?0A@EA@tbb_exception@tbb@@8 10068288     task_group_context.obj
 0002:000202a4       ??_R4captured_exception@tbb@@6B@ 100682a4     task_group_context.obj
 0002:000202b8       ??_R3captured_exception@tbb@@8 100682b8     task_group_context.obj
 0002:000202c8       ??_R2captured_exception@tbb@@8 100682c8     task_group_context.obj
 0002:000202d8       ??_R1A@?0A@EA@captured_exception@tbb@@8 100682d8     task_group_context.obj
 0002:000202f4       ??_R4market@internal@tbb@@6B@ 100682f4     market.obj
 0002:00020308       ??_R3market@internal@tbb@@8 10068308     market.obj
 0002:00020318       ??_R2market@internal@tbb@@8 10068318     market.obj
 0002:00020334       ??_R1A@?0A@EA@market@internal@tbb@@8 10068334     market.obj
 0002:00020350       ??_R1A@?0A@EN@tbb_client@rml@internal@tbb@@8 10068350     market.obj
 0002:0002036c       ??_R3tbb_client@rml@internal@tbb@@8 1006836c     market.obj
 0002:0002037c       ??_R2tbb_client@rml@internal@tbb@@8 1006837c     market.obj
 0002:0002038c       ??_R1A@?0A@EA@tbb_client@rml@internal@tbb@@8 1006838c     market.obj
 0002:000203a8       ??_R1A@?0A@EA@client@rml@@8 100683a8     market.obj
 0002:000203c4       ??_R3client@rml@@8         100683c4     market.obj
 0002:000203d4       ??_R2client@rml@@8         100683d4     market.obj
 0002:000203e0       ??_R1A@?0A@EJ@client@rml@@8 100683e0     market.obj
 0002:000203fc       ??_R1A@?0A@EJ@versioned_object@rml@@8 100683fc     market.obj
 0002:00020418       ??_R4client@rml@@6B@       10068418     market.obj
 0002:0002042c       ??_R4tbb_client@rml@internal@tbb@@6B@ 1006842c     market.obj
 0002:00020440       ??_R4empty_task@tbb@@6B@   10068440     arena.obj
 0002:00020454       ??_R3empty_task@tbb@@8     10068454     arena.obj
 0002:00020464       ??_R2empty_task@tbb@@8     10068464     arena.obj
 0002:0002047c       ??_R1A@?0A@EA@empty_task@tbb@@8 1006847c     arena.obj
 0002:00020498       ??_R4delegated_task@internal@interface7@tbb@@6B@ 10068498     arena.obj
 0002:000204ac       ??_R3delegated_task@internal@interface7@tbb@@8 100684ac     arena.obj
 0002:000204bc       ??_R2delegated_task@internal@interface7@tbb@@8 100684bc     arena.obj
 0002:000204d4       ??_R1A@?0A@EA@delegated_task@internal@interface7@tbb@@8 100684d4     arena.obj
 0002:000204f0       ??_R4wait_task@internal@interface7@tbb@@6B@ 100684f0     arena.obj
 0002:00020504       ??_R3wait_task@internal@interface7@tbb@@8 10068504     arena.obj
 0002:00020514       ??_R2wait_task@internal@interface7@tbb@@8 10068514     arena.obj
 0002:0002052c       ??_R1A@?0A@EA@wait_task@internal@interface7@tbb@@8 1006852c     arena.obj
 0002:00020548       ??_R4task_scheduler_observer_v3@internal@tbb@@6B@ 10068548     arena.obj
 0002:0002055c       ??_R3task_scheduler_observer_v3@internal@tbb@@8 1006855c     arena.obj
 0002:0002056c       ??_R2task_scheduler_observer_v3@internal@tbb@@8 1006856c     arena.obj
 0002:00020574       ??_R1A@?0A@EA@task_scheduler_observer_v3@internal@tbb@@8 10068574     arena.obj
 0002:00020590       ??_R4task_scheduler_observer@interface6@tbb@@6B@ 10068590     arena.obj
 0002:000205a4       ??_R3task_scheduler_observer@interface6@tbb@@8 100685a4     arena.obj
 0002:000205b4       ??_R2task_scheduler_observer@interface6@tbb@@8 100685b4     arena.obj
 0002:000205c0       ??_R1A@?0A@EA@task_scheduler_observer@interface6@tbb@@8 100685c0     arena.obj
 0002:000205dc       ??_R4numa_binding_observer@internal@tbb@@6B@ 100685dc     arena.obj
 0002:000205f0       ??_R3numa_binding_observer@internal@tbb@@8 100685f0     arena.obj
 0002:00020600       ??_R2numa_binding_observer@internal@tbb@@8 10068600     arena.obj
 0002:00020610       ??_R1A@?0A@EA@numa_binding_observer@internal@tbb@@8 10068610     arena.obj
 0002:0002062c       ??_R4?$function_task@Vspawn_functor@graph@interface10@flow@tbb@@@internal@tbb@@6B@ 1006862c     arena.obj
 0002:00020640       ??_R3?$function_task@Vspawn_functor@graph@interface10@flow@tbb@@@internal@tbb@@8 10068640     arena.obj
 0002:00020650       ??_R2?$function_task@Vspawn_functor@graph@interface10@flow@tbb@@@internal@tbb@@8 10068650     arena.obj
 0002:00020668       ??_R1A@?0A@EA@?$function_task@Vspawn_functor@graph@interface10@flow@tbb@@@internal@tbb@@8 10068668     arena.obj
 0002:00020684       ??_R4scheduler@internal@tbb@@6B@ 10068684     scheduler.obj
 0002:00020698       ??_R3scheduler@internal@tbb@@8 10068698     scheduler.obj
 0002:000206a8       ??_R2scheduler@internal@tbb@@8 100686a8     scheduler.obj
 0002:000206b8       ??_R1A@?0A@EA@scheduler@internal@tbb@@8 100686b8     scheduler.obj
 0002:000206d4       ??_R4generic_scheduler@internal@tbb@@6B@ 100686d4     scheduler.obj
 0002:000206e8       ??_R3generic_scheduler@internal@tbb@@8 100686e8     scheduler.obj
 0002:000206f8       ??_R2generic_scheduler@internal@tbb@@8 100686f8     scheduler.obj
 0002:00020718       ??_R1A@?0A@EA@generic_scheduler@internal@tbb@@8 10068718     scheduler.obj
 0002:00020734       ??_R13?0A@EA@job@rml@@8    10068734     scheduler.obj
 0002:00020750       ??_R3job@rml@@8            10068750     scheduler.obj
 0002:00020760       ??_R2job@rml@@8            10068760     scheduler.obj
 0002:00020768       ??_R1A@?0A@EA@job@rml@@8   10068768     scheduler.obj
 0002:00020784       ??_R17?0A@EA@intrusive_list_node@internal@tbb@@8 10068784     scheduler.obj
 0002:000207a0       ??_R3intrusive_list_node@internal@tbb@@8 100687a0     scheduler.obj
 0002:000207b0       ??_R2intrusive_list_node@internal@tbb@@8 100687b0     scheduler.obj
 0002:000207b8       ??_R1A@?0A@EA@intrusive_list_node@internal@tbb@@8 100687b8     scheduler.obj
 0002:000207d4       ??_R1BA@?0A@EA@scheduler_state@internal@tbb@@8 100687d4     scheduler.obj
 0002:000207f0       ??_R3scheduler_state@internal@tbb@@8 100687f0     scheduler.obj
 0002:00020800       ??_R2scheduler_state@internal@tbb@@8 10068800     scheduler.obj
 0002:00020808       ??_R1A@?0A@EA@scheduler_state@internal@tbb@@8 10068808     scheduler.obj
 0002:00020824       ??_R4?$custom_scheduler@UDefaultSchedulerTraits@internal@tbb@@@internal@tbb@@6B@ 10068824     scheduler.obj
 0002:00020838       ??_R3?$custom_scheduler@UDefaultSchedulerTraits@internal@tbb@@@internal@tbb@@8 10068838     scheduler.obj
 0002:00020848       ??_R2?$custom_scheduler@UDefaultSchedulerTraits@internal@tbb@@@internal@tbb@@8 10068848     scheduler.obj
 0002:0002086c       ??_R1A@?0A@EA@?$custom_scheduler@UDefaultSchedulerTraits@internal@tbb@@@internal@tbb@@8 1006886c     scheduler.obj
 0002:00020888       ??_R1A@?0A@EN@generic_scheduler@internal@tbb@@8 10068888     scheduler.obj
 0002:000208a4       ??_R1A@?0A@EJ@scheduler@internal@tbb@@8 100688a4     scheduler.obj
 0002:000208c0       ??_R13?0A@EJ@job@rml@@8    100688c0     scheduler.obj
 0002:000208dc       ??_R17?0A@EJ@intrusive_list_node@internal@tbb@@8 100688dc     scheduler.obj
 0002:000208f8       ??_R1BA@?0A@EJ@scheduler_state@internal@tbb@@8 100688f8     scheduler.obj
 0002:00020914       ??_R4?$custom_scheduler@UIntelSchedulerTraits@internal@tbb@@@internal@tbb@@6B@ 10068914     scheduler.obj
 0002:00020928       ??_R3?$custom_scheduler@UIntelSchedulerTraits@internal@tbb@@@internal@tbb@@8 10068928     scheduler.obj
 0002:00020938       ??_R2?$custom_scheduler@UIntelSchedulerTraits@internal@tbb@@@internal@tbb@@8 10068938     scheduler.obj
 0002:0002095c       ??_R1A@?0A@EA@?$custom_scheduler@UIntelSchedulerTraits@internal@tbb@@@internal@tbb@@8 1006895c     scheduler.obj
 0002:00020978       ??_R4control_storage@internal@tbb@@6B@ 10068978     tbb_main.obj
 0002:0002098c       ??_R3control_storage@internal@tbb@@8 1006898c     tbb_main.obj
 0002:0002099c       ??_R2control_storage@internal@tbb@@8 1006899c     tbb_main.obj
 0002:000209a4       ??_R1A@?0A@EA@control_storage@internal@tbb@@8 100689a4     tbb_main.obj
 0002:000209c0       ??_R4allowed_parallelism_control@internal@tbb@@6B@ 100689c0     tbb_main.obj
 0002:000209d4       ??_R3allowed_parallelism_control@internal@tbb@@8 100689d4     tbb_main.obj
 0002:000209e4       ??_R2allowed_parallelism_control@internal@tbb@@8 100689e4     tbb_main.obj
 0002:000209f8       ??_R1A@?0A@EA@allowed_parallelism_control@internal@tbb@@8 100689f8     tbb_main.obj
 0002:00020a14       ??_R1A@?0A@EA@?$padded@Vcontrol_storage@internal@tbb@@$0IA@@internal@tbb@@8 10068a14     tbb_main.obj
 0002:00020a30       ??_R3?$padded@Vcontrol_storage@internal@tbb@@$0IA@@internal@tbb@@8 10068a30     tbb_main.obj
 0002:00020a40       ??_R2?$padded@Vcontrol_storage@internal@tbb@@$0IA@@internal@tbb@@8 10068a40     tbb_main.obj
 0002:00020a50       ??_R1A@?0A@EA@?$padded_base@Vcontrol_storage@internal@tbb@@$0IA@$0BA@@internal@tbb@@8 10068a50     tbb_main.obj
 0002:00020a6c       ??_R3?$padded_base@Vcontrol_storage@internal@tbb@@$0IA@$0BA@@internal@tbb@@8 10068a6c     tbb_main.obj
 0002:00020a7c       ??_R2?$padded_base@Vcontrol_storage@internal@tbb@@$0IA@$0BA@@internal@tbb@@8 10068a7c     tbb_main.obj
 0002:00020a88       ??_R4?$padded@Vcontrol_storage@internal@tbb@@$0IA@@internal@tbb@@6B@ 10068a88     tbb_main.obj
 0002:00020a9c       ??_R4?$padded_base@Vcontrol_storage@internal@tbb@@$0IA@$0BA@@internal@tbb@@6B@ 10068a9c     tbb_main.obj
 0002:00020ab0       ??_R4stack_size_control@internal@tbb@@6B@ 10068ab0     tbb_main.obj
 0002:00020ac4       ??_R3stack_size_control@internal@tbb@@8 10068ac4     tbb_main.obj
 0002:00020ad4       ??_R2stack_size_control@internal@tbb@@8 10068ad4     tbb_main.obj
 0002:00020ae8       ??_R1A@?0A@EA@stack_size_control@internal@tbb@@8 10068ae8     tbb_main.obj
 0002:00020b04       ??_R4concurrent_queue_base@internal@tbb@@6B@ 10068b04     concurrent_queue_v2.obj
 0002:00020b18       ??_R3concurrent_queue_base@internal@tbb@@8 10068b18     concurrent_queue_v2.obj
 0002:00020b28       ??_R2concurrent_queue_base@internal@tbb@@8 10068b28     concurrent_queue_v2.obj
 0002:00020b38       ??_R1A@?0A@EA@concurrent_queue_base@internal@tbb@@8 10068b38     concurrent_queue_v2.obj
 0002:00020b54       ??_R4type_info@@6B@        10068b54     MSVCRTD:std_type_info_static.obj
 0002:00020b68       ??_R3type_info@@8          10068b68     MSVCRTD:std_type_info_static.obj
 0002:00020b78       ??_R2type_info@@8          10068b78     MSVCRTD:std_type_info_static.obj
 0002:00020b80       ??_R1A@?0A@EA@type_info@@8 10068b80     MSVCRTD:std_type_info_static.obj
 0002:00020b9c       ??_R4bad_array_new_length@std@@6B@ 10068b9c     MSVCRTD:throw_bad_alloc.obj
 0002:00020bb0       ??_R3bad_array_new_length@std@@8 10068bb0     MSVCRTD:throw_bad_alloc.obj
 0002:00020bc0       ??_R2bad_array_new_length@std@@8 10068bc0     MSVCRTD:throw_bad_alloc.obj
 0002:00020bd0       ??_R1A@?0A@EA@bad_array_new_length@std@@8 10068bd0     MSVCRTD:throw_bad_alloc.obj
 0002:00020bec       ___safe_se_handler_table   10068bec     <linker-defined>
 0002:0002121c       ___rtc_iaa                 1006921c     MSVCRTD:initsect.obj
 0002:000212ac       ___rtc_izz                 100692ac     MSVCRTD:initsect.obj
 0002:000212b0       ___rtc_taa                 100692b0     MSVCRTD:initsect.obj
 0002:00021340       ___rtc_tzz                 10069340     MSVCRTD:initsect.obj
 0002:00021344       __tls_start                10069344     MSVCRTD:tlssup.obj
 0002:00021348       __Init_thread_epoch        10069348     MSVCRTD:thread_safe_statics.obj
 0002:0002134c       __tls_end                  1006934c     MSVCRTD:tlssup.obj
 0002:00021fe0       __CT??_R0?AVbad_alloc@std@@@8??0bad_alloc@std@@QAE@ABV01@@Z12 10069fe0     tbb_misc.obj
 0002:00021ffc       __CT??_R0?AVexception@std@@@8??0exception@std@@QAE@ABV01@@Z12 10069ffc     tbb_misc.obj
 0002:00022018       __TI3?AVrange_error@std@@  1006a018     tbb_misc.obj
 0002:00022028       __CTA3?AVrange_error@std@@ 1006a028     tbb_misc.obj
 0002:00022038       __CT??_R0?AVrange_error@std@@@8??0range_error@std@@QAE@ABV01@@Z12 1006a038     tbb_misc.obj
 0002:00022054       __CT??_R0?AVruntime_error@std@@@8??0runtime_error@std@@QAE@ABV01@@Z12 1006a054     tbb_misc.obj
 0002:00022070       __TI2?AVruntime_error@std@@ 1006a070     tbb_misc.obj
 0002:00022080       __CTA2?AVruntime_error@std@@ 1006a080     tbb_misc.obj
 0002:0002208c       __TI2?AVbad_alloc@std@@    1006a08c     tbb_misc.obj
 0002:0002209c       __CTA2?AVbad_alloc@std@@   1006a09c     tbb_misc.obj
 0002:000220a8       __TI3?AVbad_last_alloc@tbb@@ 1006a0a8     tbb_misc.obj
 0002:000220b8       __CTA3?AVbad_last_alloc@tbb@@ 1006a0b8     tbb_misc.obj
 0002:000220c8       __CT??_R0?AVbad_last_alloc@tbb@@@8??0bad_last_alloc@tbb@@QAE@ABV01@@Z12 1006a0c8     tbb_misc.obj
 0002:000220e4       __TI3?AVinvalid_argument@std@@ 1006a0e4     tbb_misc.obj
 0002:000220f4       __CTA3?AVinvalid_argument@std@@ 1006a0f4     tbb_misc.obj
 0002:00022104       __CT??_R0?AVinvalid_argument@std@@@8??0invalid_argument@std@@QAE@ABV01@@Z12 1006a104     tbb_misc.obj
 0002:00022120       __CT??_R0?AVlogic_error@std@@@8??0logic_error@std@@QAE@ABV01@@Z12 1006a120     tbb_misc.obj
 0002:0002213c       __TI3?AVout_of_range@std@@ 1006a13c     tbb_misc.obj
 0002:0002214c       __CTA3?AVout_of_range@std@@ 1006a14c     tbb_misc.obj
 0002:0002215c       __CT??_R0?AVout_of_range@std@@@8??0out_of_range@std@@QAE@ABV01@@Z12 1006a15c     tbb_misc.obj
 0002:00022178       __TI2?AVmissing_wait@tbb@@ 1006a178     tbb_misc.obj
 0002:00022188       __CTA2?AVmissing_wait@tbb@@ 1006a188     tbb_misc.obj
 0002:00022194       __CT??_R0?AVmissing_wait@tbb@@@8??0missing_wait@tbb@@QAE@ABV01@@Z12 1006a194     tbb_misc.obj
 0002:000221b0       __TI2?AVinvalid_multiple_scheduling@tbb@@ 1006a1b0     tbb_misc.obj
 0002:000221c0       __CTA2?AVinvalid_multiple_scheduling@tbb@@ 1006a1c0     tbb_misc.obj
 0002:000221cc       __CT??_R0?AVinvalid_multiple_scheduling@tbb@@@8??0invalid_multiple_scheduling@tbb@@QAE@ABV01@@Z12 1006a1cc     tbb_misc.obj
 0002:000221e8       __TI2?AVimproper_lock@tbb@@ 1006a1e8     tbb_misc.obj
 0002:000221f8       __CTA2?AVimproper_lock@tbb@@ 1006a1f8     tbb_misc.obj
 0002:00022204       __CT??_R0?AVimproper_lock@tbb@@@8??0improper_lock@tbb@@QAE@ABV01@@Z12 1006a204     tbb_misc.obj
 0002:00022220       __TI3?AVlength_error@std@@ 1006a220     tbb_misc.obj
 0002:00022230       __CTA3?AVlength_error@std@@ 1006a230     tbb_misc.obj
 0002:00022240       __CT??_R0?AVlength_error@std@@@8??0length_error@std@@QAE@ABV01@@Z12 1006a240     tbb_misc.obj
 0002:0002225c       __TI2?AVuser_abort@tbb@@   1006a25c     tbb_misc.obj
 0002:0002226c       __CTA2?AVuser_abort@tbb@@  1006a26c     tbb_misc.obj
 0002:00022278       __CT??_R0?AVuser_abort@tbb@@@8??0user_abort@tbb@@QAE@ABV01@@Z12 1006a278     tbb_misc.obj
 0002:000224ac       __TI3?AVcaptured_exception@tbb@@ 1006a4ac     task_group_context.obj
 0002:000224bc       __CTA3?AVcaptured_exception@tbb@@ 1006a4bc     task_group_context.obj
 0002:000224cc       __CT??_R0?AVcaptured_exception@tbb@@@8??0captured_exception@tbb@@QAE@ABV01@@Z24 1006a4cc     task_group_context.obj
 0002:000224e8       __CT??_R0?AVtbb_exception@tbb@@@8??0tbb_exception@tbb@@QAE@ABV01@@Z12 1006a4e8     task_group_context.obj
 0002:000232a4       __TI3?AVbad_array_new_length@std@@ 1006b2a4     MSVCRTD:throw_bad_alloc.obj
 0002:000232b4       __CTA3?AVbad_array_new_length@std@@ 1006b2b4     MSVCRTD:throw_bad_alloc.obj
 0002:000232c4       __CT??_R0?AVbad_array_new_length@std@@@8??0bad_array_new_length@std@@QAE@ABV01@@Z12 1006b2c4     MSVCRTD:throw_bad_alloc.obj
 0002:000273b4       __IMPORT_DESCRIPTOR_KERNEL32 1006f3b4     kernel32:KERNEL32.dll
 0002:000273c8       __IMPORT_DESCRIPTOR_MSVCP140D 1006f3c8     msvcprtd:MSVCP140D.dll
 0002:000273dc       __IMPORT_DESCRIPTOR_VCRUNTIME140D 1006f3dc     vcruntimed:VCRUNTIME140D.dll
 0002:000273f0       __IMPORT_DESCRIPTOR_ucrtbased 1006f3f0     ucrtd:ucrtbased.dll
 0002:00027404       __NULL_IMPORT_DESCRIPTOR   1006f404     kernel32:KERNEL32.dll
 0003:00000008       ?SyncType_GlobalLock@tbb@@3PB_WB 10071008     itt_notify.obj
 0003:0000000c       ?SyncType_Scheduler@tbb@@3PB_WB 1007100c     itt_notify.obj
 0003:00000010       ?SyncObj_SchedulerInitialization@tbb@@3PB_WB 10071010     itt_notify.obj
 0003:00000014       ?SyncObj_SchedulersList@tbb@@3PB_WB 10071014     itt_notify.obj
 0003:00000018       ?SyncObj_WorkerLifeCycleMgmt@tbb@@3PB_WB 10071018     itt_notify.obj
 0003:0000001c       ?SyncObj_TaskStealingLoop@tbb@@3PB_WB 1007101c     itt_notify.obj
 0003:00000020       ?SyncObj_WorkerTaskPool@tbb@@3PB_WB 10071020     itt_notify.obj
 0003:00000024       ?SyncObj_MasterTaskPool@tbb@@3PB_WB 10071024     itt_notify.obj
 0003:00000028       ?SyncObj_TaskPoolSpinning@tbb@@3PB_WB 10071028     itt_notify.obj
 0003:0000002c       ?SyncObj_Mailbox@tbb@@3PB_WB 1007102c     itt_notify.obj
 0003:00000030       ?SyncObj_TaskReturnList@tbb@@3PB_WB 10071030     itt_notify.obj
 0003:00000034       ?SyncObj_TaskStream@tbb@@3PB_WB 10071034     itt_notify.obj
 0003:00000038       ?SyncObj_ContextsList@tbb@@3PB_WB 10071038     itt_notify.obj
 0003:0000003c       ___itt_detach_ptr__3_0     1007103c     itt_notify.obj
 0003:00000040       ?__itt__ittapi_global@@3U___itt_global@@A 10071040     itt_notify.obj
 0003:000000a4       ___itt_sync_createA_ptr__3_0 100710a4     itt_notify.obj
 0003:000000a8       ___itt_sync_createW_ptr__3_0 100710a8     itt_notify.obj
 0003:000000ac       ___itt_sync_renameA_ptr__3_0 100710ac     itt_notify.obj
 0003:000000b0       ___itt_sync_renameW_ptr__3_0 100710b0     itt_notify.obj
 0003:000000b4       ___itt_sync_destroy_ptr__3_0 100710b4     itt_notify.obj
 0003:000000b8       ___itt_sync_prepare_ptr__3_0 100710b8     itt_notify.obj
 0003:000000bc       ___itt_sync_cancel_ptr__3_0 100710bc     itt_notify.obj
 0003:000000c0       ___itt_sync_acquired_ptr__3_0 100710c0     itt_notify.obj
 0003:000000c4       ___itt_sync_releasing_ptr__3_0 100710c4     itt_notify.obj
 0003:000000c8       ___itt_suppress_push_ptr__3_0 100710c8     itt_notify.obj
 0003:000000cc       ___itt_suppress_pop_ptr__3_0 100710cc     itt_notify.obj
 0003:000000d0       ___itt_suppress_mark_range_ptr__3_0 100710d0     itt_notify.obj
 0003:000000d4       ___itt_suppress_clear_range_ptr__3_0 100710d4     itt_notify.obj
 0003:000000d8       ___itt_fsync_prepare_ptr__3_0 100710d8     itt_notify.obj
 0003:000000dc       ___itt_fsync_cancel_ptr__3_0 100710dc     itt_notify.obj
 0003:000000e0       ___itt_fsync_acquired_ptr__3_0 100710e0     itt_notify.obj
 0003:000000e4       ___itt_fsync_releasing_ptr__3_0 100710e4     itt_notify.obj
 0003:000000e8       ___itt_model_site_begin_ptr__3_0 100710e8     itt_notify.obj
 0003:000000ec       ___itt_model_site_end_ptr__3_0 100710ec     itt_notify.obj
 0003:000000f0       ___itt_model_task_begin_ptr__3_0 100710f0     itt_notify.obj
 0003:000000f4       ___itt_model_task_end_ptr__3_0 100710f4     itt_notify.obj
 0003:000000f8       ___itt_model_lock_acquire_ptr__3_0 100710f8     itt_notify.obj
 0003:000000fc       ___itt_model_lock_release_ptr__3_0 100710fc     itt_notify.obj
 0003:00000100       ___itt_model_record_allocation_ptr__3_0 10071100     itt_notify.obj
 0003:00000104       ___itt_model_record_deallocation_ptr__3_0 10071104     itt_notify.obj
 0003:00000108       ___itt_model_induction_uses_ptr__3_0 10071108     itt_notify.obj
 0003:0000010c       ___itt_model_reduction_uses_ptr__3_0 1007110c     itt_notify.obj
 0003:00000110       ___itt_model_observe_uses_ptr__3_0 10071110     itt_notify.obj
 0003:00000114       ___itt_model_clear_uses_ptr__3_0 10071114     itt_notify.obj
 0003:00000118       ___itt_model_site_beginW_ptr__3_0 10071118     itt_notify.obj
 0003:0000011c       ___itt_model_task_beginW_ptr__3_0 1007111c     itt_notify.obj
 0003:00000120       ___itt_model_iteration_taskW_ptr__3_0 10071120     itt_notify.obj
 0003:00000124       ___itt_model_site_beginA_ptr__3_0 10071124     itt_notify.obj
 0003:00000128       ___itt_model_site_beginAL_ptr__3_0 10071128     itt_notify.obj
 0003:0000012c       ___itt_model_task_beginA_ptr__3_0 1007112c     itt_notify.obj
 0003:00000130       ___itt_model_task_beginAL_ptr__3_0 10071130     itt_notify.obj
 0003:00000134       ___itt_model_iteration_taskA_ptr__3_0 10071134     itt_notify.obj
 0003:00000138       ___itt_model_iteration_taskAL_ptr__3_0 10071138     itt_notify.obj
 0003:0000013c       ___itt_model_site_end_2_ptr__3_0 1007113c     itt_notify.obj
 0003:00000140       ___itt_model_task_end_2_ptr__3_0 10071140     itt_notify.obj
 0003:00000144       ___itt_model_lock_acquire_2_ptr__3_0 10071144     itt_notify.obj
 0003:00000148       ___itt_model_lock_release_2_ptr__3_0 10071148     itt_notify.obj
 0003:0000014c       ___itt_model_aggregate_task_ptr__3_0 1007114c     itt_notify.obj
 0003:00000150       ___itt_model_disable_push_ptr__3_0 10071150     itt_notify.obj
 0003:00000154       ___itt_model_disable_pop_ptr__3_0 10071154     itt_notify.obj
 0003:00000158       ___itt_heap_function_createA_ptr__3_0 10071158     itt_notify.obj
 0003:0000015c       ___itt_heap_function_createW_ptr__3_0 1007115c     itt_notify.obj
 0003:00000160       ___itt_heap_allocate_begin_ptr__3_0 10071160     itt_notify.obj
 0003:00000164       ___itt_heap_allocate_end_ptr__3_0 10071164     itt_notify.obj
 0003:00000168       ___itt_heap_free_begin_ptr__3_0 10071168     itt_notify.obj
 0003:0000016c       ___itt_heap_free_end_ptr__3_0 1007116c     itt_notify.obj
 0003:00000170       ___itt_heap_reallocate_begin_ptr__3_0 10071170     itt_notify.obj
 0003:00000174       ___itt_heap_reallocate_end_ptr__3_0 10071174     itt_notify.obj
 0003:00000178       ___itt_heap_internal_access_begin_ptr__3_0 10071178     itt_notify.obj
 0003:0000017c       ___itt_heap_internal_access_end_ptr__3_0 1007117c     itt_notify.obj
 0003:00000180       ___itt_heap_record_memory_growth_begin_ptr__3_0 10071180     itt_notify.obj
 0003:00000184       ___itt_heap_record_memory_growth_end_ptr__3_0 10071184     itt_notify.obj
 0003:00000188       ___itt_heap_reset_detection_ptr__3_0 10071188     itt_notify.obj
 0003:0000018c       ___itt_heap_record_ptr__3_0 1007118c     itt_notify.obj
 0003:00000190       ___itt_id_create_ptr__3_0  10071190     itt_notify.obj
 0003:00000194       ___itt_id_destroy_ptr__3_0 10071194     itt_notify.obj
 0003:00000198       ___itt_get_timestamp_ptr__3_0 10071198     itt_notify.obj
 0003:0000019c       ___itt_region_begin_ptr__3_0 1007119c     itt_notify.obj
 0003:000001a0       ___itt_region_end_ptr__3_0 100711a0     itt_notify.obj
 0003:000001a4       ___itt_frame_begin_v3_ptr__3_0 100711a4     itt_notify.obj
 0003:000001a8       ___itt_frame_end_v3_ptr__3_0 100711a8     itt_notify.obj
 0003:000001ac       ___itt_frame_submit_v3_ptr__3_0 100711ac     itt_notify.obj
 0003:000001b0       ___itt_task_group_ptr__3_0 100711b0     itt_notify.obj
 0003:000001b4       ___itt_task_begin_ptr__3_0 100711b4     itt_notify.obj
 0003:000001b8       ___itt_task_begin_fn_ptr__3_0 100711b8     itt_notify.obj
 0003:000001bc       ___itt_task_end_ptr__3_0   100711bc     itt_notify.obj
 0003:000001c0       ___itt_counter_inc_v3_ptr__3_0 100711c0     itt_notify.obj
 0003:000001c4       ___itt_counter_inc_delta_v3_ptr__3_0 100711c4     itt_notify.obj
 0003:000001c8       ___itt_counter_dec_v3_ptr__3_0 100711c8     itt_notify.obj
 0003:000001cc       ___itt_counter_dec_delta_v3_ptr__3_0 100711cc     itt_notify.obj
 0003:000001d0       ___itt_marker_ptr__3_0     100711d0     itt_notify.obj
 0003:000001d4       ___itt_metadata_add_ptr__3_0 100711d4     itt_notify.obj
 0003:000001d8       ___itt_metadata_str_addA_ptr__3_0 100711d8     itt_notify.obj
 0003:000001dc       ___itt_metadata_str_addW_ptr__3_0 100711dc     itt_notify.obj
 0003:000001e0       ___itt_relation_add_to_current_ptr__3_0 100711e0     itt_notify.obj
 0003:000001e4       ___itt_relation_add_ptr__3_0 100711e4     itt_notify.obj
 0003:000001e8       ___itt_event_createA_ptr__3_0 100711e8     itt_notify.obj
 0003:000001ec       ___itt_event_createW_ptr__3_0 100711ec     itt_notify.obj
 0003:000001f0       ___itt_event_start_ptr__3_0 100711f0     itt_notify.obj
 0003:000001f4       ___itt_event_end_ptr__3_0  100711f4     itt_notify.obj
 0003:000001f8       ___itt_sync_set_nameA_ptr__3_0 100711f8     itt_notify.obj
 0003:000001fc       ___itt_sync_set_nameW_ptr__3_0 100711fc     itt_notify.obj
 0003:00000200       ___itt_notify_sync_nameA_ptr__3_0 10071200     itt_notify.obj
 0003:00000204       ___itt_notify_sync_nameW_ptr__3_0 10071204     itt_notify.obj
 0003:00000208       ___itt_notify_sync_prepare_ptr__3_0 10071208     itt_notify.obj
 0003:0000020c       ___itt_notify_sync_cancel_ptr__3_0 1007120c     itt_notify.obj
 0003:00000210       ___itt_notify_sync_acquired_ptr__3_0 10071210     itt_notify.obj
 0003:00000214       ___itt_notify_sync_releasing_ptr__3_0 10071214     itt_notify.obj
 0003:00000218       ___itt_memory_read_ptr__3_0 10071218     itt_notify.obj
 0003:0000021c       ___itt_memory_write_ptr__3_0 1007121c     itt_notify.obj
 0003:00000220       ___itt_memory_update_ptr__3_0 10071220     itt_notify.obj
 0003:00000224       ___itt_state_get_ptr__3_0  10071224     itt_notify.obj
 0003:00000228       ___itt_state_set_ptr__3_0  10071228     itt_notify.obj
 0003:0000022c       ___itt_obj_mode_set_ptr__3_0 1007122c     itt_notify.obj
 0003:00000230       ___itt_thr_mode_set_ptr__3_0 10071230     itt_notify.obj
 0003:00000234       ___itt_frame_createA_ptr__3_0 10071234     itt_notify.obj
 0003:00000238       ___itt_frame_createW_ptr__3_0 10071238     itt_notify.obj
 0003:0000023c       ___itt_pt_region_createA_ptr__3_0 1007123c     itt_notify.obj
 0003:00000240       ___itt_pt_region_createW_ptr__3_0 10071240     itt_notify.obj
 0003:00000244       ___itt_frame_begin_ptr__3_0 10071244     itt_notify.obj
 0003:00000248       ___itt_frame_end_ptr__3_0  10071248     itt_notify.obj
 0003:0000024c       ___itt_counter_destroy_ptr__3_0 1007124c     itt_notify.obj
 0003:00000250       ___itt_counter_inc_ptr__3_0 10071250     itt_notify.obj
 0003:00000254       ___itt_counter_inc_delta_ptr__3_0 10071254     itt_notify.obj
 0003:00000258       ___itt_counter_dec_ptr__3_0 10071258     itt_notify.obj
 0003:0000025c       ___itt_counter_dec_delta_ptr__3_0 1007125c     itt_notify.obj
 0003:00000260       ___itt_counter_set_value_ptr__3_0 10071260     itt_notify.obj
 0003:00000264       ___itt_counter_set_value_ex_ptr__3_0 10071264     itt_notify.obj
 0003:00000268       ___itt_mark_createA_ptr__3_0 10071268     itt_notify.obj
 0003:0000026c       ___itt_mark_createW_ptr__3_0 1007126c     itt_notify.obj
 0003:00000270       ___itt_markA_ptr__3_0      10071270     itt_notify.obj
 0003:00000274       ___itt_markW_ptr__3_0      10071274     itt_notify.obj
 0003:00000278       ___itt_mark_off_ptr__3_0   10071278     itt_notify.obj
 0003:0000027c       ___itt_mark_globalA_ptr__3_0 1007127c     itt_notify.obj
 0003:00000280       ___itt_mark_globalW_ptr__3_0 10071280     itt_notify.obj
 0003:00000284       ___itt_mark_global_off_ptr__3_0 10071284     itt_notify.obj
 0003:00000288       ___itt_stack_caller_create_ptr__3_0 10071288     itt_notify.obj
 0003:0000028c       ___itt_stack_caller_destroy_ptr__3_0 1007128c     itt_notify.obj
 0003:00000290       ___itt_stack_callee_enter_ptr__3_0 10071290     itt_notify.obj
 0003:00000294       ___itt_stack_callee_leave_ptr__3_0 10071294     itt_notify.obj
 0003:00000298       ___itt_clock_domain_create_ptr__3_0 10071298     itt_notify.obj
 0003:0000029c       ___itt_clock_domain_reset_ptr__3_0 1007129c     itt_notify.obj
 0003:000002a0       ___itt_id_create_ex_ptr__3_0 100712a0     itt_notify.obj
 0003:000002a4       ___itt_id_destroy_ex_ptr__3_0 100712a4     itt_notify.obj
 0003:000002a8       ___itt_task_begin_ex_ptr__3_0 100712a8     itt_notify.obj
 0003:000002ac       ___itt_task_begin_fn_ex_ptr__3_0 100712ac     itt_notify.obj
 0003:000002b0       ___itt_task_end_ex_ptr__3_0 100712b0     itt_notify.obj
 0003:000002b4       ___itt_task_begin_overlapped_ptr__3_0 100712b4     itt_notify.obj
 0003:000002b8       ___itt_task_begin_overlapped_ex_ptr__3_0 100712b8     itt_notify.obj
 0003:000002bc       ___itt_task_end_overlapped_ptr__3_0 100712bc     itt_notify.obj
 0003:000002c0       ___itt_task_end_overlapped_ex_ptr__3_0 100712c0     itt_notify.obj
 0003:000002c4       ___itt_marker_ex_ptr__3_0  100712c4     itt_notify.obj
 0003:000002c8       ___itt_metadata_add_with_scope_ptr__3_0 100712c8     itt_notify.obj
 0003:000002cc       ___itt_metadata_str_add_with_scopeA_ptr__3_0 100712cc     itt_notify.obj
 0003:000002d0       ___itt_metadata_str_add_with_scopeW_ptr__3_0 100712d0     itt_notify.obj
 0003:000002d4       ___itt_relation_add_to_current_ex_ptr__3_0 100712d4     itt_notify.obj
 0003:000002d8       ___itt_relation_add_ex_ptr__3_0 100712d8     itt_notify.obj
 0003:000002dc       ___itt_track_group_create_ptr__3_0 100712dc     itt_notify.obj
 0003:000002e0       ___itt_track_create_ptr__3_0 100712e0     itt_notify.obj
 0003:000002e4       ___itt_set_track_ptr__3_0  100712e4     itt_notify.obj
 0003:000002e8       ___itt_api_version_ptr__3_0 100712e8     itt_notify.obj
 0003:000002ec       ___itt_av_saveA_ptr__3_0   100712ec     itt_notify.obj
 0003:000002f0       ___itt_av_saveW_ptr__3_0   100712f0     itt_notify.obj
 0003:000002f4       ___itt_module_loadA_ptr__3_0 100712f4     itt_notify.obj
 0003:000002f8       ___itt_module_loadW_ptr__3_0 100712f8     itt_notify.obj
 0003:000002fc       ___itt_domain_createA_ptr__3_0 100712fc     itt_notify.obj
 0003:00000300       ___itt_domain_createW_ptr__3_0 10071300     itt_notify.obj
 0003:00000304       ___itt_string_handle_createA_ptr__3_0 10071304     itt_notify.obj
 0003:00000308       ___itt_string_handle_createW_ptr__3_0 10071308     itt_notify.obj
 0003:0000030c       ___itt_counter_createA_ptr__3_0 1007130c     itt_notify.obj
 0003:00000310       ___itt_counter_createW_ptr__3_0 10071310     itt_notify.obj
 0003:00000314       ___itt_counter_create_typedA_ptr__3_0 10071314     itt_notify.obj
 0003:00000318       ___itt_counter_create_typedW_ptr__3_0 10071318     itt_notify.obj
 0003:0000031c       ___itt_pause_ptr__3_0      1007131c     itt_notify.obj
 0003:00000320       ___itt_resume_ptr__3_0     10071320     itt_notify.obj
 0003:00000324       ___itt_thread_set_nameA_ptr__3_0 10071324     itt_notify.obj
 0003:00000328       ___itt_thread_set_nameW_ptr__3_0 10071328     itt_notify.obj
 0003:0000032c       ___itt_thread_ignore_ptr__3_0 1007132c     itt_notify.obj
 0003:00000330       ___itt_thr_name_setA_ptr__3_0 10071330     itt_notify.obj
 0003:00000334       ___itt_thr_name_setW_ptr__3_0 10071334     itt_notify.obj
 0003:00000338       ___itt_thr_ignore_ptr__3_0 10071338     itt_notify.obj
 0003:0000033c       ___itt_enable_attach_ptr__3_0 1007133c     itt_notify.obj
 0003:00001154       ?NumGroups@ProcessorGroupInfo@internal@tbb@@2HA 10072154     tbb_misc_ex.obj
 0003:0000115c       ?msg@?1??assert_context_valid@generic_scheduler@internal@tbb@@SAXPBVtask_group_context@4@@Z@4PBDB 1007215c     arena.obj
 0003:00001350       ___security_cookie_complement 10072350     MSVCRTD:gs_cookie.obj
 0003:00001354       ___security_cookie         10072354     MSVCRTD:gs_cookie.obj
 0003:00001360       __fltused                  10072360     MSVCRTD:fltused.obj
 0003:00001370       __Init_global_epoch        10072370     MSVCRTD:thread_safe_statics.obj
 0003:00001374       ___scrt_native_dllmain_reason 10072374     MSVCRTD:utility.obj
 0003:00001378       ?_RTC_ErrorLevels@@3PAHA   10072378     MSVCRTD:error.obj
 0003:0000138c       ___isa_enabled             1007238c     MSVCRTD:cpu_disp.obj
 0003:00001390       ___scrt_ucrt_dll_is_in_use 10072390     MSVCRTD:ucrt_stubs.obj
 0003:00001398       ??_R0?AVuser_abort@tbb@@@8 10072398     concurrent_queue.obj
 0003:000013b8       ??_R0?AVconcurrent_queue_base_v3@internal@tbb@@@8 100723b8     concurrent_queue.obj
 0003:000013ec       ??_R0?AVno_copy@internal@tbb@@@8 100723ec     concurrent_queue.obj
 0003:00001410       ??_R0?AVno_assign@internal@tbb@@@8 10072410     concurrent_queue.obj
 0003:00001438       ??_R0?AVtask@tbb@@@8       10072438     pipeline.obj
 0003:00001450       ??_R0?AVtask_base@internal@interface5@tbb@@@8 10072450     pipeline.obj
 0003:00001480       ??_R0?AVpipeline@tbb@@@8   10072480     pipeline.obj
 0003:0000149c       ??_R0?AVfilter@tbb@@@8     1007249c     pipeline.obj
 0003:000014b8       ??_R0?AVstage_task@internal@tbb@@@8 100724b8     pipeline.obj
 0003:000014e0       ??_R0?AUtask_info@internal@tbb@@@8 100724e0     pipeline.obj
 0003:00001508       ??_R0?AVpipeline_root_task@internal@tbb@@@8 10072508     pipeline.obj
 0003:00001538       ??_R0?AVserver@rml@@@8     10072538     private_server.obj
 0003:00001554       ??_R0?AVversioned_object@rml@@@8 10072554     private_server.obj
 0003:00001578       ??_R0?AVtbb_server@rml@internal@tbb@@@8 10072578     private_server.obj
 0003:000015a4       ??_R0?AVprivate_server@rml@internal@tbb@@@8 100725a4     private_server.obj
 0003:000015d4       ??_R0?AVbad_alloc@std@@@8  100725d4     tbb_misc.obj
 0003:000015f0       ??_R0?AVexception@std@@@8  100725f0     tbb_misc.obj
 0003:0000160c       ??_R0?AVrange_error@std@@@8 1007260c     tbb_misc.obj
 0003:0000162c       ??_R0?AVruntime_error@std@@@8 1007262c     tbb_misc.obj
 0003:0000164c       ??_R0?AVbad_last_alloc@tbb@@@8 1007264c     tbb_misc.obj
 0003:00001670       ??_R0?AVinvalid_argument@std@@@8 10072670     tbb_misc.obj
 0003:00001694       ??_R0?AVlogic_error@std@@@8 10072694     tbb_misc.obj
 0003:000016b4       ??_R0?AVout_of_range@std@@@8 100726b4     tbb_misc.obj
 0003:000016d4       ??_R0?AVmissing_wait@tbb@@@8 100726d4     tbb_misc.obj
 0003:000016f4       ??_R0?AVinvalid_multiple_scheduling@tbb@@@8 100726f4     tbb_misc.obj
 0003:00001724       ??_R0?AVimproper_lock@tbb@@@8 10072724     tbb_misc.obj
 0003:00001744       ??_R0?AVlength_error@std@@@8 10072744     tbb_misc.obj
 0003:00001764       ??_R0?AVcaptured_exception@tbb@@@8 10072764     task_group_context.obj
 0003:0000178c       ??_R0?AVtbb_exception@tbb@@@8 1007278c     task_group_context.obj
 0003:000017ac       ??_R0?AVmarket@internal@tbb@@@8 100727ac     market.obj
 0003:000017d0       ??_R0?AVtbb_client@rml@internal@tbb@@@8 100727d0     market.obj
 0003:000017fc       ??_R0?AVclient@rml@@@8     100727fc     market.obj
 0003:00001818       ??_R0?AVdelegate_base@internal@interface7@tbb@@@8 10072818     arena.obj
 0003:00001850       ??_R0?AV?$delegated_function@Vspawn_functor@graph@interface10@flow@tbb@@X@internal@interface7@tbb@@@8 10072850     arena.obj
 0003:000018b8       ??_R0?AVempty_task@tbb@@@8 100728b8     arena.obj
 0003:000018d8       ??_R0?AVdelegated_task@internal@interface7@tbb@@@8 100728d8     arena.obj
 0003:00001910       ??_R0?AVwait_task@internal@interface7@tbb@@@8 10072910     arena.obj
 0003:00001940       ??_R0?AVtask_scheduler_observer_v3@internal@tbb@@@8 10072940     arena.obj
 0003:00001978       ??_R0?AVtask_scheduler_observer@interface6@tbb@@@8 10072978     arena.obj
 0003:000019b0       ??_R0?AVnuma_binding_observer@internal@tbb@@@8 100729b0     arena.obj
 0003:000019e8       ??_R0?AV?$function_task@Vspawn_functor@graph@interface10@flow@tbb@@@internal@tbb@@@8 100729e8     arena.obj
 0003:00001a40       ??_R0?AVscheduler@internal@tbb@@@8 10072a40     scheduler.obj
 0003:00001a68       ??_R0?AVgeneric_scheduler@internal@tbb@@@8 10072a68     scheduler.obj
 0003:00001a98       ??_R0?AVjob@rml@@@8        10072a98     scheduler.obj
 0003:00001ab0       ??_R0?AUintrusive_list_node@internal@tbb@@@8 10072ab0     scheduler.obj
 0003:00001ae0       ??_R0?AUscheduler_state@internal@tbb@@@8 10072ae0     scheduler.obj
 0003:00001b10       ??_R0?AV?$custom_scheduler@UDefaultSchedulerTraits@internal@tbb@@@internal@tbb@@@8 10072b10     scheduler.obj
 0003:00001b68       ??_R0?AV?$custom_scheduler@UIntelSchedulerTraits@internal@tbb@@@internal@tbb@@@8 10072b68     scheduler.obj
 0003:00001bbc       ??_R0?AVcontrol_storage@internal@tbb@@@8 10072bbc     tbb_main.obj
 0003:00001be8       ??_R0?AVallowed_parallelism_control@internal@tbb@@@8 10072be8     tbb_main.obj
 0003:00001c20       ??_R0?AU?$padded@Vcontrol_storage@internal@tbb@@$0IA@@internal@tbb@@@8 10072c20     tbb_main.obj
 0003:00001c70       ??_R0?AU?$padded_base@Vcontrol_storage@internal@tbb@@$0IA@$0BA@@internal@tbb@@@8 10072c70     tbb_main.obj
 0003:00001cc4       ??_R0?AVstack_size_control@internal@tbb@@@8 10072cc4     tbb_main.obj
 0003:00001cf4       ??_R0?AVconcurrent_queue_base@internal@tbb@@@8 10072cf4     concurrent_queue_v2.obj
 0003:00001d28       ??_R0?AVtype_info@@@8      10072d28     MSVCRTD:std_type_info_static.obj
 0003:00001d40       ??_R0?AVbad_array_new_length@std@@@8 10072d40     MSVCRTD:throw_bad_alloc.obj
 0003:00001d70       ?handles@internal@tbb@@3Uhandles_t@12@A 10072d70     dynamic_link.obj
 0003:00001d94       ?init_dl_data_state@internal@tbb@@3U?$atomic@W4do_once_state@internal@tbb@@@2@A 10072d94     dynamic_link.obj
 0003:00002eb8       ?_OptionsStorage@?1??__local_stdio_printf_options@@9@4_KA 10073eb8     private_server.obj
 0003:00002ee0       ?HoleIndex@ProcessorGroupInfo@internal@tbb@@2HA 10073ee0     tbb_misc_ex.obj
 0003:00002ee8       ?theProcessorGroups@internal@tbb@@3PAUProcessorGroupInfo@12@A 10073ee8     tbb_misc_ex.obj
 0003:00003230       ?the_context_state_propagation_epoch@internal@tbb@@3IA 10074230     scheduler.obj
 0003:00003234       ?the_context_state_propagation_mutex@internal@tbb@@3Vspin_mutex@2@A 10074234     scheduler.obj
 0003:00003338       ?the_global_observer_list@internal@tbb@@3U?$padded@Vobserver_list@internal@tbb@@$0IA@@12@A 10074338     observer_proxy.obj
 0003:000033c0       ?theMarket@market@internal@tbb@@0PAV123@A 100743c0     tbb_main.obj
 0003:000033c4       ?AllocateSchedulerPtr@internal@tbb@@3P6APAVgeneric_scheduler@12@AAVmarket@12@_N@ZA 100743c4     tbb_main.obj
 0003:000033c8       ?theTLS@governor@internal@tbb@@0V?$basic_tls@I@23@A 100743c8     tbb_main.obj
 0003:000033cc       ?DefaultNumberOfThreads@governor@internal@tbb@@0IA 100743cc     tbb_main.obj
 0003:000033d0       ?DefaultPageSize@governor@internal@tbb@@0IA 100743d0     tbb_main.obj
 0003:000033d4       ?theRMLServerFactory@governor@internal@tbb@@0Vtbb_factory@rml@23@A 100743d4     tbb_main.obj
 0003:000033e8       ?UsePrivateRML@governor@internal@tbb@@0_NA 100743e8     tbb_main.obj
 0003:000033e9       ?is_speculation_enabled@governor@internal@tbb@@0_NA 100743e9     tbb_main.obj
 0003:000033ea       ?is_rethrow_broken@governor@internal@tbb@@0_NA 100743ea     tbb_main.obj
 0003:000033eb       ?InitializationDone@__TBB_InitOnce@internal@tbb@@0_NA 100743eb     tbb_main.obj
 0003:000033ec       ?count@__TBB_InitOnce@internal@tbb@@0U?$atomic@H@3@A 100743ec     tbb_main.obj
 0003:000033f0       ?InitializationLock@__TBB_InitOnce@internal@tbb@@0EA 100743f0     tbb_main.obj
 0003:000033f1       ?theMarketMutex@market@internal@tbb@@0Vspin_mutex@3@A 100743f1     tbb_main.obj
 0003:00003828       ?__type_info_root_node@@3U__type_info_node@@A 10074828     MSVCRTD:tncleanup.obj
 0003:00003858       __tls_index                10074858     MSVCRTD:tlssup.obj
 0003:0000385c       ___scrt_current_native_startup_state 1007485c     MSVCRTD:utility.obj
 0003:00003860       ___scrt_native_startup_lock 10074860     MSVCRTD:utility.obj
 0003:0000388c       ___isa_available           1007488c     MSVCRTD:cpu_disp.obj
 0003:00003890       ___favor                   10074890     MSVCRTD:cpu_disp.obj
 0003:00003894       ___scrt_debugger_hook_flag 10074894     MSVCRTD:utility_desktop.obj
 0003:00003898       ?_OptionsStorage@?1??__local_stdio_scanf_options@@9@4_KA 10074898     MSVCRTD:default_local_stdio_options.obj
 0003:000038a8       ___dyn_tls_init_callback   100748a8     <common>

 entry point at        0001:000435a0

 Static symbols

 0000:fff85000       .debug$S                   10000000     tbb_debug.exp
 0002:fffb8000       __ehfuncinfo$??1circular_doubly_linked_list_with_sentinel@internal@tbb@@QAE@XZ 10000000     arena.obj
 0002:fffb8000       __ehfuncinfo$??1scoped_lock@spin_mutex@tbb@@QAE@XZ 10000000     arena.obj
 0002:fffb8000       __ehfuncinfo$??1thread_context@concurrent_monitor@internal@tbb@@QAE@XZ 10000000     arena.obj
 0002:fffb8000       __ehfuncinfo$??3@YAXPAXABVallocate_root_with_context_proxy@internal@tbb@@@Z 10000000     arena.obj
 0001:fffff000       __ehhandler$??1circular_doubly_linked_list_with_sentinel@internal@tbb@@QAE@XZ 10000000 f   arena.obj
 0001:fffff000       __ehhandler$??1scoped_lock@spin_mutex@tbb@@QAE@XZ 10000000 f   arena.obj
 0001:fffff000       __ehhandler$??1thread_context@concurrent_monitor@internal@tbb@@QAE@XZ 10000000 f   arena.obj
 0001:fffff000       __ehhandler$??3@YAXPAXABVallocate_root_with_context_proxy@internal@tbb@@@Z 10000000 f   arena.obj
 0001:fffff000       __unwindfunclet$??0concurrent_monitor@internal@tbb@@QAE@XZ$0 10000000 f   arena.obj
 0002:fffb8000       __unwindtable$??0concurrent_monitor@internal@tbb@@QAE@XZ 10000000     arena.obj
 0002:fffb8000       __ehfuncinfo$??1circular_doubly_linked_list_with_sentinel@internal@tbb@@QAE@XZ 10000000     concurrent_monitor.obj
 0002:fffb8000       __ehfuncinfo$??1scoped_lock@spin_mutex@tbb@@QAE@XZ 10000000     concurrent_monitor.obj
 0001:fffff000       __ehhandler$??1circular_doubly_linked_list_with_sentinel@internal@tbb@@QAE@XZ 10000000 f   concurrent_monitor.obj
 0001:fffff000       __ehhandler$??1scoped_lock@spin_mutex@tbb@@QAE@XZ 10000000 f   concurrent_monitor.obj
 0002:fffb8000       __ehfuncinfo$??1scoped_lock@spin_mutex@tbb@@QAE@XZ 10000000     concurrent_queue_v2.obj
 0001:fffff000       __ehhandler$??1scoped_lock@spin_mutex@tbb@@QAE@XZ 10000000 f   concurrent_queue_v2.obj
 0002:fffb8000       __ehfuncinfo$??1scoped_lock@spin_mutex@tbb@@QAE@XZ 10000000     market.obj
 0001:fffff000       __ehhandler$??1scoped_lock@spin_mutex@tbb@@QAE@XZ 10000000 f   market.obj
 0002:fffb8000       __ehfuncinfo$??1scoped_lock@spin_rw_mutex_v3@tbb@@QAE@XZ 10000000     observer_proxy.obj
 0001:fffff000       __ehhandler$??1scoped_lock@spin_rw_mutex_v3@tbb@@QAE@XZ 10000000 f   observer_proxy.obj
 0002:fffb8000       __ehfuncinfo$??1scoped_lock@spin_mutex@tbb@@QAE@XZ 10000000     pipeline.obj
 0001:fffff000       __ehhandler$??1scoped_lock@spin_mutex@tbb@@QAE@XZ 10000000 f   pipeline.obj
 0002:fffb8000       __ehfuncinfo$??1scoped_lock@spin_mutex@tbb@@QAE@XZ 10000000     private_server.obj
 0001:fffff000       __ehhandler$??1scoped_lock@spin_mutex@tbb@@QAE@XZ 10000000 f   private_server.obj
 0002:fffb8000       __ehfuncinfo$??1?$context_guard_helper@$0A@@internal@tbb@@QAE@XZ 10000000     scheduler.obj
 0002:fffb8000       __ehfuncinfo$??1auto_empty_task@internal@tbb@@QAE@XZ 10000000     scheduler.obj
 0002:fffb8000       __ehfuncinfo$??1scoped_lock@spin_mutex@tbb@@QAE@XZ 10000000     scheduler.obj
 0001:fffff000       __ehhandler$??1?$context_guard_helper@$0A@@internal@tbb@@QAE@XZ 10000000 f   scheduler.obj
 0001:fffff000       __ehhandler$??1auto_empty_task@internal@tbb@@QAE@XZ 10000000 f   scheduler.obj
 0001:fffff000       __ehhandler$??1scoped_lock@spin_mutex@tbb@@QAE@XZ 10000000 f   scheduler.obj
 0001:fffff000       __unwindfunclet$?rethrow_exception@std@@YAXVexception_ptr@1@@Z$0 10000000 f   scheduler.obj
 0002:fffb8000       __unwindtable$?rethrow_exception@std@@YAXVexception_ptr@1@@Z 10000000     scheduler.obj
 0002:fffb8000       __ehfuncinfo$??1scoped_lock@spin_mutex@tbb@@QAE@XZ 10000000     task_group_context.obj
 0001:fffff000       __ehhandler$??1scoped_lock@spin_mutex@tbb@@QAE@XZ 10000000 f   task_group_context.obj
 0002:fffb8000       __ehfuncinfo$??1scoped_lock@spin_mutex@tbb@@QAE@XZ 10000000     tbb_main.obj
 0001:fffff000       __ehhandler$??1scoped_lock@spin_mutex@tbb@@QAE@XZ 10000000 f   tbb_main.obj
 0002:fffb8000       __guard_fids___except_handler4 10000000     MSVCRTD:chandler4gs.obj
 0002:fffb8000       __guard_fids_?dllmain_dispatch@@YAHQAUHINSTANCE__@@KQAX@Z 10000000     MSVCRTD:dll_dllmain.obj
 0002:fffb8000       __guard_fids__             10000000     MSVCRTD:guard_support.obj
 0002:fffb8000       __guard_fids__             10000000     MSVCRTD:guard_support.obj
 0002:fffb8000       __guard_fids___guard_icall_checks_enforced 10000000     MSVCRTD:guard_support.obj
 0002:fffb8000       __guard_fids___CRT_RTC_INIT 10000000     MSVCRTD:init.obj
 0002:fffb8000       __guard_fids___CRT_RTC_INITW 10000000     MSVCRTD:init.obj
 0002:fffb8000       __guard_fids__             10000000     MSVCRTD:std_type_info_static.obj
 0002:fffb8000       __guard_fids_?__scrt_initialize_thread_safe_statics@@YAHXZ 10000000     MSVCRTD:thread_safe_statics.obj
 0002:fffb8000       __guard_fids__             10000000     MSVCRTD:thread_safe_statics.obj
 0002:fffb8000       __guard_fids__             10000000     MSVCRTD:throw_bad_alloc.obj
 0002:fffb8000       __guard_fids__             10000000     MSVCRTD:throw_bad_alloc.obj
 0002:fffb8000       __guard_fids__             10000000     MSVCRTD:throw_bad_alloc.obj
 0002:fffb8000       __guard_fids__             10000000     MSVCRTD:throw_bad_alloc.obj
 0002:fffb8000       __guard_fids__             10000000     MSVCRTD:throw_bad_alloc.obj
 0002:fffb8000       __guard_fids__             10000000     MSVCRTD:throw_bad_alloc.obj
 0002:fffb8000       __guard_fids__             10000000     MSVCRTD:throw_bad_alloc.obj
 0002:fffb8000       __guard_fids__             10000000     MSVCRTD:throw_bad_alloc.obj
 0002:fffb8000       __guard_fids____scrt_set_unhandled_exception_filter 10000000     MSVCRTD:utility_desktop.obj
 0000:fff85000       .debug$S                   10000000     msvcprtd:MSVCP140D.dll
 0000:fff85000       .debug$S                   10000000     msvcprtd:MSVCP140D.dll
 0000:fff85000       .debug$S                   10000000     msvcprtd:MSVCP140D.dll
 0000:fff85000       .debug$S                   10000000     msvcprtd:MSVCP140D.dll
 0000:fff85000       .debug$S                   10000000     msvcprtd:MSVCP140D.dll
 0000:fff85000       .debug$S                   10000000     msvcprtd:MSVCP140D.dll
 0000:fff85000       .debug$S                   10000000     msvcprtd:MSVCP140D.dll
 0000:fff85000       .debug$S                   10000000     msvcprtd:MSVCP140D.dll
 0000:fff85000       .debug$S                   10000000     msvcprtd:MSVCP140D.dll
 0000:fff85000       .debug$S                   10000000     vcruntimed:VCRUNTIME140D.dll
 0000:fff85000       .debug$S                   10000000     vcruntimed:VCRUNTIME140D.dll
 0000:fff85000       .debug$S                   10000000     vcruntimed:VCRUNTIME140D.dll
 0000:fff85000       .debug$S                   10000000     vcruntimed:VCRUNTIME140D.dll
 0000:fff85000       .debug$S                   10000000     vcruntimed:VCRUNTIME140D.dll
 0000:fff85000       .debug$S                   10000000     vcruntimed:VCRUNTIME140D.dll
 0000:fff85000       .debug$S                   10000000     vcruntimed:VCRUNTIME140D.dll
 0000:fff85000       .debug$S                   10000000     vcruntimed:VCRUNTIME140D.dll
 0000:fff85000       .debug$S                   10000000     vcruntimed:VCRUNTIME140D.dll
 0000:fff85000       .debug$S                   10000000     vcruntimed:VCRUNTIME140D.dll
 0000:fff85000       .debug$S                   10000000     vcruntimed:VCRUNTIME140D.dll
 0000:fff85000       .debug$S                   10000000     vcruntimed:VCRUNTIME140D.dll
 0000:fff85000       .debug$S                   10000000     vcruntimed:VCRUNTIME140D.dll
 0000:fff85000       .debug$S                   10000000     vcruntimed:VCRUNTIME140D.dll
 0000:fff85000       .debug$S                   10000000     vcruntimed:VCRUNTIME140D.dll
 0000:fff85000       .debug$S                   10000000     vcruntimed:VCRUNTIME140D.dll
 0000:fff85000       .debug$S                   10000000     vcruntimed:VCRUNTIME140D.dll
 0000:fff85000       .debug$S                   10000000     vcruntimed:VCRUNTIME140D.dll
 0000:fff85000       .debug$S                   10000000     vcruntimed:VCRUNTIME140D.dll
 0000:fff85000       .debug$S                   10000000     ucrtd:ucrtbased.dll
 0000:fff85000       .debug$S                   10000000     ucrtd:ucrtbased.dll
 0000:fff85000       .debug$S                   10000000     ucrtd:ucrtbased.dll
 0000:fff85000       .debug$S                   10000000     ucrtd:ucrtbased.dll
 0000:fff85000       .debug$S                   10000000     ucrtd:ucrtbased.dll
 0000:fff85000       .debug$S                   10000000     ucrtd:ucrtbased.dll
 0000:fff85000       .debug$S                   10000000     ucrtd:ucrtbased.dll
 0000:fff85000       .debug$S                   10000000     ucrtd:ucrtbased.dll
 0000:fff85000       .debug$S                   10000000     ucrtd:ucrtbased.dll
 0000:fff85000       .debug$S                   10000000     ucrtd:ucrtbased.dll
 0000:fff85000       .debug$S                   10000000     ucrtd:ucrtbased.dll
 0000:fff85000       .debug$S                   10000000     ucrtd:ucrtbased.dll
 0000:fff85000       .debug$S                   10000000     ucrtd:ucrtbased.dll
 0000:fff85000       .debug$S                   10000000     ucrtd:ucrtbased.dll
 0000:fff85000       .debug$S                   10000000     ucrtd:ucrtbased.dll
 0000:fff85000       .debug$S                   10000000     ucrtd:ucrtbased.dll
 0000:fff85000       .debug$S                   10000000     ucrtd:ucrtbased.dll
 0000:fff85000       .debug$S                   10000000     ucrtd:ucrtbased.dll
 0000:fff85000       .debug$S                   10000000     ucrtd:ucrtbased.dll
 0000:fff85000       .debug$S                   10000000     ucrtd:ucrtbased.dll
 0000:fff85000       .debug$S                   10000000     ucrtd:ucrtbased.dll
 0000:fff85000       .debug$S                   10000000     ucrtd:ucrtbased.dll
 0000:fff85000       .debug$S                   10000000     ucrtd:ucrtbased.dll
 0000:fff85000       .debug$S                   10000000     ucrtd:ucrtbased.dll
 0000:fff85000       .debug$S                   10000000     ucrtd:ucrtbased.dll
 0000:fff85000       .debug$S                   10000000     ucrtd:ucrtbased.dll
 0000:fff85000       .debug$S                   10000000     ucrtd:ucrtbased.dll
 0000:fff85000       .debug$S                   10000000     ucrtd:ucrtbased.dll
 0000:fff85000       .debug$S                   10000000     ucrtd:ucrtbased.dll
 0000:fff85000       .debug$S                   10000000     ucrtd:ucrtbased.dll
 0000:fff85000       .debug$S                   10000000     ucrtd:ucrtbased.dll
 0000:fff85000       .debug$S                   10000000     ucrtd:ucrtbased.dll
 0000:fff85000       .debug$S                   10000000     ucrtd:ucrtbased.dll
 0000:fff85000       .debug$S                   10000000     ucrtd:ucrtbased.dll
 0000:fff85000       .debug$S                   10000000     ucrtd:ucrtbased.dll
 0000:fff85000       .debug$S                   10000000     ucrtd:ucrtbased.dll
 0000:fff85000       .debug$S                   10000000     ucrtd:ucrtbased.dll
 0000:fff85000       .debug$S                   10000000     ucrtd:ucrtbased.dll
 0000:fff85000       .debug$S                   10000000     ucrtd:ucrtbased.dll
 0000:fff85000       .debug$S                   10000000     ucrtd:ucrtbased.dll
 0000:fff85000       .debug$S                   10000000     ucrtd:ucrtbased.dll
 0000:fff85000       .debug$S                   10000000     ucrtd:ucrtbased.dll
 0000:fff85000       .debug$S                   10000000     ucrtd:ucrtbased.dll
 0000:fff85000       .debug$S                   10000000     ucrtd:ucrtbased.dll
 0000:fff85000       .debug$S                   10000000     kernel32:KERNEL32.dll
 0000:fff85000       .debug$S                   10000000     kernel32:KERNEL32.dll
 0000:fff85000       .debug$S                   10000000     kernel32:KERNEL32.dll
 0000:fff85000       .debug$S                   10000000     kernel32:KERNEL32.dll
 0000:fff85000       .debug$S                   10000000     kernel32:KERNEL32.dll
 0000:fff85000       .debug$S                   10000000     kernel32:KERNEL32.dll
 0000:fff85000       .debug$S                   10000000     kernel32:KERNEL32.dll
 0000:fff85000       .debug$S                   10000000     kernel32:KERNEL32.dll
 0000:fff85000       .debug$S                   10000000     kernel32:KERNEL32.dll
 0000:fff85000       .debug$S                   10000000     kernel32:KERNEL32.dll
 0000:fff85000       .debug$S                   10000000     kernel32:KERNEL32.dll
 0000:fff85000       .debug$S                   10000000     kernel32:KERNEL32.dll
 0000:fff85000       .debug$S                   10000000     kernel32:KERNEL32.dll
 0000:fff85000       .debug$S                   10000000     kernel32:KERNEL32.dll
 0000:fff85000       .debug$S                   10000000     kernel32:KERNEL32.dll
 0000:fff85000       .debug$S                   10000000     kernel32:KERNEL32.dll
 0000:fff85000       .debug$S                   10000000     kernel32:KERNEL32.dll
 0000:fff85000       .debug$S                   10000000     kernel32:KERNEL32.dll
 0000:fff85000       .debug$S                   10000000     kernel32:KERNEL32.dll
 0000:fff85000       .debug$S                   10000000     kernel32:KERNEL32.dll
 0000:fff85000       .debug$S                   10000000     kernel32:KERNEL32.dll
 0000:fff85000       .debug$S                   10000000     kernel32:KERNEL32.dll
 0000:fff85000       .debug$S                   10000000     kernel32:KERNEL32.dll
 0000:fff85000       .debug$S                   10000000     kernel32:KERNEL32.dll
 0000:fff85000       .debug$S                   10000000     kernel32:KERNEL32.dll
 0000:fff85000       .debug$S                   10000000     kernel32:KERNEL32.dll
 0000:fff85000       .debug$S                   10000000     kernel32:KERNEL32.dll
 0000:fff85000       .debug$S                   10000000     kernel32:KERNEL32.dll
 0000:fff85000       .debug$S                   10000000     kernel32:KERNEL32.dll
 0000:fff85000       .debug$S                   10000000     kernel32:KERNEL32.dll
 0000:fff85000       .debug$S                   10000000     kernel32:KERNEL32.dll
 0000:fff85000       .debug$S                   10000000     kernel32:KERNEL32.dll
 0000:fff85000       .debug$S                   10000000     kernel32:KERNEL32.dll
 0000:fff85000       .debug$S                   10000000     kernel32:KERNEL32.dll
 0000:fff85000       .debug$S                   10000000     kernel32:KERNEL32.dll
 0000:fff85000       .debug$S                   10000000     kernel32:KERNEL32.dll
 0000:fff85000       .debug$S                   10000000     kernel32:KERNEL32.dll
 0000:fff85000       .debug$S                   10000000     kernel32:KERNEL32.dll
 0000:fff85000       .debug$S                   10000000     kernel32:KERNEL32.dll
 0000:fff85000       .debug$S                   10000000     kernel32:KERNEL32.dll
 0000:fff85000       .debug$S                   10000000     kernel32:KERNEL32.dll
 0000:fff85000       .debug$S                   10000000     kernel32:KERNEL32.dll
 0000:fff85000       .debug$S                   10000000     kernel32:KERNEL32.dll
 0000:fff85000       .debug$S                   10000000     kernel32:KERNEL32.dll
 0000:fff85000       .debug$S                   10000000     kernel32:KERNEL32.dll
 0000:fff85000       .debug$S                   10000000     kernel32:KERNEL32.dll
 0000:fff85000       .debug$S                   10000000     kernel32:KERNEL32.dll
 0000:fff85000       .debug$S                   10000000     kernel32:KERNEL32.dll
 0000:fff85000       .debug$S                   10000000     kernel32:KERNEL32.dll
 0000:fff85000       .debug$S                   10000000     kernel32:KERNEL32.dll
 0000:fff85000       .debug$S                   10000000     kernel32:KERNEL32.dll
 0000:fff85000       .debug$S                   10000000     kernel32:KERNEL32.dll
 0000:fff85000       .debug$S                   10000000     kernel32:KERNEL32.dll
 0000:fff85000       .debug$S                   10000000     kernel32:KERNEL32.dll
 0000:fff85000       .debug$S                   10000000     kernel32:KERNEL32.dll
 0000:fff85000       .debug$S                   10000000     kernel32:KERNEL32.dll
 0000:fff85000       .debug$S                   10000000     kernel32:KERNEL32.dll
 0002:fffb8008       __ehfuncinfo$??0concurrent_monitor@internal@tbb@@QAE@XZ 10000008     arena.obj
 0002:fffb8008       __ehfuncinfo$?rethrow_exception@std@@YAXVexception_ptr@1@@Z 10000008     scheduler.obj
 0001:fffff00d       __ehhandler$?rethrow_exception@std@@YAXVexception_ptr@1@@Z 1000000d f   scheduler.obj
 0001:fffff010       __ehhandler$??0concurrent_monitor@internal@tbb@@QAE@XZ 10000010 f   arena.obj
 0001:fffff04c       $LN5                       1000004c     arena.obj
 0001:fffff04c       $LN5                       1000004c     arena.obj
 0001:fffff04c       $LN5                       1000004c     cache_aligned_allocator.obj
 0001:fffff04c       $LN5                       1000004c     concurrent_monitor.obj
 0001:fffff04c       $LN5                       1000004c     concurrent_queue.obj
 0001:fffff04c       $LN5                       1000004c     concurrent_queue_v2.obj
 0001:fffff04c       $LN5                       1000004c     concurrent_vector.obj
 0001:fffff04c       $LN5                       1000004c     concurrent_vector_v2.obj
 0001:fffff04c       $LN5                       1000004c     condition_variable.obj
 0001:fffff04c       $LN5                       1000004c     dynamic_link.obj
 0001:fffff04c       $LN5                       1000004c     governor.obj
 0001:fffff04c       $LN5                       1000004c     market.obj
 0001:fffff04c       $LN5                       1000004c     observer_proxy.obj
 0001:fffff04c       $LN5                       1000004c     observer_proxy.obj
 0001:fffff04c       $LN5                       1000004c     private_server.obj
 0001:fffff04c       $LN5                       1000004c     private_server.obj
 0001:fffff04c       $LN5                       1000004c     reader_writer_lock.obj
 0001:fffff04c       $LN5                       1000004c     scheduler.obj
 0001:fffff04c       $LN5                       1000004c     scheduler.obj
 0001:fffff04c       $LN5                       1000004c     scheduler.obj
 0001:fffff04c       $LN5                       1000004c     scheduler.obj
 0001:fffff04c       $LN5                       1000004c     scheduler.obj
 0001:fffff04c       $LN5                       1000004c     tbb_main.obj
 0001:fffff04c       $LN5                       1000004c     tbb_misc.obj
 0001:fffff04c       $LN5                       1000004c     tbb_misc_ex.obj
 0001:fffff04c       $LN5                       1000004c     x86_rtm_rw_mutex.obj
 0001:fffff054       $LN4                       10000054     arena.obj
 0001:fffff054       $LN4                       10000054     arena.obj
 0001:fffff054       $LN4                       10000054     cache_aligned_allocator.obj
 0001:fffff054       $LN4                       10000054     concurrent_monitor.obj
 0001:fffff054       $LN4                       10000054     concurrent_queue.obj
 0001:fffff054       $LN4                       10000054     concurrent_queue_v2.obj
 0001:fffff054       $LN4                       10000054     concurrent_vector.obj
 0001:fffff054       $LN4                       10000054     concurrent_vector_v2.obj
 0001:fffff054       $LN4                       10000054     condition_variable.obj
 0001:fffff054       $LN4                       10000054     dynamic_link.obj
 0001:fffff054       $LN4                       10000054     governor.obj
 0001:fffff054       $LN4                       10000054     market.obj
 0001:fffff054       $LN4                       10000054     observer_proxy.obj
 0001:fffff054       $LN4                       10000054     observer_proxy.obj
 0001:fffff054       $LN4                       10000054     private_server.obj
 0001:fffff054       $LN4                       10000054     private_server.obj
 0001:fffff054       $LN4                       10000054     reader_writer_lock.obj
 0001:fffff054       $LN4                       10000054     scheduler.obj
 0001:fffff054       $LN4                       10000054     scheduler.obj
 0001:fffff054       $LN4                       10000054     scheduler.obj
 0001:fffff054       $LN4                       10000054     scheduler.obj
 0001:fffff054       $LN4                       10000054     scheduler.obj
 0001:fffff054       $LN4                       10000054     tbb_main.obj
 0001:fffff054       $LN4                       10000054     tbb_misc.obj
 0001:fffff054       $LN4                       10000054     tbb_misc_ex.obj
 0001:fffff054       $LN4                       10000054     x86_rtm_rw_mutex.obj
 0001:fffff05c       $LN7                       1000005c     cache_aligned_allocator.obj
 0001:fffff05c       $LN7                       1000005c     concurrent_queue_v2.obj
 0001:fffff05c       $LN7                       1000005c     concurrent_queue_v2.obj
 0001:fffff05c       $LN7                       1000005c     concurrent_vector.obj
 0001:fffff05c       $LN7                       1000005c     condition_variable.obj
 0001:fffff05c       $LN7                       1000005c     governor.obj
 0001:fffff05c       $LN7                       1000005c     scheduler.obj
 0001:fffff05c       $LN7                       1000005c     task_group_context.obj
 0001:fffff05c       $LN7                       1000005c     tbb_misc_ex.obj
 0001:fffff060       $LN3                       10000060     arena.obj
 0001:fffff060       $LN3                       10000060     arena.obj
 0001:fffff060       $LN3                       10000060     cache_aligned_allocator.obj
 0001:fffff060       $LN3                       10000060     concurrent_monitor.obj
 0001:fffff060       $LN3                       10000060     concurrent_queue.obj
 0001:fffff060       $LN3                       10000060     concurrent_queue_v2.obj
 0001:fffff060       $LN3                       10000060     concurrent_vector.obj
 0001:fffff060       $LN3                       10000060     concurrent_vector_v2.obj
 0001:fffff060       $LN3                       10000060     condition_variable.obj
 0001:fffff060       $LN3                       10000060     dynamic_link.obj
 0001:fffff060       $LN3                       10000060     governor.obj
 0001:fffff060       $LN3                       10000060     market.obj
 0001:fffff060       $LN3                       10000060     observer_proxy.obj
 0001:fffff060       $LN3                       10000060     observer_proxy.obj
 0001:fffff060       $LN3                       10000060     private_server.obj
 0001:fffff060       $LN3                       10000060     private_server.obj
 0001:fffff060       $LN3                       10000060     reader_writer_lock.obj
 0001:fffff060       $LN3                       10000060     scheduler.obj
 0001:fffff060       $LN3                       10000060     scheduler.obj
 0001:fffff060       $LN3                       10000060     scheduler.obj
 0001:fffff060       $LN3                       10000060     scheduler.obj
 0001:fffff060       $LN3                       10000060     scheduler.obj
 0001:fffff060       $LN3                       10000060     tbb_main.obj
 0001:fffff060       $LN3                       10000060     tbb_misc.obj
 0001:fffff060       $LN3                       10000060     tbb_misc_ex.obj
 0001:fffff060       $LN3                       10000060     x86_rtm_rw_mutex.obj
 0001:fffff064       $LN6                       10000064     cache_aligned_allocator.obj
 0001:fffff064       $LN6                       10000064     concurrent_queue_v2.obj
 0001:fffff064       $LN6                       10000064     concurrent_queue_v2.obj
 0001:fffff064       $LN6                       10000064     concurrent_vector.obj
 0001:fffff064       $LN6                       10000064     condition_variable.obj
 0001:fffff064       $LN6                       10000064     governor.obj
 0001:fffff064       $LN6                       10000064     scheduler.obj
 0001:fffff064       $LN6                       10000064     task_group_context.obj
 0001:fffff064       $LN7                       10000064     tbb_main.obj
 0001:fffff064       $LN6                       10000064     tbb_misc_ex.obj
 0001:fffff06c       $LN6                       1000006c     tbb_main.obj
 0001:fffff070       $LN5                       10000070     cache_aligned_allocator.obj
 0001:fffff070       $LN5                       10000070     concurrent_queue_v2.obj
 0001:fffff070       $LN5                       10000070     concurrent_queue_v2.obj
 0001:fffff070       $LN5                       10000070     concurrent_vector.obj
 0001:fffff070       $LN5                       10000070     condition_variable.obj
 0001:fffff070       $LN5                       10000070     governor.obj
 0001:fffff070       $LN5                       10000070     scheduler.obj
 0001:fffff070       $LN5                       10000070     task_group_context.obj
 0001:fffff070       $LN5                       10000070     tbb_misc_ex.obj
 0001:fffff074       $LN5                       10000074     arena.obj
 0001:fffff074       $LN5                       10000074     concurrent_vector_v2.obj
 0001:fffff078       $LN5                       10000078     arena.obj
 0001:fffff078       $LN5                       10000078     tbb_main.obj
 0001:fffff078       $LN7                       10000078     tbb_thread.obj
 0001:fffff07c       $LN4                       1000007c     arena.obj
 0001:fffff07c       $LN4                       1000007c     concurrent_vector_v2.obj
 0001:fffff080       $LN4                       10000080     arena.obj
 0001:fffff080       $LN6                       10000080     tbb_thread.obj
 0001:fffff088       $LN3                       10000088     arena.obj
 0001:fffff088       $LN3                       10000088     concurrent_vector_v2.obj
 0001:fffff08c       $LN3                       1000008c     arena.obj
 0001:fffff08c       $LN5                       1000008c     tbb_thread.obj
 0001:fffff114       $LN13                      10000114     scheduler.obj
 0001:fffff11c       $LN12                      1000011c     scheduler.obj
 0001:fffff128       $LN11                      10000128     scheduler.obj
 0001:00000000       ??__Estatic_init_dl_data@internal@tbb@@YAXXZ 10001000 f   dynamic_link.obj
 0001:00000020       ??__Ethe_context_state_propagation_mutex@internal@tbb@@YAXXZ 10001020 f   scheduler.obj
 0001:00000040       ??__Ethe_dummy_context@internal@tbb@@YAXXZ 10001040 f   scheduler.obj
 0001:00000070       ??__Ethe_global_observer_list@internal@tbb@@YAXXZ 10001070 f   observer_proxy.obj
 0001:00000090       ??__Fthe_check_observer_proxy_count@internal@tbb@@YAXXZ 10001090 f   observer_proxy.obj
 0001:000000b0       ??__E?theMarketMutex@market@internal@tbb@@0Vspin_mutex@3@A@@YAXXZ 100010b0 f   tbb_main.obj
 0001:000000d0       ??__Eallowed_parallelism_ctl@internal@tbb@@YAXXZ 100010d0 f   tbb_main.obj
 0001:000000f0       ??__Estack_size_ctl@internal@tbb@@YAXXZ 100010f0 f   tbb_main.obj
 0001:0000020c       $LN5                       1000120c     concurrent_hash_map.obj
 0001:00000214       $LN4                       10001214     concurrent_hash_map.obj
 0001:00000220       $LN3                       10001220     concurrent_hash_map.obj
 0001:000002f0       ?__TBB_machine_cmpswp4@@YAJPCXHH@Z 100012f0 f   concurrent_queue.obj
 0001:00000310       ?__TBB_machine_fetchadd4@@YAJPCXH@Z 10001310 f   concurrent_queue.obj
 0001:00000320       ?pause@msvc_intrinsics@internal@tbb@@YAXI@Z 10001320 f   concurrent_queue.obj
 0001:000007d3       __catch$?internal_pop@concurrent_queue_base_v3@internal@tbb@@IAEXPAX@Z$0 100017d3 f   concurrent_queue.obj
 0001:000007ec       __catch$?internal_pop@concurrent_queue_base_v3@internal@tbb@@IAEXPAX@Z$1 100017ec f   concurrent_queue.obj
 0001:00000910       $LN29                      10001910     concurrent_queue.obj
 0001:00000918       $LN28                      10001918     concurrent_queue.obj
 0001:00000924       $LN26                      10001924     concurrent_queue.obj
 0001:00000e93       __catch$?internal_insert_item@concurrent_queue_base_v3@internal@tbb@@IAEXPBXW4copy_specifics@123@@Z$0 10001e93 f   concurrent_queue.obj
 0001:00000ebd       __catch$?internal_insert_item@concurrent_queue_base_v3@internal@tbb@@IAEXPBXW4copy_specifics@123@@Z$1 10001ebd f   concurrent_queue.obj
 0001:00001000       $LN29                      10002000     concurrent_queue.obj
 0001:00001008       $LN28                      10002008     concurrent_queue.obj
 0001:00001020       $LN26                      10002020     concurrent_queue.obj
 0001:00001028       $LN25                      10002028     concurrent_queue.obj
 0001:00001610       $LN11                      10002610     concurrent_queue.obj
 0001:00001618       $LN10                      10002618     concurrent_queue.obj
 0001:00001624       $LN9                       10002624     concurrent_queue.obj
 0001:00001747       __catch$?push@micro_queue@internal@tbb@@QAEXPBXIAAVconcurrent_queue_base_v3@23@W4copy_specifics@423@@Z$0 10002747 f   concurrent_queue.obj
 0001:00001905       __catch$?push@micro_queue@internal@tbb@@QAEXPBXIAAVconcurrent_queue_base_v3@23@W4copy_specifics@423@@Z$2 10002905 f   concurrent_queue.obj
 0001:000019c4       $LN39                      100029c4     concurrent_queue.obj
 0001:000019cc       $LN38                      100029cc     concurrent_queue.obj
 0001:000019e4       $LN36                      100029e4     concurrent_queue.obj
 0001:000019e9       $LN35                      100029e9     concurrent_queue.obj
 0001:00001c1c       $LN19                      10002c1c     concurrent_queue.obj
 0001:00001c24       $LN18                      10002c24     concurrent_queue.obj
 0001:00001c30       $LN16                      10002c30     concurrent_queue.obj
 0001:00001eb2       __catch$?assign@micro_queue@internal@tbb@@QAEAAU123@ABU123@AAVconcurrent_queue_base_v3@23@W4copy_specifics@423@@Z$0 10002eb2 f   concurrent_queue.obj
 0001:00001f28       $LN22                      10002f28     concurrent_queue.obj
 0001:00001f30       $LN21                      10002f30     concurrent_queue.obj
 0001:00001f3c       $LN19                      10002f3c     concurrent_queue.obj
 0001:00002150       $LN9                       10003150     concurrent_queue.obj
 0001:00002158       $LN8                       10003158     concurrent_queue.obj
 0001:00002164       $LN6                       10003164     concurrent_queue.obj
 0001:00002590       $LN17                      10003590     concurrent_queue.obj
 0001:00002598       $LN16                      10003598     concurrent_queue.obj
 0001:000025b0       $LN14                      100035b0     concurrent_queue.obj
 0001:000025b2       $LN13                      100035b2     concurrent_queue.obj
 0001:0000263c       $LN7                       1000363c     concurrent_queue.obj
 0001:00002644       $LN6                       10003644     concurrent_queue.obj
 0001:00002650       $LN5                       10003650     concurrent_queue.obj
 0001:000026bc       $LN7                       100036bc     concurrent_queue.obj
 0001:000026c4       $LN6                       100036c4     concurrent_queue.obj
 0001:000026d0       $LN5                       100036d0     concurrent_queue.obj
 0001:000028bc       $LN5                       100038bc     concurrent_queue.obj
 0001:000028c4       $LN4                       100038c4     concurrent_queue.obj
 0001:000028d0       $LN3                       100038d0     concurrent_queue.obj
 0001:0000292c       $LN5                       1000392c     concurrent_queue.obj
 0001:00002934       $LN4                       10003934     concurrent_queue.obj
 0001:00002940       $LN3                       10003940     concurrent_queue.obj
 0001:00002fd0       $LN9                       10003fd0     concurrent_queue.obj
 0001:00002fd8       $LN8                       10003fd8     concurrent_queue.obj
 0001:00002fe4       $LN6                       10003fe4     concurrent_queue.obj
 0001:00003ce0       ?__TBB_machine_cmpswp4@@YAJPCXHH@Z 10004ce0 f   concurrent_vector.obj
 0001:00003d00       ?__TBB_machine_fetchadd4@@YAJPCXH@Z 10004d00 f   concurrent_vector.obj
 0001:00003d10       ?pause@msvc_intrinsics@internal@tbb@@YAXI@Z 10004d10 f   concurrent_vector.obj
 0001:00003d30       ?lg_bsr@msvc_intrinsics@internal@tbb@@YAII@Z 10004d30 f   concurrent_vector.obj
 0001:00003d6c       $LN5                       10004d6c     concurrent_vector.obj
 0001:00003d74       $LN4                       10004d74     concurrent_vector.obj
 0001:00003d80       $LN3                       10004d80     concurrent_vector.obj
 0001:000041c0       $LN17                      100051c0     concurrent_vector.obj
 0001:000041c8       $LN16                      100051c8     concurrent_vector.obj
 0001:000041d4       $LN14                      100051d4     concurrent_vector.obj
 0001:00004478       $LN11                      10005478     concurrent_vector.obj
 0001:00004480       $LN10                      10005480     concurrent_vector.obj
 0001:0000448c       $LN8                       1000548c     concurrent_vector.obj
 0001:0000475a       __catch$?internal_compact@concurrent_vector_base_v3@internal@tbb@@IAEPAXIPAXP6AX0I@ZP6AX0PBXI@Z@Z$0 1000575a f   concurrent_vector.obj
 0001:00004a30       $LN41                      10005a30     concurrent_vector.obj
 0001:00004a38       $LN40                      10005a38     concurrent_vector.obj
 0001:00004a44       $LN38                      10005a44     concurrent_vector.obj
 0001:000050c0       $LN7                       100060c0     concurrent_vector.obj
 0001:000050c8       $LN6                       100060c8     concurrent_vector.obj
 0001:000050d4       $LN5                       100060d4     concurrent_vector.obj
 0001:000053d4       $LN11                      100063d4     concurrent_vector.obj
 0001:000053dc       $LN10                      100063dc     concurrent_vector.obj
 0001:000053f4       $LN8                       100063f4     concurrent_vector.obj
 0001:000053fd       $LN7                       100063fd     concurrent_vector.obj
 0001:00005624       $LN21                      10006624     concurrent_vector.obj
 0001:0000562c       $LN20                      1000662c     concurrent_vector.obj
 0001:00005638       $LN19                      10006638     concurrent_vector.obj
 0001:00005930       $LN21                      10006930     concurrent_vector.obj
 0001:00005938       $LN20                      10006938     concurrent_vector.obj
 0001:0000595c       $LN18                      1000695c     concurrent_vector.obj
 0001:0000596c       $LN17                      1000696c     concurrent_vector.obj
 0001:0000597c       $LN16                      1000697c     concurrent_vector.obj
 0001:00005bf0       $LN22                      10006bf0     concurrent_vector.obj
 0001:00005bf8       $LN21                      10006bf8     concurrent_vector.obj
 0001:00005c04       $LN19                      10006c04     concurrent_vector.obj
 0001:00005eec       $LN33                      10006eec     concurrent_vector.obj
 0001:00005ef4       $LN32                      10006ef4     concurrent_vector.obj
 0001:00005f0c       $LN31                      10006f0c     concurrent_vector.obj
 0001:00005f12       $LN30                      10006f12     concurrent_vector.obj
 0001:0000665c       $LN6                       1000765c     concurrent_vector.obj
 0001:00006664       $LN5                       10007664     concurrent_vector.obj
 0001:0000667c       $LN4                       1000767c     concurrent_vector.obj
 0001:00006683       $LN3                       10007683     concurrent_vector.obj
 0001:00006780       $LN9                       10007780     concurrent_vector.obj
 0001:00006788       $LN8                       10007788     concurrent_vector.obj
 0001:00006794       $LN7                       10007794     concurrent_vector.obj
 0001:00006bac       $LN7                       10007bac     concurrent_vector.obj
 0001:00006bb4       $LN6                       10007bb4     concurrent_vector.obj
 0001:00006bc0       $LN5                       10007bc0     concurrent_vector.obj
 0001:00006c2c       $LN7                       10007c2c     concurrent_vector.obj
 0001:00006c34       $LN6                       10007c34     concurrent_vector.obj
 0001:00006c40       $LN5                       10007c40     concurrent_vector.obj
 0001:0000735c       $LN5                       1000835c     concurrent_vector.obj
 0001:00007364       $LN4                       10008364     concurrent_vector.obj
 0001:00007370       $LN3                       10008370     concurrent_vector.obj
 0001:000073cc       $LN5                       100083cc     concurrent_vector.obj
 0001:000073d4       $LN4                       100083d4     concurrent_vector.obj
 0001:000073e0       $LN3                       100083e0     concurrent_vector.obj
 0001:000074dc       $LN12                      100084dc     concurrent_vector.obj
 0001:000074e4       $LN11                      100084e4     concurrent_vector.obj
 0001:000074fc       $LN9                       100084fc     concurrent_vector.obj
 0001:00007505       $LN8                       10008505     concurrent_vector.obj
 0001:00007780       ??0segment_scope_guard@?1??enable_segment@helper@concurrent_vector_base_v3@internal@tbb@@SAIAAV345@II_N@Z@QAE@AAVsegment_t@345@1@Z 10008780 f   concurrent_vector.obj
 0001:00007900       ??1segment_scope_guard@?1??enable_segment@helper@concurrent_vector_base_v3@internal@tbb@@SAIAAV345@II_N@Z@QAE@XZ 10008900 f   concurrent_vector.obj
 0001:00007f30       ?dismiss@segment_scope_guard@?1??enable_segment@helper@concurrent_vector_base_v3@internal@tbb@@SAIAAV456@II_N@Z@QAEXXZ 10008f30 f   concurrent_vector.obj
 0001:000085a0       ?__TBB_machine_cmpswp4@@YAJPCXHH@Z 100095a0 f   dynamic_link.obj
 0001:000085c0       ?__TBB_machine_fetchadd4@@YAJPCXH@Z 100095c0 f   dynamic_link.obj
 0001:000085d0       ?pause@msvc_intrinsics@internal@tbb@@YAXI@Z 100095d0 f   dynamic_link.obj
 0001:000085f0       ?dynamic_link_warning@internal@tbb@@YAXW4dynamic_link_error_t@12@ZZ 100095f0 f   dynamic_link.obj
 0001:00008600       ?resolve_symbols@internal@tbb@@YA_NPAUHINSTANCE__@@QBUdynamic_link_descriptor@12@I@Z 10009600 f   dynamic_link.obj
 0001:00008718       $LN16                      10009718     dynamic_link.obj
 0001:00008720       $LN15                      10009720     dynamic_link.obj
 0001:0000872c       $LN14                      1000972c     dynamic_link.obj
 0001:00008740       ?atomic_once@internal@tbb@@YAXP6AXXZAAU?$atomic@W4do_once_state@internal@tbb@@@2@@Z 10009740 f   dynamic_link.obj
 0001:00008760       ?init_ap_data@internal@tbb@@YAXXZ 10009760 f   dynamic_link.obj
 0001:000088d4       $LN13                      100098d4     dynamic_link.obj
 0001:000088dc       $LN12                      100098dc     dynamic_link.obj
 0001:000088e8       $LN11                      100098e8     dynamic_link.obj
 0001:000088f0       ?init_dl_data@internal@tbb@@YAXXZ 100098f0 f   dynamic_link.obj
 0001:00008910       ?abs_path@internal@tbb@@YAIPBDPADI@Z 10009910 f   dynamic_link.obj
 0001:000089e0       ?weak_symbol_link@internal@tbb@@YA_NQBUdynamic_link_descriptor@12@I@Z 100099e0 f   dynamic_link.obj
 0001:000089f0       ?global_symbols_link@internal@tbb@@YAPAUHINSTANCE__@@PBDQBUdynamic_link_descriptor@12@I@Z 100099f0 f   dynamic_link.obj
 0001:00008a8c       $LN8                       10009a8c     dynamic_link.obj
 0001:00008a94       $LN7                       10009a94     dynamic_link.obj
 0001:00008aa0       $LN6                       10009aa0     dynamic_link.obj
 0001:00008ab0       ?save_library_handle@internal@tbb@@YAXPAUHINSTANCE__@@PAPAU3@@Z 10009ab0 f   dynamic_link.obj
 0001:00008c7c       $LN11                      10009c7c     dynamic_link.obj
 0001:00008c84       $LN10                      10009c84     dynamic_link.obj
 0001:00008c90       $LN9                       10009c90     dynamic_link.obj
 0001:00008dac       $LN7                       10009dac     dynamic_link.obj
 0001:00008db4       $LN6                       10009db4     dynamic_link.obj
 0001:00008dc0       $LN5                       10009dc0     dynamic_link.obj
 0001:00008ecc       $LN5                       10009ecc     dynamic_link.obj
 0001:00008ed4       $LN4                       10009ed4     dynamic_link.obj
 0001:00008ee0       $LN3                       10009ee0     dynamic_link.obj
 0001:00009390       ?__itt_detach_init_3_0@@YAXXZ 1000a390 f   itt_notify.obj
 0001:000093e0       ?__itt_sync_createA_init_3_0@@YAXPAXPBD1H@Z 1000a3e0 f   itt_notify.obj
 0001:00009440       ?__itt_sync_createW_init_3_0@@YAXPAXPB_W1H@Z 1000a440 f   itt_notify.obj
 0001:000094a0       ?__itt_sync_renameA_init_3_0@@YAXPAXPBD@Z 1000a4a0 f   itt_notify.obj
 0001:00009500       ?__itt_sync_renameW_init_3_0@@YAXPAXPB_W@Z 1000a500 f   itt_notify.obj
 0001:00009560       ?__itt_sync_destroy_init_3_0@@YAXPAX@Z 1000a560 f   itt_notify.obj
 0001:000095b0       ?__itt_sync_prepare_init_3_0@@YAXPAX@Z 1000a5b0 f   itt_notify.obj
 0001:00009600       ?__itt_sync_cancel_init_3_0@@YAXPAX@Z 1000a600 f   itt_notify.obj
 0001:00009650       ?__itt_sync_acquired_init_3_0@@YAXPAX@Z 1000a650 f   itt_notify.obj
 0001:000096a0       ?__itt_sync_releasing_init_3_0@@YAXPAX@Z 1000a6a0 f   itt_notify.obj
 0001:000096f0       ?__itt_suppress_push_init_3_0@@YAXI@Z 1000a6f0 f   itt_notify.obj
 0001:00009740       ?__itt_suppress_pop_init_3_0@@YAXXZ 1000a740 f   itt_notify.obj
 0001:00009790       ?__itt_suppress_mark_range_init_3_0@@YAXW4__itt_suppress_mode@@IPAXI@Z 1000a790 f   itt_notify.obj
 0001:000097f0       ?__itt_suppress_clear_range_init_3_0@@YAXW4__itt_suppress_mode@@IPAXI@Z 1000a7f0 f   itt_notify.obj
 0001:00009850       ?__itt_fsync_prepare_init_3_0@@YAXPAX@Z 1000a850 f   itt_notify.obj
 0001:000098a0       ?__itt_fsync_cancel_init_3_0@@YAXPAX@Z 1000a8a0 f   itt_notify.obj
 0001:000098f0       ?__itt_fsync_acquired_init_3_0@@YAXPAX@Z 1000a8f0 f   itt_notify.obj
 0001:00009940       ?__itt_fsync_releasing_init_3_0@@YAXPAX@Z 1000a940 f   itt_notify.obj
 0001:00009990       ?__itt_model_site_begin_init_3_0@@YAXPAPAX0PBD@Z 1000a990 f   itt_notify.obj
 0001:000099f0       ?__itt_model_site_end_init_3_0@@YAXPAPAX0@Z 1000a9f0 f   itt_notify.obj
 0001:00009a50       ?__itt_model_task_begin_init_3_0@@YAXPAPAX0PBD@Z 1000aa50 f   itt_notify.obj
 0001:00009ab0       ?__itt_model_task_end_init_3_0@@YAXPAPAX0@Z 1000aab0 f   itt_notify.obj
 0001:00009b10       ?__itt_model_lock_acquire_init_3_0@@YAXPAX@Z 1000ab10 f   itt_notify.obj
 0001:00009b60       ?__itt_model_lock_release_init_3_0@@YAXPAX@Z 1000ab60 f   itt_notify.obj
 0001:00009bb0       ?__itt_model_record_allocation_init_3_0@@YAXPAXI@Z 1000abb0 f   itt_notify.obj
 0001:00009c10       ?__itt_model_record_deallocation_init_3_0@@YAXPAX@Z 1000ac10 f   itt_notify.obj
 0001:00009c60       ?__itt_model_induction_uses_init_3_0@@YAXPAXI@Z 1000ac60 f   itt_notify.obj
 0001:00009cc0       ?__itt_model_reduction_uses_init_3_0@@YAXPAXI@Z 1000acc0 f   itt_notify.obj
 0001:00009d20       ?__itt_model_observe_uses_init_3_0@@YAXPAXI@Z 1000ad20 f   itt_notify.obj
 0001:00009d80       ?__itt_model_clear_uses_init_3_0@@YAXPAX@Z 1000ad80 f   itt_notify.obj
 0001:00009dd0       ?__itt_model_site_beginW_init_3_0@@YAXPB_W@Z 1000add0 f   itt_notify.obj
 0001:00009e20       ?__itt_model_task_beginW_init_3_0@@YAXPB_W@Z 1000ae20 f   itt_notify.obj
 0001:00009e70       ?__itt_model_iteration_taskW_init_3_0@@YAXPB_W@Z 1000ae70 f   itt_notify.obj
 0001:00009ec0       ?__itt_model_site_beginA_init_3_0@@YAXPBD@Z 1000aec0 f   itt_notify.obj
 0001:00009f10       ?__itt_model_site_beginAL_init_3_0@@YAXPBDI@Z 1000af10 f   itt_notify.obj
 0001:00009f70       ?__itt_model_task_beginA_init_3_0@@YAXPBD@Z 1000af70 f   itt_notify.obj
 0001:00009fc0       ?__itt_model_task_beginAL_init_3_0@@YAXPBDI@Z 1000afc0 f   itt_notify.obj
 0001:0000a020       ?__itt_model_iteration_taskA_init_3_0@@YAXPBD@Z 1000b020 f   itt_notify.obj
 0001:0000a070       ?__itt_model_iteration_taskAL_init_3_0@@YAXPBDI@Z 1000b070 f   itt_notify.obj
 0001:0000a0d0       ?__itt_model_site_end_2_init_3_0@@YAXXZ 1000b0d0 f   itt_notify.obj
 0001:0000a120       ?__itt_model_task_end_2_init_3_0@@YAXXZ 1000b120 f   itt_notify.obj
 0001:0000a170       ?__itt_model_lock_acquire_2_init_3_0@@YAXPAX@Z 1000b170 f   itt_notify.obj
 0001:0000a1c0       ?__itt_model_lock_release_2_init_3_0@@YAXPAX@Z 1000b1c0 f   itt_notify.obj
 0001:0000a210       ?__itt_model_aggregate_task_init_3_0@@YAXI@Z 1000b210 f   itt_notify.obj
 0001:0000a260       ?__itt_model_disable_push_init_3_0@@YAXW4__itt_model_disable@@@Z 1000b260 f   itt_notify.obj
 0001:0000a2b0       ?__itt_model_disable_pop_init_3_0@@YAXXZ 1000b2b0 f   itt_notify.obj
 0001:0000a300       ?__itt_heap_function_createA_init_3_0@@YAPAXPBD0@Z 1000b300 f   itt_notify.obj
 0001:0000a360       ?__itt_heap_function_createW_init_3_0@@YAPAXPB_W0@Z 1000b360 f   itt_notify.obj
 0001:0000a3c0       ?__itt_heap_allocate_begin_init_3_0@@YAXPAXIH@Z 1000b3c0 f   itt_notify.obj
 0001:0000a420       ?__itt_heap_allocate_end_init_3_0@@YAXPAXPAPAXIH@Z 1000b420 f   itt_notify.obj
 0001:0000a480       ?__itt_heap_free_begin_init_3_0@@YAXPAX0@Z 1000b480 f   itt_notify.obj
 0001:0000a4e0       ?__itt_heap_free_end_init_3_0@@YAXPAX0@Z 1000b4e0 f   itt_notify.obj
 0001:0000a540       ?__itt_heap_reallocate_begin_init_3_0@@YAXPAX0IH@Z 1000b540 f   itt_notify.obj
 0001:0000a5a0       ?__itt_heap_reallocate_end_init_3_0@@YAXPAX0PAPAXIH@Z 1000b5a0 f   itt_notify.obj
 0001:0000a600       ?__itt_heap_internal_access_begin_init_3_0@@YAXXZ 1000b600 f   itt_notify.obj
 0001:0000a650       ?__itt_heap_internal_access_end_init_3_0@@YAXXZ 1000b650 f   itt_notify.obj
 0001:0000a6a0       ?__itt_heap_record_memory_growth_begin_init_3_0@@YAXXZ 1000b6a0 f   itt_notify.obj
 0001:0000a6f0       ?__itt_heap_record_memory_growth_end_init_3_0@@YAXXZ 1000b6f0 f   itt_notify.obj
 0001:0000a740       ?__itt_heap_reset_detection_init_3_0@@YAXI@Z 1000b740 f   itt_notify.obj
 0001:0000a790       ?__itt_heap_record_init_3_0@@YAXI@Z 1000b790 f   itt_notify.obj
 0001:0000a7e0       ?__itt_id_create_init_3_0@@YAXPBU___itt_domain@@U___itt_id@@@Z 1000b7e0 f   itt_notify.obj
 0001:0000a860       ?__itt_id_destroy_init_3_0@@YAXPBU___itt_domain@@U___itt_id@@@Z 1000b860 f   itt_notify.obj
 0001:0000a8e0       ?__itt_get_timestamp_init_3_0@@YA_KXZ 1000b8e0 f   itt_notify.obj
 0001:0000a940       ?__itt_region_begin_init_3_0@@YAXPBU___itt_domain@@U___itt_id@@1PAU___itt_string_handle@@@Z 1000b940 f   itt_notify.obj
 0001:0000a9f0       ?__itt_region_end_init_3_0@@YAXPBU___itt_domain@@U___itt_id@@@Z 1000b9f0 f   itt_notify.obj
 0001:0000aa70       ?__itt_frame_begin_v3_init_3_0@@YAXPBU___itt_domain@@PAU___itt_id@@@Z 1000ba70 f   itt_notify.obj
 0001:0000aad0       ?__itt_frame_end_v3_init_3_0@@YAXPBU___itt_domain@@PAU___itt_id@@@Z 1000bad0 f   itt_notify.obj
 0001:0000ab30       ?__itt_frame_submit_v3_init_3_0@@YAXPBU___itt_domain@@PAU___itt_id@@_K2@Z 1000bb30 f   itt_notify.obj
 0001:0000aba0       ?__itt_task_group_init_3_0@@YAXPBU___itt_domain@@U___itt_id@@1PAU___itt_string_handle@@@Z 1000bba0 f   itt_notify.obj
 0001:0000ac50       ?__itt_task_begin_init_3_0@@YAXPBU___itt_domain@@U___itt_id@@1PAU___itt_string_handle@@@Z 1000bc50 f   itt_notify.obj
 0001:0000ad00       ?__itt_task_begin_fn_init_3_0@@YAXPBU___itt_domain@@U___itt_id@@1PAX@Z 1000bd00 f   itt_notify.obj
 0001:0000adb0       ?__itt_task_end_init_3_0@@YAXPBU___itt_domain@@@Z 1000bdb0 f   itt_notify.obj
 0001:0000ae00       ?__itt_counter_inc_v3_init_3_0@@YAXPBU___itt_domain@@PAU___itt_string_handle@@@Z 1000be00 f   itt_notify.obj
 0001:0000ae60       ?__itt_counter_inc_delta_v3_init_3_0@@YAXPBU___itt_domain@@PAU___itt_string_handle@@_K@Z 1000be60 f   itt_notify.obj
 0001:0000aec0       ?__itt_counter_dec_v3_init_3_0@@YAXPBU___itt_domain@@PAU___itt_string_handle@@@Z 1000bec0 f   itt_notify.obj
 0001:0000af20       ?__itt_counter_dec_delta_v3_init_3_0@@YAXPBU___itt_domain@@PAU___itt_string_handle@@_K@Z 1000bf20 f   itt_notify.obj
 0001:0000af80       ?__itt_marker_init_3_0@@YAXPBU___itt_domain@@U___itt_id@@PAU___itt_string_handle@@W4__itt_scope@@@Z 1000bf80 f   itt_notify.obj
 0001:0000b000       ?__itt_metadata_add_init_3_0@@YAXPBU___itt_domain@@U___itt_id@@PAU___itt_string_handle@@W4__itt_metadata_type@@IPAX@Z 1000c000 f   itt_notify.obj
 0001:0000b090       ?__itt_metadata_str_addA_init_3_0@@YAXPBU___itt_domain@@U___itt_id@@PAU___itt_string_handle@@PBDI@Z 1000c090 f   itt_notify.obj
 0001:0000b120       ?__itt_metadata_str_addW_init_3_0@@YAXPBU___itt_domain@@U___itt_id@@PAU___itt_string_handle@@PB_WI@Z 1000c120 f   itt_notify.obj
 0001:0000b1b0       ?__itt_relation_add_to_current_init_3_0@@YAXPBU___itt_domain@@W4__itt_relation@@U___itt_id@@@Z 1000c1b0 f   itt_notify.obj
 0001:0000b230       ?__itt_relation_add_init_3_0@@YAXPBU___itt_domain@@U___itt_id@@W4__itt_relation@@1@Z 1000c230 f   itt_notify.obj
 0001:0000b2e0       ?__itt_event_createA_init_3_0@@YAHPBDH@Z 1000c2e0 f   itt_notify.obj
 0001:0000b340       ?__itt_event_createW_init_3_0@@YAHPB_WH@Z 1000c340 f   itt_notify.obj
 0001:0000b3a0       ?__itt_event_start_init_3_0@@YAHH@Z 1000c3a0 f   itt_notify.obj
 0001:0000b400       ?__itt_event_end_init_3_0@@YAHH@Z 1000c400 f   itt_notify.obj
 0001:0000b460       ?__itt_sync_set_nameA_init_3_0@@YAXPAXPBD1H@Z 1000c460 f   itt_notify.obj
 0001:0000b4c0       ?__itt_sync_set_nameW_init_3_0@@YAXPAXPB_W1H@Z 1000c4c0 f   itt_notify.obj
 0001:0000b520       ?__itt_notify_sync_nameA_init_3_0@@YAHPAXPBDH1HH@Z 1000c520 f   itt_notify.obj
 0001:0000b590       ?__itt_notify_sync_nameW_init_3_0@@YAHPAXPB_WH1HH@Z 1000c590 f   itt_notify.obj
 0001:0000b600       ?__itt_notify_sync_prepare_init_3_0@@YAXPAX@Z 1000c600 f   itt_notify.obj
 0001:0000b650       ?__itt_notify_sync_cancel_init_3_0@@YAXPAX@Z 1000c650 f   itt_notify.obj
 0001:0000b6a0       ?__itt_notify_sync_acquired_init_3_0@@YAXPAX@Z 1000c6a0 f   itt_notify.obj
 0001:0000b6f0       ?__itt_notify_sync_releasing_init_3_0@@YAXPAX@Z 1000c6f0 f   itt_notify.obj
 0001:0000b740       ?__itt_memory_read_init_3_0@@YAXPAXI@Z 1000c740 f   itt_notify.obj
 0001:0000b7a0       ?__itt_memory_write_init_3_0@@YAXPAXI@Z 1000c7a0 f   itt_notify.obj
 0001:0000b800       ?__itt_memory_update_init_3_0@@YAXPAXI@Z 1000c800 f   itt_notify.obj
 0001:0000b860       ?__itt_state_get_init_3_0@@YAHXZ 1000c860 f   itt_notify.obj
 0001:0000b8b0       ?__itt_state_set_init_3_0@@YAHH@Z 1000c8b0 f   itt_notify.obj
 0001:0000b910       ?__itt_obj_mode_set_init_3_0@@YA?AW4__itt_obj_state@@W4__itt_obj_prop@@W41@@Z 1000c910 f   itt_notify.obj
 0001:0000b970       ?__itt_thr_mode_set_init_3_0@@YA?AW4__itt_thr_state@@W4__itt_thr_prop@@W41@@Z 1000c970 f   itt_notify.obj
 0001:0000b9d0       ?__itt_frame_createA_init_3_0@@YAPAU__itt_frame_t@@PBD@Z 1000c9d0 f   itt_notify.obj
 0001:0000ba30       ?__itt_frame_createW_init_3_0@@YAPAU__itt_frame_t@@PB_W@Z 1000ca30 f   itt_notify.obj
 0001:0000ba90       ?__itt_pt_region_createA_init_3_0@@YAEPBD@Z 1000ca90 f   itt_notify.obj
 0001:0000baf0       ?__itt_pt_region_createW_init_3_0@@YAEPB_W@Z 1000caf0 f   itt_notify.obj
 0001:0000bb50       ?__itt_frame_begin_init_3_0@@YAXPAU__itt_frame_t@@@Z 1000cb50 f   itt_notify.obj
 0001:0000bba0       ?__itt_frame_end_init_3_0@@YAXPAU__itt_frame_t@@@Z 1000cba0 f   itt_notify.obj
 0001:0000bbf0       ?__itt_counter_destroy_init_3_0@@YAXPAU___itt_counter@@@Z 1000cbf0 f   itt_notify.obj
 0001:0000bc40       ?__itt_counter_inc_init_3_0@@YAXPAU___itt_counter@@@Z 1000cc40 f   itt_notify.obj
 0001:0000bc90       ?__itt_counter_inc_delta_init_3_0@@YAXPAU___itt_counter@@_K@Z 1000cc90 f   itt_notify.obj
 0001:0000bcf0       ?__itt_counter_dec_init_3_0@@YAXPAU___itt_counter@@@Z 1000ccf0 f   itt_notify.obj
 0001:0000bd40       ?__itt_counter_dec_delta_init_3_0@@YAXPAU___itt_counter@@_K@Z 1000cd40 f   itt_notify.obj
 0001:0000bda0       ?__itt_counter_set_value_init_3_0@@YAXPAU___itt_counter@@PAX@Z 1000cda0 f   itt_notify.obj
 0001:0000be00       ?__itt_counter_set_value_ex_init_3_0@@YAXPAU___itt_counter@@PAU___itt_clock_domain@@_KPAX@Z 1000ce00 f   itt_notify.obj
 0001:0000be60       ?__itt_mark_createA_init_3_0@@YAHPBD@Z 1000ce60 f   itt_notify.obj
 0001:0000bec0       ?__itt_mark_createW_init_3_0@@YAHPB_W@Z 1000cec0 f   itt_notify.obj
 0001:0000bf20       ?__itt_markA_init_3_0@@YAHHPBD@Z 1000cf20 f   itt_notify.obj
 0001:0000bf80       ?__itt_markW_init_3_0@@YAHHPB_W@Z 1000cf80 f   itt_notify.obj
 0001:0000bfe0       ?__itt_mark_off_init_3_0@@YAHH@Z 1000cfe0 f   itt_notify.obj
 0001:0000c040       ?__itt_mark_globalA_init_3_0@@YAHHPBD@Z 1000d040 f   itt_notify.obj
 0001:0000c0a0       ?__itt_mark_globalW_init_3_0@@YAHHPB_W@Z 1000d0a0 f   itt_notify.obj
 0001:0000c100       ?__itt_mark_global_off_init_3_0@@YAHH@Z 1000d100 f   itt_notify.obj
 0001:0000c160       ?__itt_stack_caller_create_init_3_0@@YAPAU___itt_caller@@XZ 1000d160 f   itt_notify.obj
 0001:0000c1b0       ?__itt_stack_caller_destroy_init_3_0@@YAXPAU___itt_caller@@@Z 1000d1b0 f   itt_notify.obj
 0001:0000c200       ?__itt_stack_callee_enter_init_3_0@@YAXPAU___itt_caller@@@Z 1000d200 f   itt_notify.obj
 0001:0000c250       ?__itt_stack_callee_leave_init_3_0@@YAXPAU___itt_caller@@@Z 1000d250 f   itt_notify.obj
 0001:0000c2a0       ?__itt_clock_domain_create_init_3_0@@YAPAU___itt_clock_domain@@P6AXPAU___itt_clock_info@@PAX@Z1@Z 1000d2a0 f   itt_notify.obj
 0001:0000c300       ?__itt_clock_domain_reset_init_3_0@@YAXXZ 1000d300 f   itt_notify.obj
 0001:0000c350       ?__itt_id_create_ex_init_3_0@@YAXPBU___itt_domain@@PAU___itt_clock_domain@@_KU___itt_id@@@Z 1000d350 f   itt_notify.obj
 0001:0000c3e0       ?__itt_id_destroy_ex_init_3_0@@YAXPBU___itt_domain@@PAU___itt_clock_domain@@_KU___itt_id@@@Z 1000d3e0 f   itt_notify.obj
 0001:0000c470       ?__itt_task_begin_ex_init_3_0@@YAXPBU___itt_domain@@PAU___itt_clock_domain@@_KU___itt_id@@3PAU___itt_string_handle@@@Z 1000d470 f   itt_notify.obj
 0001:0000c530       ?__itt_task_begin_fn_ex_init_3_0@@YAXPBU___itt_domain@@PAU___itt_clock_domain@@_KU___itt_id@@3PAX@Z 1000d530 f   itt_notify.obj
 0001:0000c5f0       ?__itt_task_end_ex_init_3_0@@YAXPBU___itt_domain@@PAU___itt_clock_domain@@_K@Z 1000d5f0 f   itt_notify.obj
 0001:0000c650       ?__itt_task_begin_overlapped_init_3_0@@YAXPBU___itt_domain@@U___itt_id@@1PAU___itt_string_handle@@@Z 1000d650 f   itt_notify.obj
 0001:0000c700       ?__itt_task_begin_overlapped_ex_init_3_0@@YAXPBU___itt_domain@@PAU___itt_clock_domain@@_KU___itt_id@@3PAU___itt_string_handle@@@Z 1000d700 f   itt_notify.obj
 0001:0000c7c0       ?__itt_task_end_overlapped_init_3_0@@YAXPBU___itt_domain@@U___itt_id@@@Z 1000d7c0 f   itt_notify.obj
 0001:0000c840       ?__itt_task_end_overlapped_ex_init_3_0@@YAXPBU___itt_domain@@PAU___itt_clock_domain@@_KU___itt_id@@@Z 1000d840 f   itt_notify.obj
 0001:0000c8d0       ?__itt_marker_ex_init_3_0@@YAXPBU___itt_domain@@PAU___itt_clock_domain@@_KU___itt_id@@PAU___itt_string_handle@@W4__itt_scope@@@Z 1000d8d0 f   itt_notify.obj
 0001:0000c960       ?__itt_metadata_add_with_scope_init_3_0@@YAXPBU___itt_domain@@W4__itt_scope@@PAU___itt_string_handle@@W4__itt_metadata_type@@IPAX@Z 1000d960 f   itt_notify.obj
 0001:0000c9d0       ?__itt_metadata_str_add_with_scopeA_init_3_0@@YAXPBU___itt_domain@@W4__itt_scope@@PAU___itt_string_handle@@PBDI@Z 1000d9d0 f   itt_notify.obj
 0001:0000ca30       ?__itt_metadata_str_add_with_scopeW_init_3_0@@YAXPBU___itt_domain@@W4__itt_scope@@PAU___itt_string_handle@@PB_WI@Z 1000da30 f   itt_notify.obj
 0001:0000ca90       ?__itt_relation_add_to_current_ex_init_3_0@@YAXPBU___itt_domain@@PAU___itt_clock_domain@@_KW4__itt_relation@@U___itt_id@@@Z 1000da90 f   itt_notify.obj
 0001:0000cb20       ?__itt_relation_add_ex_init_3_0@@YAXPBU___itt_domain@@PAU___itt_clock_domain@@_KU___itt_id@@W4__itt_relation@@3@Z 1000db20 f   itt_notify.obj
 0001:0000cbe0       ?__itt_track_group_create_init_3_0@@YAPAU___itt_track_group@@PAU___itt_string_handle@@W4___itt_track_group_type@@@Z 1000dbe0 f   itt_notify.obj
 0001:0000cc40       ?__itt_track_create_init_3_0@@YAPAU___itt_track@@PAU___itt_track_group@@PAU___itt_string_handle@@W4___itt_track_type@@@Z 1000dc40 f   itt_notify.obj
 0001:0000cca0       ?__itt_set_track_init_3_0@@YAXPAU___itt_track@@@Z 1000dca0 f   itt_notify.obj
 0001:0000ccf0       ?__itt_api_version_init_3_0@@YAPBDXZ 1000dcf0 f   itt_notify.obj
 0001:0000cd40       ?__itt_av_saveA_init_3_0@@YAHPAXHPBHHPBDH@Z 1000dd40 f   itt_notify.obj
 0001:0000cdb0       ?__itt_av_saveW_init_3_0@@YAHPAXHPBHHPB_WH@Z 1000ddb0 f   itt_notify.obj
 0001:0000ce20       ?__itt_module_loadA_init_3_0@@YAXPAX0PBD@Z 1000de20 f   itt_notify.obj
 0001:0000ce80       ?__itt_module_loadW_init_3_0@@YAXPAX0PB_W@Z 1000de80 f   itt_notify.obj
 0001:0000cee0       ?__itt_domain_createA_init_3_0@@YAPAU___itt_domain@@PBD@Z 1000dee0 f   itt_notify.obj
 0001:0000d100       ?__itt_domain_createW_init_3_0@@YAPAU___itt_domain@@PB_W@Z 1000e100 f   itt_notify.obj
 0001:0000d320       ?__itt_string_handle_createA_init_3_0@@YAPAU___itt_string_handle@@PBD@Z 1000e320 f   itt_notify.obj
 0001:0000d530       ?__itt_string_handle_createW_init_3_0@@YAPAU___itt_string_handle@@PB_W@Z 1000e530 f   itt_notify.obj
 0001:0000d740       ?__itt_counter_createA_init_3_0@@YAPAU___itt_counter@@PBD0@Z 1000e740 f   itt_notify.obj
 0001:0000d9e0       ?__itt_counter_createW_init_3_0@@YAPAU___itt_counter@@PB_W0@Z 1000e9e0 f   itt_notify.obj
 0001:0000dc80       ?__itt_counter_create_typedA_init_3_0@@YAPAU___itt_counter@@PBD0W4__itt_metadata_type@@@Z 1000ec80 f   itt_notify.obj
 0001:0000df20       ?__itt_counter_create_typedW_init_3_0@@YAPAU___itt_counter@@PB_W0W4__itt_metadata_type@@@Z 1000ef20 f   itt_notify.obj
 0001:0000e1c0       ?__itt_pause_init_3_0@@YAXXZ 1000f1c0 f   itt_notify.obj
 0001:0000e220       ?__itt_resume_init_3_0@@YAXXZ 1000f220 f   itt_notify.obj
 0001:0000e280       ?__itt_thread_set_nameA_init_3_0@@YAXPBD@Z 1000f280 f   itt_notify.obj
 0001:0000e2d0       ?__itt_thread_set_nameW_init_3_0@@YAXPB_W@Z 1000f2d0 f   itt_notify.obj
 0001:0000e320       ?__itt_thread_ignore_init_3_0@@YAXXZ 1000f320 f   itt_notify.obj
 0001:0000e370       ?__itt_thr_name_setA_init_3_0@@YAHPBDH@Z 1000f370 f   itt_notify.obj
 0001:0000e390       ?__itt_thr_name_setW_init_3_0@@YAHPB_WH@Z 1000f390 f   itt_notify.obj
 0001:0000e3b0       ?__itt_thr_ignore_init_3_0@@YAXXZ 1000f3b0 f   itt_notify.obj
 0001:0000e3d0       ?__itt_enable_attach_init_3_0@@YAXXZ 1000f3d0 f   itt_notify.obj
 0001:0000e3e0       ?__itt_report_error_impl@@YAXHZZ 1000f3e0 f   itt_notify.obj
 0001:0000e450       ?__itt_fsplit@@YAPBDPBD0PAPBDPAH@Z 1000f450 f   itt_notify.obj
 0001:0000e610       ?__itt_get_env_var@@YAPBDPBD@Z 1000f610 f   itt_notify.obj
 0001:0000e700       ?__itt_get_lib_name@@YAPBDXZ 1000f700 f   itt_notify.obj
 0001:0000e730       ?__itt_get_groups@@YA?AW4___itt_group_id@@XZ 1000f730 f   itt_notify.obj
 0001:0000e964       $LN27                      1000f964     itt_notify.obj
 0001:0000e96c       $LN26                      1000f96c     itt_notify.obj
 0001:0000e990       $LN25                      1000f990     itt_notify.obj
 0001:0000e996       $LN24                      1000f996     itt_notify.obj
 0001:0000e999       $LN23                      1000f999     itt_notify.obj
 0001:0000e9a0       ?__itt_lib_version@@YAHPAUHINSTANCE__@@@Z 1000f9a0 f   itt_notify.obj
 0001:0000ea00       ?__itt_nullify_all_pointers@@YAXXZ 1000fa00 f   itt_notify.obj
 0001:0000f190       ?__TBB_machine_cmpswp4@@YAJPCXHH@Z 10010190 f   cache_aligned_allocator.obj
 0001:0000f1b0       ?pause@msvc_intrinsics@internal@tbb@@YAXI@Z 100101b0 f   cache_aligned_allocator.obj
 0001:0000f1d0       ?DummyMalloc@internal@tbb@@YAPAXI@Z 100101d0 f   cache_aligned_allocator.obj
 0001:0000f220       ?DummyFree@internal@tbb@@YAXPAX@Z 10010220 f   cache_aligned_allocator.obj
 0001:0000f270       ?dummy_padded_allocate@internal@tbb@@YAPAXII@Z 10010270 f   cache_aligned_allocator.obj
 0001:0000f2d0       ?dummy_padded_free@internal@tbb@@YAXPAX@Z 100102d0 f   cache_aligned_allocator.obj
 0001:0000f320       ?padded_allocate@internal@tbb@@YAPAXII@Z 10010320 f   cache_aligned_allocator.obj
 0001:0000f3a0       ?padded_free@internal@tbb@@YAXPAX@Z 100103a0 f   cache_aligned_allocator.obj
 0001:0000f580       ?__TBB_machine_fetchadd4@@YAJPCXH@Z 10010580 f   pipeline.obj
 0001:0000fb08       $LN33                      10010b08     pipeline.obj
 0001:0000fb10       $LN32                      10010b10     pipeline.obj
 0001:0000fb1c       $LN31                      10010b1c     pipeline.obj
 0001:00010034       $LN10                      10011034     pipeline.obj
 0001:0001003c       $LN9                       1001103c     pipeline.obj
 0001:00010048       $LN7                       10011048     pipeline.obj
 0001:00010220       $LN22                      10011220     pipeline.obj
 0001:00010228       $LN21                      10011228     pipeline.obj
 0001:00010234       $LN19                      10011234     pipeline.obj
 0001:00010e28       $LN13                      10011e28     pipeline.obj
 0001:00010e30       $LN12                      10011e30     pipeline.obj
 0001:00010e48       $LN10                      10011e48     pipeline.obj
 0001:00010e4d       $LN9                       10011e4d     pipeline.obj
 0001:00010f5c       $LN5                       10011f5c     pipeline.obj
 0001:00010f64       $LN4                       10011f64     pipeline.obj
 0001:00010f70       $LN3                       10011f70     pipeline.obj
 0001:00012374       $LN41                      10013374     pipeline.obj
 0001:0001237c       $LN40                      1001337c     pipeline.obj
 0001:00012394       $LN38                      10013394     pipeline.obj
 0001:00012399       $LN37                      10013399     pipeline.obj
 0001:00012528       $LN6                       10013528     pipeline.obj
 0001:00012530       $LN5                       10013530     pipeline.obj
 0001:0001253c       $LN4                       1001353c     pipeline.obj
 0001:000129f0       $LN20                      100139f0     pipeline.obj
 0001:000129f8       $LN19                      100139f8     pipeline.obj
 0001:00012a04       $LN17                      10013a04     pipeline.obj
 0001:00012c20       $LN11                      10013c20     pipeline.obj
 0001:00012c28       $LN10                      10013c28     pipeline.obj
 0001:00012c34       $LN8                       10013c34     pipeline.obj
 0001:00012fe0       ?__TBB_machine_cmpswp4@@YAJPCXHH@Z 10013fe0 f   queuing_mutex.obj
 0001:00013000       ?__TBB_machine_fetchstore4@@YAJPCXH@Z 10014000 f   queuing_mutex.obj
 0001:00013010       ?pause@msvc_intrinsics@internal@tbb@@YAXI@Z 10014010 f   queuing_mutex.obj
 0001:00013458       $LN7                       10014458     queuing_mutex.obj
 0001:00013460       $LN6                       10014460     queuing_mutex.obj
 0001:0001346c       $LN5                       1001446c     queuing_mutex.obj
 0001:000134d8       $LN7                       100144d8     queuing_mutex.obj
 0001:000134e0       $LN6                       100144e0     queuing_mutex.obj
 0001:000134ec       $LN5                       100144ec     queuing_mutex.obj
 0001:0001357c       $LN5                       1001457c     queuing_mutex.obj
 0001:00013584       $LN4                       10014584     queuing_mutex.obj
 0001:00013590       $LN3                       10014590     queuing_mutex.obj
 0001:00013690       ?__TBB_machine_cmpswp1@@YADPCXDD@Z 10014690 f   queuing_rw_mutex.obj
 0001:000136b0       ?__TBB_machine_cmpswp4@@YAJPCXHH@Z 100146b0 f   queuing_rw_mutex.obj
 0001:000136d0       ?__TBB_machine_fetchadd4@@YAJPCXH@Z 100146d0 f   queuing_rw_mutex.obj
 0001:000136e0       ?__TBB_machine_fetchstore4@@YAJPCXH@Z 100146e0 f   queuing_rw_mutex.obj
 0001:000136f0       ?pause@msvc_intrinsics@internal@tbb@@YAXI@Z 100146f0 f   queuing_rw_mutex.obj
 0001:00013ae4       $LN38                      10014ae4     queuing_rw_mutex.obj
 0001:00013aec       $LN37                      10014aec     queuing_rw_mutex.obj
 0001:00013af8       $LN36                      10014af8     queuing_rw_mutex.obj
 0001:000140d0       $LN36                      100150d0     queuing_rw_mutex.obj
 0001:000140d8       $LN35                      100150d8     queuing_rw_mutex.obj
 0001:000140e4       $LN34                      100150e4     queuing_rw_mutex.obj
 0001:0001468c       $LN51                      1001568c     queuing_rw_mutex.obj
 0001:00014694       $LN50                      10015694     queuing_rw_mutex.obj
 0001:000146c4       $LN49                      100156c4     queuing_rw_mutex.obj
 0001:000146c9       $LN48                      100156c9     queuing_rw_mutex.obj
 0001:000146cb       $LN47                      100156cb     queuing_rw_mutex.obj
 0001:000146cd       $LN46                      100156cd     queuing_rw_mutex.obj
 0001:00014c8c       $LN7                       10015c8c     queuing_rw_mutex.obj
 0001:00014c94       $LN6                       10015c94     queuing_rw_mutex.obj
 0001:00014ca0       $LN5                       10015ca0     queuing_rw_mutex.obj
 0001:00014d08       $LN7                       10015d08     queuing_rw_mutex.obj
 0001:00014d10       $LN6                       10015d10     queuing_rw_mutex.obj
 0001:00014d1c       $LN5                       10015d1c     queuing_rw_mutex.obj
 0001:00014d88       $LN7                       10015d88     queuing_rw_mutex.obj
 0001:00014d90       $LN6                       10015d90     queuing_rw_mutex.obj
 0001:00014d9c       $LN5                       10015d9c     queuing_rw_mutex.obj
 0001:00014e08       $LN7                       10015e08     queuing_rw_mutex.obj
 0001:00014e10       $LN6                       10015e10     queuing_rw_mutex.obj
 0001:00014e1c       $LN5                       10015e1c     queuing_rw_mutex.obj
 0001:00014e88       $LN7                       10015e88     queuing_rw_mutex.obj
 0001:00014e90       $LN6                       10015e90     queuing_rw_mutex.obj
 0001:00014e9c       $LN5                       10015e9c     queuing_rw_mutex.obj
 0001:00014fec       $LN5                       10015fec     queuing_rw_mutex.obj
 0001:00014ff4       $LN4                       10015ff4     queuing_rw_mutex.obj
 0001:00015000       $LN3                       10016000     queuing_rw_mutex.obj
 0001:0001505c       $LN5                       1001605c     queuing_rw_mutex.obj
 0001:00015064       $LN4                       10016064     queuing_rw_mutex.obj
 0001:00015070       $LN3                       10016070     queuing_rw_mutex.obj
 0001:00015550       ?__TBB_machine_cmpswp4@@YAJPCXHH@Z 10016550 f   reader_writer_lock.obj
 0001:00015570       ?__TBB_machine_fetchadd4@@YAJPCXH@Z 10016570 f   reader_writer_lock.obj
 0001:00015580       ?__TBB_machine_fetchstore4@@YAJPCXH@Z 10016580 f   reader_writer_lock.obj
 0001:00015590       ?pause@msvc_intrinsics@internal@tbb@@YAXI@Z 10016590 f   reader_writer_lock.obj
 0001:000155b0       ?lock_or@msvc_intrinsics@internal@tbb@@YAXPCXH@Z 100165b0 f   reader_writer_lock.obj
 0001:000159a0       $LN9                       100169a0     reader_writer_lock.obj
 0001:000159a8       $LN8                       100169a8     reader_writer_lock.obj
 0001:000159b4       $LN6                       100169b4     reader_writer_lock.obj
 0001:00015f10       $LN24                      10016f10     reader_writer_lock.obj
 0001:00015f18       $LN23                      10016f18     reader_writer_lock.obj
 0001:00015f24       $LN22                      10016f24     reader_writer_lock.obj
 0001:0001657c       $LN7                       1001757c     reader_writer_lock.obj
 0001:00016584       $LN6                       10017584     reader_writer_lock.obj
 0001:00016590       $LN5                       10017590     reader_writer_lock.obj
 0001:000165f8       $LN7                       100175f8     reader_writer_lock.obj
 0001:00016600       $LN6                       10017600     reader_writer_lock.obj
 0001:0001660c       $LN5                       1001760c     reader_writer_lock.obj
 0001:0001667c       $LN7                       1001767c     reader_writer_lock.obj
 0001:00016684       $LN6                       10017684     reader_writer_lock.obj
 0001:00016690       $LN5                       10017690     reader_writer_lock.obj
 0001:000166fc       $LN7                       100176fc     reader_writer_lock.obj
 0001:00016704       $LN6                       10017704     reader_writer_lock.obj
 0001:00016710       $LN5                       10017710     reader_writer_lock.obj
 0001:0001691c       $LN5                       1001791c     reader_writer_lock.obj
 0001:00016924       $LN4                       10017924     reader_writer_lock.obj
 0001:00016930       $LN3                       10017930     reader_writer_lock.obj
 0001:0001698c       $LN5                       1001798c     reader_writer_lock.obj
 0001:00016994       $LN4                       10017994     reader_writer_lock.obj
 0001:000169a0       $LN3                       100179a0     reader_writer_lock.obj
 0001:000169fc       $LN5                       100179fc     reader_writer_lock.obj
 0001:00016a04       $LN4                       10017a04     reader_writer_lock.obj
 0001:00016a10       $LN3                       10017a10     reader_writer_lock.obj
 0001:0001708c       $LN9                       1001808c     reader_writer_lock.obj
 0001:00017094       $LN8                       10018094     reader_writer_lock.obj
 0001:000170a0       $LN7                       100180a0     reader_writer_lock.obj
 0001:0001712c       $LN9                       1001812c     reader_writer_lock.obj
 0001:00017134       $LN8                       10018134     reader_writer_lock.obj
 0001:00017140       $LN7                       10018140     reader_writer_lock.obj
 0001:00017330       ?__TBB_machine_cmpswp4@@YAJPCXHH@Z 10018330 f   spin_rw_mutex.obj
 0001:00017350       ?__TBB_machine_fetchadd4@@YAJPCXH@Z 10018350 f   spin_rw_mutex.obj
 0001:00017360       ?pause@msvc_intrinsics@internal@tbb@@YAXI@Z 10018360 f   spin_rw_mutex.obj
 0001:00017380       ?lock_or@msvc_intrinsics@internal@tbb@@YAXPCXH@Z 10018380 f   spin_rw_mutex.obj
 0001:000173a0       ?lock_and@msvc_intrinsics@internal@tbb@@YAXPCXH@Z 100183a0 f   spin_rw_mutex.obj
 0001:000174a0       $LN16                      100184a0     spin_rw_mutex.obj
 0001:000174a8       $LN15                      100184a8     spin_rw_mutex.obj
 0001:000174b4       $LN14                      100184b4     spin_rw_mutex.obj
 0001:00017608       $LN16                      10018608     spin_rw_mutex.obj
 0001:00017610       $LN15                      10018610     spin_rw_mutex.obj
 0001:0001761c       $LN14                      1001861c     spin_rw_mutex.obj
 0001:00017784       $LN19                      10018784     spin_rw_mutex.obj
 0001:0001778c       $LN18                      1001878c     spin_rw_mutex.obj
 0001:00017798       $LN17                      10018798     spin_rw_mutex.obj
 0001:00017a00       ??$CAS@H@tbb@@YAHACHHH@Z   10018a00 f   spin_rw_mutex.obj
 0001:00017b0c       $LN5                       10018b0c     spin_rw_mutex.obj
 0001:00017b14       $LN4                       10018b14     spin_rw_mutex.obj
 0001:00017b20       $LN3                       10018b20     spin_rw_mutex.obj
 0001:00017bc0       ?pause@msvc_intrinsics@internal@tbb@@YAXI@Z 10018bc0 f   x86_rtm_rw_mutex.obj
 0001:00017d7c       $LN22                      10018d7c     x86_rtm_rw_mutex.obj
 0001:00017d84       $LN21                      10018d84     x86_rtm_rw_mutex.obj
 0001:00017d90       $LN20                      10018d90     x86_rtm_rw_mutex.obj
 0001:00017ed8       $LN20                      10018ed8     x86_rtm_rw_mutex.obj
 0001:00017ee0       $LN19                      10018ee0     x86_rtm_rw_mutex.obj
 0001:00017eec       $LN18                      10018eec     x86_rtm_rw_mutex.obj
 0001:000182e8       $LN20                      100192e8     x86_rtm_rw_mutex.obj
 0001:00018560       ?__TBB_machine_cmpswp1@@YADPCXDD@Z 10019560 f   spin_mutex.obj
 0001:00018580       ?pause@msvc_intrinsics@internal@tbb@@YAXI@Z 10019580 f   spin_mutex.obj
 0001:00018804       $LN7                       10019804     spin_mutex.obj
 0001:0001880c       $LN6                       1001980c     spin_mutex.obj
 0001:00018818       $LN5                       10019818     spin_mutex.obj
 0001:00019070       ?__TBB_machine_cmpswp4@@YAJPCXHH@Z 1001a070 f   condition_variable.obj
 0001:00019090       ?pause@msvc_intrinsics@internal@tbb@@YAXI@Z 1001a090 f   condition_variable.obj
 0001:00019738       $LN7                       1001a738     condition_variable.obj
 0001:00019740       $LN6                       1001a740     condition_variable.obj
 0001:0001974c       $LN5                       1001a74c     condition_variable.obj
 0001:00019958       $LN7                       1001a958     condition_variable.obj
 0001:00019960       $LN6                       1001a960     condition_variable.obj
 0001:0001996c       $LN5                       1001a96c     condition_variable.obj
 0001:00019c58       $LN7                       1001ac58     tbb_thread.obj
 0001:00019c60       $LN6                       1001ac60     tbb_thread.obj
 0001:00019c6c       $LN5                       1001ac6c     tbb_thread.obj
 0001:00019e18       $LN12                      1001ae18     tbb_thread.obj
 0001:00019e20       $LN11                      1001ae20     tbb_thread.obj
 0001:00019e38       $LN10                      1001ae38     tbb_thread.obj
 0001:00019e3b       $LN9                       1001ae3b     tbb_thread.obj
 0001:0001a0f4       $LN8                       1001b0f4     tbb_thread.obj
 0001:0001a0fc       $LN7                       1001b0fc     tbb_thread.obj
 0001:0001a114       $LN6                       1001b114     tbb_thread.obj
 0001:0001a11a       $LN5                       1001b11a     tbb_thread.obj
 0001:0001a31c       $LN10                      1001b31c     concurrent_monitor.obj
 0001:0001a324       $LN9                       1001b324     concurrent_monitor.obj
 0001:0001a330       $LN7                       1001b330     concurrent_monitor.obj
 0001:0001a420       $LN9                       1001b420     concurrent_monitor.obj
 0001:0001a428       $LN8                       1001b428     concurrent_monitor.obj
 0001:0001a434       $LN6                       1001b434     concurrent_monitor.obj
 0001:0001a574       $LN10                      1001b574     concurrent_monitor.obj
 0001:0001a57c       $LN9                       1001b57c     concurrent_monitor.obj
 0001:0001a588       $LN7                       1001b588     concurrent_monitor.obj
 0001:0001a700       $LN16                      1001b700     concurrent_monitor.obj
 0001:0001a708       $LN15                      1001b708     concurrent_monitor.obj
 0001:0001a720       $LN13                      1001b720     concurrent_monitor.obj
 0001:0001a722       $LN12                      1001b722     concurrent_monitor.obj
 0001:0001a8b0       $LN16                      1001b8b0     concurrent_monitor.obj
 0001:0001a8b8       $LN15                      1001b8b8     concurrent_monitor.obj
 0001:0001a8d0       $LN13                      1001b8d0     concurrent_monitor.obj
 0001:0001a8d2       $LN12                      1001b8d2     concurrent_monitor.obj
 0001:0001a9b0       ?__TBB_machine_fetchstore1@@YADPCXD@Z 1001b9b0 f   private_server.obj
 0001:0001a9c0       ?__TBB_machine_cmpswp4@@YAJPCXHH@Z 1001b9c0 f   private_server.obj
 0001:0001a9e0       ?__TBB_machine_fetchadd4@@YAJPCXH@Z 1001b9e0 f   private_server.obj
 0001:0001ac6c       $LN13                      1001bc6c     private_server.obj
 0001:0001ac74       $LN12                      1001bc74     private_server.obj
 0001:0001ac80       $LN11                      1001bc80     private_server.obj
 0001:0001ae2c       $LN7                       1001be2c     private_server.obj
 0001:0001ae34       $LN6                       1001be34     private_server.obj
 0001:0001ae40       $LN5                       1001be40     private_server.obj
 0001:0001b048       $LN25                      1001c048     private_server.obj
 0001:0001b050       $LN24                      1001c050     private_server.obj
 0001:0001b068       $LN22                      1001c068     private_server.obj
 0001:0001b06d       $LN21                      1001c06d     private_server.obj
 0001:0001b75c       $LN5                       1001c75c     private_server.obj
 0001:0001b764       $LN4                       1001c764     private_server.obj
 0001:0001b770       $LN3                       1001c770     private_server.obj
 0001:0001b7cc       $LN5                       1001c7cc     private_server.obj
 0001:0001b7d4       $LN4                       1001c7d4     private_server.obj
 0001:0001b7e0       $LN3                       1001c7e0     private_server.obj
 0001:0001b83c       $LN5                       1001c83c     private_server.obj
 0001:0001b844       $LN4                       1001c844     private_server.obj
 0001:0001b850       $LN3                       1001c850     private_server.obj
 0001:0001c420       $LN11                      1001d420     private_server.obj
 0001:0001c428       $LN10                      1001d428     private_server.obj
 0001:0001c434       $LN9                       1001d434     private_server.obj
 0001:0001c8b0       $LN10                      1001d8b0     private_server.obj
 0001:0001c8b8       $LN9                       1001d8b8     private_server.obj
 0001:0001c8c4       $LN7                       1001d8c4     private_server.obj
 0001:0001cbf4       $LN11                      1001dbf4     rml_tbb.obj
 0001:0001cbfc       $LN10                      1001dbfc     rml_tbb.obj
 0001:0001cc20       $LN9                       1001dc20     rml_tbb.obj
 0001:0001cc2f       $LN8                       1001dc2f     rml_tbb.obj
 0001:0001cc41       $LN7                       1001dc41     rml_tbb.obj
 0001:0001d004       $LN9                       1001e004     tbb_misc.obj
 0001:0001d00c       $LN8                       1001e00c     tbb_misc.obj
 0001:0001d018       $LN7                       1001e018     tbb_misc.obj
 0001:0001d0e8       $LN5                       1001e0e8     tbb_misc.obj
 0001:0001d0f0       $LN4                       1001e0f0     tbb_misc.obj
 0001:0001d0fc       $LN3                       1001e0fc     tbb_misc.obj
 0001:0001d4c4       $LN28                      1001e4c4     tbb_misc.obj
 0001:0001d520       ?__TBB_machine_fetchadd4@@YAJPCXH@Z 1001e520 f   tbb_misc.obj
 0001:0001d530       ?pause@msvc_intrinsics@internal@tbb@@YAXI@Z 1001e530 f   tbb_misc.obj
 0001:0001d5a0       $LN5                       1001e5a0     tbb_misc.obj
 0001:0001d5a8       $LN4                       1001e5a8     tbb_misc.obj
 0001:0001d5b4       $LN3                       1001e5b4     tbb_misc.obj
 0001:0001d664       $LN5                       1001e664     tbb_misc.obj
 0001:0001d66c       $LN4                       1001e66c     tbb_misc.obj
 0001:0001d678       $LN3                       1001e678     tbb_misc.obj
 0001:0001d7a8       $LN6                       1001e7a8     tbb_misc.obj
 0001:0001d7b0       $LN5                       1001e7b0     tbb_misc.obj
 0001:0001d7bc       $LN4                       1001e7bc     tbb_misc.obj
 0001:0001d898       $LN7                       1001e898     tbb_misc.obj
 0001:0001d8a0       $LN6                       1001e8a0     tbb_misc.obj
 0001:0001d8ac       $LN5                       1001e8ac     tbb_misc.obj
 0001:0001da18       $LN9                       1001ea18     tbb_misc.obj
 0001:0001da20       $LN8                       1001ea20     tbb_misc.obj
 0001:0001da2c       $LN7                       1001ea2c     tbb_misc.obj
 0001:0001dc34       $LN5                       1001ec34     tbb_misc.obj
 0001:0001dc3c       $LN4                       1001ec3c     tbb_misc.obj
 0001:0001dc48       $LN3                       1001ec48     tbb_misc.obj
 0001:0001e9e0       ?__TBB_machine_cmpswp4@@YAJPCXHH@Z 1001f9e0 f   tbb_misc_ex.obj
 0001:0001ea00       ?pause@msvc_intrinsics@internal@tbb@@YAXI@Z 1001fa00 f   tbb_misc_ex.obj
 0001:0001ed2c       $LN8                       1001fd2c     tbb_misc_ex.obj
 0001:0001ed34       $LN7                       1001fd34     tbb_misc_ex.obj
 0001:0001ed40       $LN6                       1001fd40     tbb_misc_ex.obj
 0001:0001ed50       ?initialize_hardware_concurrency_info@internal@tbb@@YAXXZ 1001fd50 f   tbb_misc_ex.obj
 0001:0001f070       $LN33                      10020070     tbb_misc_ex.obj
 0001:0001f078       $LN32                      10020078     tbb_misc_ex.obj
 0001:0001f0a8       $LN31                      100200a8     tbb_misc_ex.obj
 0001:0001f0ab       $LN30                      100200ab     tbb_misc_ex.obj
 0001:0001f0af       $LN29                      100200af     tbb_misc_ex.obj
 0001:0001f0b3       $LN28                      100200b3     tbb_misc_ex.obj
 0001:0001f0c0       ?__TBB_machine_fetchadd4@@YAJPCXH@Z 100200c0 f   task.obj
 0001:00020370       ?__TBB_machine_cmpswp4@@YAJPCXHH@Z 10021370 f   task_group_context.obj
 0001:00020390       ?__TBB_machine_fetchadd4@@YAJPCXH@Z 10021390 f   task_group_context.obj
 0001:000203a0       ?__TBB_machine_fetchstore4@@YAJPCXH@Z 100213a0 f   task_group_context.obj
 0001:000203b0       ?pause@msvc_intrinsics@internal@tbb@@YAXI@Z 100213b0 f   task_group_context.obj
 0001:00020694       $LN20                      10021694     task_group_context.obj
 0001:0002069c       $LN19                      1002169c     task_group_context.obj
 0001:000206b4       $LN17                      100216b4     task_group_context.obj
 0001:000206b9       $LN16                      100216b9     task_group_context.obj
 0001:0002084e       __catch$?register_pending_exception@task_group_context@tbb@@QAEXXZ$0 1002184e f   task_group_context.obj
 0001:00020898       __catch$?register_pending_exception@task_group_context@tbb@@QAEXXZ$1 10021898 f   task_group_context.obj
 0001:00020912       __catch$?register_pending_exception@task_group_context@tbb@@QAEXXZ$2 10021912 f   task_group_context.obj
 0001:000209c0       $LN28                      100219c0     task_group_context.obj
 0001:000209c8       $LN27                      100219c8     task_group_context.obj
 0001:000209e0       $LN25                      100219e0     task_group_context.obj
 0001:000209e4       $LN24                      100219e4     task_group_context.obj
 0001:00020f0c       $LN15                      10021f0c     task_group_context.obj
 0001:00020f14       $LN14                      10021f14     task_group_context.obj
 0001:00020f20       $LN13                      10021f20     task_group_context.obj
 0001:000210c0       $LN11                      100220c0     task_group_context.obj
 0001:000210c8       $LN10                      100220c8     task_group_context.obj
 0001:000210d4       $LN8                       100220d4     task_group_context.obj
 0001:0002197c       $LN12                      1002297c     task_group_context.obj
 0001:00021984       $LN11                      10022984     task_group_context.obj
 0001:00021990       $LN9                       10022990     task_group_context.obj
 0001:00021b34       $LN17                      10022b34     task_group_context.obj
 0001:00021b3c       $LN16                      10022b3c     task_group_context.obj
 0001:00021b54       $LN14                      10022b54     task_group_context.obj
 0001:00021b57       $LN13                      10022b57     task_group_context.obj
 0001:00021d6c       $LN12                      10022d6c     task_group_context.obj
 0001:00021d74       $LN11                      10022d74     task_group_context.obj
 0001:00021d80       $LN9                       10022d80     task_group_context.obj
 0001:00021f24       $LN17                      10022f24     task_group_context.obj
 0001:00021f2c       $LN16                      10022f2c     task_group_context.obj
 0001:00021f44       $LN14                      10022f44     task_group_context.obj
 0001:00021f47       $LN13                      10022f47     task_group_context.obj
 0001:000221ec       $LN5                       100231ec     task_group_context.obj
 0001:000221f4       $LN4                       100231f4     task_group_context.obj
 0001:00022200       $LN3                       10023200     task_group_context.obj
 0001:0002225c       $LN5                       1002325c     task_group_context.obj
 0001:00022264       $LN4                       10023264     task_group_context.obj
 0001:00022270       $LN3                       10023270     task_group_context.obj
 0001:000226f8       $LN5                       100236f8     task_group_context.obj
 0001:00022700       $LN4                       10023700     task_group_context.obj
 0001:0002270c       $LN3                       1002370c     task_group_context.obj
 0001:000228a4       $LN9                       100238a4     task_group_context.obj
 0001:000228ac       $LN8                       100238ac     task_group_context.obj
 0001:000228b8       $LN7                       100238b8     task_group_context.obj
 0001:00022924       $LN5                       10023924     task_group_context.obj
 0001:0002292c       $LN4                       1002392c     task_group_context.obj
 0001:00022938       $LN3                       10023938     task_group_context.obj
 0001:00022c58       $LN5                       10023c58     task_group_context.obj
 0001:00022c60       $LN4                       10023c60     task_group_context.obj
 0001:00022c6c       $LN3                       10023c6c     task_group_context.obj
 0001:00022d94       $LN5                       10023d94     task_group_context.obj
 0001:00022d9c       $LN4                       10023d9c     task_group_context.obj
 0001:00022da8       $LN3                       10023da8     task_group_context.obj
 0001:000230f0       ?__TBB_machine_cmpswp4@@YAJPCXHH@Z 100240f0 f   governor.obj
 0001:00023110       ?pause@msvc_intrinsics@internal@tbb@@YAXI@Z 10024110 f   governor.obj
 0001:00023568       $LN12                      10024568     governor.obj
 0001:00023570       $LN11                      10024570     governor.obj
 0001:0002357c       $LN10                      1002457c     governor.obj
 0001:00023aec       $LN12                      10024aec     governor.obj
 0001:00023af4       $LN11                      10024af4     governor.obj
 0001:00023b00       $LN10                      10024b00     governor.obj
 0001:00023f80       ?dummy_allocate_binding_handler@internal@tbb@@YAPAVbinding_handler@12@H@Z 10024f80 f   governor.obj
 0001:00023f90       ?dummy_deallocate_binding_handler@internal@tbb@@YAXPAVbinding_handler@12@@Z 10024f90 f   governor.obj
 0001:00023fa0       ?dummy_bind_to_node@internal@tbb@@YAXPAVbinding_handler@12@HH@Z 10024fa0 f   governor.obj
 0001:00023fb0       ?dummy_restore_affinity@internal@tbb@@YAXPAVbinding_handler@12@H@Z 10024fb0 f   governor.obj
 0001:000241bc       $LN14                      100251bc     governor.obj
 0001:000241c4       $LN13                      100251c4     governor.obj
 0001:000241d0       $LN11                      100251d0     governor.obj
 0001:00024440       ?__TBB_machine_cmpswp4@@YAJPCXHH@Z 10025440 f   market.obj
 0001:00024460       ?__TBB_machine_fetchadd4@@YAJPCXH@Z 10025460 f   market.obj
 0001:00024908       $LN24                      10025908     market.obj
 0001:00024910       $LN23                      10025910     market.obj
 0001:0002491c       $LN21                      1002591c     market.obj
 0001:00024bd8       $LN12                      10025bd8     market.obj
 0001:00024be0       $LN11                      10025be0     market.obj
 0001:00024bec       $LN9                       10025bec     market.obj
 0001:00024db0       $LN20                      10025db0     market.obj
 0001:00024db8       $LN19                      10025db8     market.obj
 0001:00024dc4       $LN18                      10025dc4     market.obj
 0001:0002508c       $LN9                       1002608c     market.obj
 0001:00025094       $LN8                       10026094     market.obj
 0001:000250a0       $LN7                       100260a0     market.obj
 0001:000251e8       $LN13                      100261e8     market.obj
 0001:000251f0       $LN12                      100261f0     market.obj
 0001:000251fc       $LN11                      100261fc     market.obj
 0001:000253e4       $LN22                      100263e4     market.obj
 0001:000253ec       $LN21                      100263ec     market.obj
 0001:00025404       $LN20                      10026404     market.obj
 0001:0002540d       $LN19                      1002640d     market.obj
 0001:0002549c       $LN10                      1002649c     market.obj
 0001:000254a4       $LN9                       100264a4     market.obj
 0001:000254b0       $LN8                       100264b0     market.obj
 0001:000258f8       $LN11                      100268f8     market.obj
 0001:00025900       $LN10                      10026900     market.obj
 0001:0002590c       $LN8                       1002690c     market.obj
 0001:00025b30       $LN24                      10026b30     market.obj
 0001:00025b38       $LN23                      10026b38     market.obj
 0001:00025b44       $LN22                      10026b44     market.obj
 0001:00025e94       $LN27                      10026e94     market.obj
 0001:00025e9c       $LN26                      10026e9c     market.obj
 0001:00025ea8       $LN24                      10026ea8     market.obj
 0001:00026040       $LN10                      10027040     market.obj
 0001:00026048       $LN9                       10027048     market.obj
 0001:00026054       $LN7                       10027054     market.obj
 0001:00026230       $LN12                      10027230     market.obj
 0001:00026238       $LN11                      10027238     market.obj
 0001:00026244       $LN9                       10027244     market.obj
 0001:000269ec       $LN34                      100279ec     market.obj
 0001:000269f4       $LN33                      100279f4     market.obj
 0001:00026a24       $LN31                      10027a24     market.obj
 0001:00026a27       $LN30                      10027a27     market.obj
 0001:00026a2a       $LN29                      10027a2a     market.obj
 0001:00026a2f       $LN28                      10027a2f     market.obj
 0001:00026c34       $LN20                      10027c34     market.obj
 0001:00026c3c       $LN19                      10027c3c     market.obj
 0001:00026c48       $LN17                      10027c48     market.obj
 0001:00027060       $LN47                      10028060     market.obj
 0001:00027068       $LN46                      10028068     market.obj
 0001:00027080       $LN44                      10028080     market.obj
 0001:00027082       $LN43                      10028082     market.obj
 0001:000270b0       ?calc_workers_soft_limit@internal@tbb@@YAIII@Z 100280b0 f   market.obj
 0001:0002730c       $LN5                       1002830c     market.obj
 0001:00027314       $LN4                       10028314     market.obj
 0001:00027320       $LN3                       10028320     market.obj
 0001:00028080       ?__TBB_machine_cmpswp4@@YAJPCXHH@Z 10029080 f   arena.obj
 0001:000280a0       ?__TBB_machine_fetchadd4@@YAJPCXH@Z 100290a0 f   arena.obj
 0001:000280b0       ?pause@msvc_intrinsics@internal@tbb@@YAXI@Z 100290b0 f   arena.obj
 0001:000280d0       ?lg_bsr@msvc_intrinsics@internal@tbb@@YAII@Z 100290d0 f   arena.obj
 0001:0002810c       $LN5                       1002910c     arena.obj
 0001:00028114       $LN4                       10029114     arena.obj
 0001:00028120       $LN3                       10029120     arena.obj
 0001:00028130       ?lock_or@msvc_intrinsics@internal@tbb@@YAXPCXH@Z 10029130 f   arena.obj
 0001:00028150       ?lock_and@msvc_intrinsics@internal@tbb@@YAXPCXH@Z 10029150 f   arena.obj
 0001:00028f69       __catch$?internal_execute@task_arena_base@internal@interface7@tbb@@IBEXAAVdelegate_base@234@@Z$0 10029f69 f   arena.obj
 0001:00029060       $LN57                      1002a060     arena.obj
 0001:00029068       $LN56                      1002a068     arena.obj
 0001:000290bc       $LN54                      1002a0bc     arena.obj
 0001:000290d0       $LN53                      1002a0d0     arena.obj
 0001:000290d6       $LN52                      1002a0d6     arena.obj
 0001:000290e4       $LN51                      1002a0e4     arena.obj
 0001:000290ea       $LN50                      1002a0ea     arena.obj
 0001:000290ef       $LN49                      1002a0ef     arena.obj
 0001:000290fc       $LN48                      1002a0fc     arena.obj
 0001:000293c4       $LN33                      1002a3c4     arena.obj
 0001:000293cc       $LN32                      1002a3cc     arena.obj
 0001:000293e4       $LN30                      1002a3e4     arena.obj
 0001:000293eb       $LN29                      1002a3eb     arena.obj
 0001:0002960c       $LN11                      1002a60c     arena.obj
 0001:00029614       $LN10                      1002a614     arena.obj
 0001:00029620       $LN8                       1002a620     arena.obj
 0001:0002a38c       $LN48                      1002b38c     arena.obj
 0001:0002a394       $LN47                      1002b394     arena.obj
 0001:0002a3b8       $LN46                      1002b3b8     arena.obj
 0001:0002a3cb       $LN45                      1002b3cb     arena.obj
 0001:0002a3d9       $LN44                      1002b3d9     arena.obj
 0001:0002af00       ?occupy_slot@internal@tbb@@YA_NAAPAVgeneric_scheduler@12@AAV312@@Z 1002bf00 f   arena.obj
 0001:0002b874       $LN8                       1002c874     arena.obj
 0001:0002b87c       $LN7                       1002c87c     arena.obj
 0001:0002b888       $LN6                       1002c888     arena.obj
 0001:0002b924       $LN8                       1002c924     arena.obj
 0001:0002b92c       $LN7                       1002c92c     arena.obj
 0001:0002b938       $LN6                       1002c938     arena.obj
 0001:0002bed0       $LN17                      1002ced0     arena.obj
 0001:0002bed8       $LN16                      1002ced8     arena.obj
 0001:0002bef0       $LN14                      1002cef0     arena.obj
 0001:0002bef2       $LN13                      1002cef2     arena.obj
 0001:0002c348       $LN7                       1002d348     arena.obj
 0001:0002c350       $LN6                       1002d350     arena.obj
 0001:0002c35c       $LN5                       1002d35c     arena.obj
 0001:0002c5cc       $LN5                       1002d5cc     arena.obj
 0001:0002c5d4       $LN4                       1002d5d4     arena.obj
 0001:0002c5e0       $LN3                       1002d5e0     arena.obj
 0001:0002c63c       $LN5                       1002d63c     arena.obj
 0001:0002c644       $LN4                       1002d644     arena.obj
 0001:0002c650       $LN3                       1002d650     arena.obj
 0001:0002c6ac       $LN5                       1002d6ac     arena.obj
 0001:0002c6b4       $LN4                       1002d6b4     arena.obj
 0001:0002c6c0       $LN3                       1002d6c0     arena.obj
 0001:0002c71c       $LN5                       1002d71c     arena.obj
 0001:0002c724       $LN4                       1002d724     arena.obj
 0001:0002c730       $LN3                       1002d730     arena.obj
 0001:0002c800       $LN7                       1002d800     arena.obj
 0001:0002c808       $LN6                       1002d808     arena.obj
 0001:0002c82c       $LN5                       1002d82c     arena.obj
 0001:0002c833       $LN4                       1002d833     arena.obj
 0001:0002c83a       $LN3                       1002d83a     arena.obj
 0001:0002d430       $LN5                       1002e430     arena.obj
 0001:0002d438       $LN4                       1002e438     arena.obj
 0001:0002d444       $LN3                       1002e444     arena.obj
 0001:0002d66c       $LN5                       1002e66c     arena.obj
 0001:0002d674       $LN4                       1002e674     arena.obj
 0001:0002d680       $LN3                       1002e680     arena.obj
 0001:0002e48c       $LN9                       1002f48c     arena.obj
 0001:0002e494       $LN8                       1002f494     arena.obj
 0001:0002e4ac       $LN7                       1002f4ac     arena.obj
 0001:0002e4b2       $LN6                       1002f4b2     arena.obj
 0001:0002e96c       $LN14                      1002f96c     arena.obj
 0001:0002e974       $LN13                      1002f974     arena.obj
 0001:0002e980       $LN12                      1002f980     arena.obj
 0001:0002eb88       $LN9                       1002fb88     arena.obj
 0001:0002eb90       $LN8                       1002fb90     arena.obj
 0001:0002eb9c       $LN7                       1002fb9c     arena.obj
 0001:0002eda4       $LN13                      1002fda4     arena.obj
 0001:0002edac       $LN12                      1002fdac     arena.obj
 0001:0002edb8       $LN11                      1002fdb8     arena.obj
 0001:0002ef3c       $LN13                      1002ff3c     arena.obj
 0001:0002ef44       $LN12                      1002ff44     arena.obj
 0001:0002ef50       $LN10                      1002ff50     arena.obj
 0001:0002f890       $LN21                      10030890     arena.obj
 0001:0002f898       $LN20                      10030898     arena.obj
 0001:0002f8b0       $LN18                      100308b0     arena.obj
 0001:0002f8b3       $LN17                      100308b3     arena.obj
 0001:0002fb40       $LN9                       10030b40     arena.obj
 0001:0002fb48       $LN8                       10030b48     arena.obj
 0001:0002fb54       $LN6                       10030b54     arena.obj
 0001:00030acc       $LN11                      10031acc     arena.obj
 0001:00030ad4       $LN10                      10031ad4     arena.obj
 0001:00030ae0       $LN8                       10031ae0     arena.obj
 0001:00030f60       ?__TBB_machine_cmpswp4@@YAJPCXHH@Z 10031f60 f   scheduler.obj
 0001:00030f80       ?__TBB_machine_fetchadd4@@YAJPCXH@Z 10031f80 f   scheduler.obj
 0001:00030f90       ?__TBB_machine_fetchstore4@@YAJPCXH@Z 10031f90 f   scheduler.obj
 0001:00030fa0       ?pause@msvc_intrinsics@internal@tbb@@YAXI@Z 10031fa0 f   scheduler.obj
 0001:00030fc0       ?lock_and@msvc_intrinsics@internal@tbb@@YAXPCXH@Z 10031fc0 f   scheduler.obj
 0001:00030fe0       ?__TBB_machine_time_stamp@@YA_KXZ 10031fe0 f   scheduler.obj
 0001:00031850       $LN16                      10032850     scheduler.obj
 0001:00031858       $LN15                      10032858     scheduler.obj
 0001:00031864       $LN13                      10032864     scheduler.obj
 0001:00031b74       $LN27                      10032b74     scheduler.obj
 0001:00031b7c       $LN26                      10032b7c     scheduler.obj
 0001:00031b88       $LN24                      10032b88     scheduler.obj
 0001:00032298       $LN23                      10033298     scheduler.obj
 0001:000322a0       $LN22                      100332a0     scheduler.obj
 0001:000322b8       $LN20                      100332b8     scheduler.obj
 0001:000322be       $LN19                      100332be     scheduler.obj
 0001:000324e0       $LN20                      100334e0     scheduler.obj
 0001:000324e8       $LN19                      100334e8     scheduler.obj
 0001:000324f4       $LN17                      100334f4     scheduler.obj
 0001:00032f18       $LN26                      10033f18     scheduler.obj
 0001:00032f20       $LN25                      10033f20     scheduler.obj
 0001:00032f44       $LN23                      10033f44     scheduler.obj
 0001:00032f46       $LN22                      10033f46     scheduler.obj
 0001:00032f4c       $LN21                      10033f4c     scheduler.obj
 0001:00033174       $LN21                      10034174     scheduler.obj
 0001:0003317c       $LN20                      1003417c     scheduler.obj
 0001:00033188       $LN18                      10034188     scheduler.obj
 0001:000333b0       $LN18                      100343b0     scheduler.obj
 0001:000333b8       $LN17                      100343b8     scheduler.obj
 0001:000333c4       $LN16                      100343c4     scheduler.obj
 0001:000335a8       $LN17                      100345a8     scheduler.obj
 0001:000335b0       $LN16                      100345b0     scheduler.obj
 0001:000335bc       $LN14                      100345bc     scheduler.obj
 0001:0003447c       $LN5                       1003547c     scheduler.obj
 0001:00034484       $LN4                       10035484     scheduler.obj
 0001:00034490       $LN3                       10035490     scheduler.obj
 0001:000344ec       $LN5                       100354ec     scheduler.obj
 0001:000344f4       $LN4                       100354f4     scheduler.obj
 0001:00034500       $LN3                       10035500     scheduler.obj
 0001:00034dc0       $LN22                      10035dc0     scheduler.obj
 0001:00034dc8       $LN21                      10035dc8     scheduler.obj
 0001:00034dd4       $LN20                      10035dd4     scheduler.obj
 0001:000359e8       $LN45                      100369e8     scheduler.obj
 0001:000359f0       $LN44                      100369f0     scheduler.obj
 0001:000359fc       $LN43                      100369fc     scheduler.obj
 0001:00035de4       $LN22                      10036de4     scheduler.obj
 0001:00035dec       $LN21                      10036dec     scheduler.obj
 0001:00035df8       $LN20                      10036df8     scheduler.obj
 0001:00036747       __catch$?local_wait_for_all@?$custom_scheduler@UDefaultSchedulerTraits@internal@tbb@@@internal@tbb@@EAEXAAVtask@3@PAV43@@Z$2 10037747 f i scheduler.obj
 0001:000367c1       __catch$?local_wait_for_all@?$custom_scheduler@UDefaultSchedulerTraits@internal@tbb@@@internal@tbb@@EAEXAAVtask@3@PAV43@@Z$3 100377c1 f i scheduler.obj
 0001:0003686f       __catch$?local_wait_for_all@?$custom_scheduler@UDefaultSchedulerTraits@internal@tbb@@@internal@tbb@@EAEXAAVtask@3@PAV43@@Z$4 1003786f f i scheduler.obj
 0001:00036c70       $LN118                     10037c70     scheduler.obj
 0001:00036c78       $LN117                     10037c78     scheduler.obj
 0001:00036ca8       $LN115                     10037ca8     scheduler.obj
 0001:00036cac       $LN114                     10037cac     scheduler.obj
 0001:00036cb0       $LN113                     10037cb0     scheduler.obj
 0001:00036cbf       $LN112                     10037cbf     scheduler.obj
 0001:000372b2       __catch$?local_wait_for_all@?$custom_scheduler@UIntelSchedulerTraits@internal@tbb@@@internal@tbb@@EAEXAAVtask@3@PAV43@@Z$2 100382b2 f i scheduler.obj
 0001:0003732c       __catch$?local_wait_for_all@?$custom_scheduler@UIntelSchedulerTraits@internal@tbb@@@internal@tbb@@EAEXAAVtask@3@PAV43@@Z$3 1003832c f i scheduler.obj
 0001:000373da       __catch$?local_wait_for_all@?$custom_scheduler@UIntelSchedulerTraits@internal@tbb@@@internal@tbb@@EAEXAAVtask@3@PAV43@@Z$4 100383da f i scheduler.obj
 0001:000377d0       $LN118                     100387d0     scheduler.obj
 0001:000377d8       $LN117                     100387d8     scheduler.obj
 0001:00037808       $LN115                     10038808     scheduler.obj
 0001:0003780c       $LN114                     1003880c     scheduler.obj
 0001:00037810       $LN113                     10038810     scheduler.obj
 0001:0003781f       $LN112                     1003881f     scheduler.obj
 0001:00037978       $LN22                      10038978     scheduler.obj
 0001:00037980       $LN21                      10038980     scheduler.obj
 0001:0003798c       $LN20                      1003898c     scheduler.obj
 0001:00037c48       $LN13                      10038c48     scheduler.obj
 0001:00037c50       $LN12                      10038c50     scheduler.obj
 0001:00037c5c       $LN10                      10038c5c     scheduler.obj
 0001:00038920       $LN64                      10039920     scheduler.obj
 0001:00038928       $LN63                      10039928     scheduler.obj
 0001:00038934       $LN62                      10039934     scheduler.obj
 0001:0003893c       $LN61                      1003993c     scheduler.obj
 0001:00038f64       $LN64                      10039f64     scheduler.obj
 0001:00038f6c       $LN63                      10039f6c     scheduler.obj
 0001:00038f78       $LN62                      10039f78     scheduler.obj
 0001:00038f80       $LN61                      10039f80     scheduler.obj
 0001:00039054       $LN11                      1003a054     scheduler.obj
 0001:0003905c       $LN10                      1003a05c     scheduler.obj
 0001:00039068       $LN9                       1003a068     scheduler.obj
 0001:00039cb0       $LN92                      1003acb0     scheduler.obj
 0001:00039cb8       $LN91                      1003acb8     scheduler.obj
 0001:00039cd0       $LN90                      1003acd0     scheduler.obj
 0001:00039cd5       $LN89                      1003acd5     scheduler.obj
 0001:0003a4e0       $LN92                      1003b4e0     scheduler.obj
 0001:0003a4e8       $LN91                      1003b4e8     scheduler.obj
 0001:0003a500       $LN90                      1003b500     scheduler.obj
 0001:0003a505       $LN89                      1003b505     scheduler.obj
 0001:0003af20       ?__TBB_machine_fetchstore1@@YADPCXD@Z 1003bf20 f   observer_proxy.obj
 0001:0003af30       ?__TBB_machine_cmpswp4@@YAJPCXHH@Z 1003bf30 f   observer_proxy.obj
 0001:0003af50       ?__TBB_machine_fetchadd4@@YAJPCXH@Z 1003bf50 f   observer_proxy.obj
 0001:0003af60       ?__TBB_machine_fetchstore4@@YAJPCXH@Z 1003bf60 f   observer_proxy.obj
 0001:0003b374       $LN43                      1003c374     observer_proxy.obj
 0001:0003b37c       $LN42                      1003c37c     observer_proxy.obj
 0001:0003b388       $LN40                      1003c388     observer_proxy.obj
 0001:0003b628       $LN36                      1003c628     observer_proxy.obj
 0001:0003b630       $LN35                      1003c630     observer_proxy.obj
 0001:0003b648       $LN33                      1003c648     observer_proxy.obj
 0001:0003b64d       $LN32                      1003c64d     observer_proxy.obj
 0001:0003b8c8       $LN35                      1003c8c8     observer_proxy.obj
 0001:0003b8d0       $LN34                      1003c8d0     observer_proxy.obj
 0001:0003b8f4       $LN32                      1003c8f4     observer_proxy.obj
 0001:0003b8f9       $LN31                      1003c8f9     observer_proxy.obj
 0001:0003b8fe       $LN30                      1003c8fe     observer_proxy.obj
 0001:0003bb30       $LN28                      1003cb30     observer_proxy.obj
 0001:0003bb38       $LN27                      1003cb38     observer_proxy.obj
 0001:0003bb44       $LN25                      1003cb44     observer_proxy.obj
 0001:0003bbdc       $LN8                       1003cbdc     observer_proxy.obj
 0001:0003bbe4       $LN7                       1003cbe4     observer_proxy.obj
 0001:0003bbf0       $LN6                       1003cbf0     observer_proxy.obj
 0001:0003bf4c       $LN22                      1003cf4c     observer_proxy.obj
 0001:0003bf54       $LN21                      1003cf54     observer_proxy.obj
 0001:0003bf60       $LN19                      1003cf60     observer_proxy.obj
 0001:0003c760       $LN11                      1003d760     tbb_main.obj
 0001:0003c768       $LN10                      1003d768     tbb_main.obj
 0001:0003c774       $LN8                       1003d774     tbb_main.obj
 0001:0003c9bc       $LN26                      1003d9bc     tbb_main.obj
 0001:0003c9c4       $LN25                      1003d9c4     tbb_main.obj
 0001:0003c9d0       $LN23                      1003d9d0     tbb_main.obj
 0001:0003ca40       ?__TBB_machine_cmpswp1@@YADPCXDD@Z 1003da40 f   tbb_main.obj
 0001:0003ca60       ?__TBB_machine_fetchadd4@@YAJPCXH@Z 1003da60 f   tbb_main.obj
 0001:0003ca70       ?pause@msvc_intrinsics@internal@tbb@@YAXI@Z 1003da70 f   tbb_main.obj
 0001:0003ca90       ?GetBoolEnvironmentVariable@internal@tbb@@YA_NPBD@Z 1003da90 f   tbb_main.obj
 0001:0003ce60       $LN17                      1003de60     tbb_main.obj
 0001:0003d0e4       $LN12                      1003e0e4     tbb_main.obj
 0001:0003d0ec       $LN11                      1003e0ec     tbb_main.obj
 0001:0003d104       $LN10                      1003e104     tbb_main.obj
 0001:0003d10e       $LN9                       1003e10e     tbb_main.obj
 0001:0003d250       $LN10                      1003e250     tbb_main.obj
 0001:0003d258       $LN9                       1003e258     tbb_main.obj
 0001:0003d264       $LN8                       1003e264     tbb_main.obj
 0001:0003d390       $LN10                      1003e390     tbb_main.obj
 0001:0003d398       $LN9                       1003e398     tbb_main.obj
 0001:0003d3a4       $LN8                       1003e3a4     tbb_main.obj
 0001:0003d52c       $LN11                      1003e52c     tbb_main.obj
 0001:0003d534       $LN10                      1003e534     tbb_main.obj
 0001:0003d54c       $LN9                       1003e54c     tbb_main.obj
 0001:0003d550       $LN8                       1003e550     tbb_main.obj
 0001:0003d6f8       $LN13                      1003e6f8     tbb_main.obj
 0001:0003d700       $LN12                      1003e700     tbb_main.obj
 0001:0003d718       $LN11                      1003e718     tbb_main.obj
 0001:0003d722       $LN10                      1003e722     tbb_main.obj
 0001:0003d910       $LN12                      1003e910     tbb_main.obj
 0001:0003d918       $LN11                      1003e918     tbb_main.obj
 0001:0003d930       $LN10                      1003e930     tbb_main.obj
 0001:0003d93a       $LN9                       1003e93a     tbb_main.obj
 0001:0003da54       $LN10                      1003ea54     tbb_main.obj
 0001:0003da5c       $LN9                       1003ea5c     tbb_main.obj
 0001:0003da68       $LN8                       1003ea68     tbb_main.obj
 0001:0003daa0       ?ITT_get_string_handle@internal@tbb@@YAPAU___itt_string_handle@@H@Z 1003eaa0 f   tbb_main.obj
 0001:0003db10       ?ITT_init_domains@internal@tbb@@YAXXZ 1003eb10 f   tbb_main.obj
 0001:0003dc30       ?ITT_init_strings@internal@tbb@@YAXXZ 1003ec30 f   tbb_main.obj
 0001:0003dcb0       ?ITT_init@internal@tbb@@YAXXZ 1003ecb0 f   tbb_main.obj
 0001:0003dd70       ?get_itt_domain@internal@tbb@@YAPAU___itt_domain@@W4itt_domain_enum@12@@Z 1003ed70 f   tbb_main.obj
 0001:0003dda0       ?itt_id_make@internal@tbb@@YAXPAU___itt_id@@PAX_K@Z 1003eda0 f   tbb_main.obj
 0001:0003de40       ?itt_id_create@internal@tbb@@YAXPBU___itt_domain@@U___itt_id@@@Z 1003ee40 f   tbb_main.obj
 0001:0003e01c       $LN5                       1003f01c     tbb_main.obj
 0001:0003e024       $LN4                       1003f024     tbb_main.obj
 0001:0003e030       $LN3                       1003f030     tbb_main.obj
 0001:0003e638       $LN8                       1003f638     tbb_main.obj
 0001:0003e640       $LN7                       1003f640     tbb_main.obj
 0001:0003e64c       $LN6                       1003f64c     tbb_main.obj
 0001:0003e7cc       $LN5                       1003f7cc     tbb_main.obj
 0001:0003e7d4       $LN4                       1003f7d4     tbb_main.obj
 0001:0003e7e0       $LN3                       1003f7e0     tbb_main.obj
 0001:0003e7f0       ?__TBB_machine_cmpswp4@@YAJPCXHH@Z 1003f7f0 f   concurrent_vector_v2.obj
 0001:0003e810       ?__TBB_machine_fetchadd4@@YAJPCXH@Z 1003f810 f   concurrent_vector_v2.obj
 0001:0003e820       ?pause@msvc_intrinsics@internal@tbb@@YAXI@Z 1003f820 f   concurrent_vector_v2.obj
 0001:0003e840       ?lg_bsr@msvc_intrinsics@internal@tbb@@YAII@Z 1003f840 f   concurrent_vector_v2.obj
 0001:0003e87c       $LN5                       1003f87c     concurrent_vector_v2.obj
 0001:0003e884       $LN4                       1003f884     concurrent_vector_v2.obj
 0001:0003e890       $LN3                       1003f890     concurrent_vector_v2.obj
 0001:0003f530       $LN9                       10040530     concurrent_vector_v2.obj
 0001:0003f538       $LN8                       10040538     concurrent_vector_v2.obj
 0001:0003f544       $LN7                       10040544     concurrent_vector_v2.obj
 0001:0003f5f8       $LN7                       100405f8     concurrent_vector_v2.obj
 0001:0003f600       $LN6                       10040600     concurrent_vector_v2.obj
 0001:0003f60c       $LN5                       1004060c     concurrent_vector_v2.obj
 0001:0003f6fc       $LN5                       100406fc     concurrent_vector_v2.obj
 0001:0003f704       $LN4                       10040704     concurrent_vector_v2.obj
 0001:0003f710       $LN3                       10040710     concurrent_vector_v2.obj
 0001:0003fe30       $LN8                       10040e30     concurrent_queue_v2.obj
 0001:0003fe38       $LN7                       10040e38     concurrent_queue_v2.obj
 0001:0003fe44       $LN6                       10040e44     concurrent_queue_v2.obj
 0001:0003ff8c       $LN10                      10040f8c     concurrent_queue_v2.obj
 0001:0003ff94       $LN9                       10040f94     concurrent_queue_v2.obj
 0001:0003ffa0       $LN8                       10040fa0     concurrent_queue_v2.obj
 0001:00040074       $LN13                      10041074     concurrent_queue_v2.obj
 0001:0004007c       $LN12                      1004107c     concurrent_queue_v2.obj
 0001:00040088       $LN11                      10041088     concurrent_queue_v2.obj
 0001:00040410       ?__TBB_machine_cmpswp4@@YAJPCXHH@Z 10041410 f   concurrent_queue_v2.obj
 0001:00040430       ?__TBB_machine_fetchadd4@@YAJPCXH@Z 10041430 f   concurrent_queue_v2.obj
 0001:00040440       ?pause@msvc_intrinsics@internal@tbb@@YAXI@Z 10041440 f   concurrent_queue_v2.obj
 0001:00040610       $LN14                      10041610     concurrent_queue_v2.obj
 0001:00040618       $LN13                      10041618     concurrent_queue_v2.obj
 0001:00040630       $LN11                      10041630     concurrent_queue_v2.obj
 0001:00040635       $LN10                      10041635     concurrent_queue_v2.obj
 0001:000407a8       $LN12                      100417a8     concurrent_queue_v2.obj
 0001:000407b0       $LN11                      100417b0     concurrent_queue_v2.obj
 0001:000407bc       $LN9                       100417bc     concurrent_queue_v2.obj
 0001:000408ac       $LN5                       100418ac     concurrent_queue_v2.obj
 0001:000408b4       $LN4                       100418b4     concurrent_queue_v2.obj
 0001:000408c0       $LN3                       100418c0     concurrent_queue_v2.obj
 0001:00040b38       $LN9                       10041b38     concurrent_queue_v2.obj
 0001:00040b40       $LN8                       10041b40     concurrent_queue_v2.obj
 0001:00040b4c       $LN6                       10041b4c     concurrent_queue_v2.obj
 0001:00040ed4       $LN18                      10041ed4     spin_rw_mutex_v2.obj
 0001:00040edc       $LN17                      10041edc     spin_rw_mutex_v2.obj
 0001:00040ee8       $LN16                      10041ee8     spin_rw_mutex_v2.obj
 0001:00041060       $LN18                      10042060     spin_rw_mutex_v2.obj
 0001:00041068       $LN17                      10042068     spin_rw_mutex_v2.obj
 0001:00041074       $LN16                      10042074     spin_rw_mutex_v2.obj
 0001:00041220       $LN24                      10042220     spin_rw_mutex_v2.obj
 0001:00041228       $LN23                      10042228     spin_rw_mutex_v2.obj
 0001:00041234       $LN22                      10042234     spin_rw_mutex_v2.obj
 0001:00041470       ?__TBB_machine_cmpswp4@@YAJPCXHH@Z 10042470 f   spin_rw_mutex_v2.obj
 0001:00041490       ?__TBB_machine_fetchadd4@@YAJPCXH@Z 10042490 f   spin_rw_mutex_v2.obj
 0001:000414a0       ?pause@msvc_intrinsics@internal@tbb@@YAXI@Z 100424a0 f   spin_rw_mutex_v2.obj
 0001:000414c0       ?lock_or@msvc_intrinsics@internal@tbb@@YAXPCXH@Z 100424c0 f   spin_rw_mutex_v2.obj
 0001:000414e0       ?CAS@tbb@@YA_NACIII@Z      100424e0 f   spin_rw_mutex_v2.obj
 0001:0004160c       $LN5                       1004260c     spin_rw_mutex_v2.obj
 0001:00041614       $LN4                       10042614     spin_rw_mutex_v2.obj
 0001:00041620       $LN3                       10042620     spin_rw_mutex_v2.obj
 0001:000416d0       $$000000                   100426d0     atomic_support.obj
 0001:00041810       $$000000                   10042810     itsx.obj
 0001:00041850       $$000000                   10042850     lock_byte.obj
 0001:00041d50       ?ArrayUnwindFilter@@YAHPAU_EXCEPTION_POINTERS@@@Z 10042d50 f   MSVCRTD:ehvecdtr.obj
 0001:00042200       $$000000                   10043200     MSVCRTD:ftol3.obj
 0001:000425a0       $$000000                   100435a0     MSVCRTD:alloca16.obj
 0001:00042600       ?__scrt_initialize_thread_safe_statics@@YAHXZ 10043600 f   MSVCRTD:thread_safe_statics.obj
 0001:00042640       ?__scrt_initialize_thread_safe_statics_platform_specific@@YAXXZ 10043640 f   MSVCRTD:thread_safe_statics.obj
 0001:000426f0       ?__scrt_uninitialize_thread_safe_statics@@YAXXZ 100436f0 f   MSVCRTD:thread_safe_statics.obj
 0001:00042a40       ?find_pe_section@@YAPAU_IMAGE_SECTION_HEADER@@QAEI@Z 10043a40 f   MSVCRTD:utility.obj
 0001:00042ae0       ?is_potentially_valid_image_base@@YA_NQAX@Z 10043ae0 f   MSVCRTD:utility.obj
 0001:000430b0       ?dllmain_crt_dispatch@@YGHQAUHINSTANCE__@@KQAX@Z 100440b0 f   MSVCRTD:dll_dllmain.obj
 0001:0004311c       $LN11                      1004411c     MSVCRTD:dll_dllmain.obj
 0001:00043130       ?dllmain_crt_process_attach@@YAHQAUHINSTANCE__@@QAX@Z 10044130 f   MSVCRTD:dll_dllmain.obj
 0001:000432a0       ?dllmain_crt_process_detach@@YAH_N@Z 100442a0 f   MSVCRTD:dll_dllmain.obj
 0001:000433a0       ?dllmain_dispatch@@YAHQAUHINSTANCE__@@KQAX@Z 100443a0 f   MSVCRTD:dll_dllmain.obj
 0001:00043530       ?dllmain_raw@@YGHQAUHINSTANCE__@@KQAX@Z 10044530 f   MSVCRTD:dll_dllmain.obj
 0001:000435d0       ?DebuggerProbe@@YA_NK@Z    100445d0 f   MSVCRTD:error.obj
 0001:00043610       ?DebuggerRuntime@@YA_NKHPAXPB_W@Z 10044610 f   MSVCRTD:error.obj
 0001:00043850       ?_getMemBlockDataString@@YAXPAD0PBDI@Z 10044850 f   MSVCRTD:error.obj
 0001:000438c0       ?_strlen_priv@@YAIPBD@Z    100448c0 f   MSVCRTD:error.obj
 0001:000438e0       ?failwithmessage@@YAXPAXHHPBD@Z 100448e0 f   MSVCRTD:error.obj
 0001:00043ae0       ?notify_debugger@@YAXABUtagEXCEPTION_VISUALCPP_DEBUG_INFO@@@Z 10044ae0 f   MSVCRTD:error.obj
 0001:00044240       $$000000                   10045240     MSVCRTD:chkstk.obj
 0001:000445b0       ___get_entropy             100455b0 f   MSVCRTD:gs_support.obj
 0001:00044760       ?GetPdbDll@@YAPAUHINSTANCE__@@XZ 10045760 f   MSVCRTD:pdblkup.obj
 0001:000448a0       ?GetPdbDllFromInstallPath@@YAPAUHINSTANCE__@@XZ 100458a0 f   MSVCRTD:pdblkup.obj
 0001:00044b00       ?GetPdbDllPathFromFilePath@@YAHPB_WPA_WI@Z 10045b00 f   MSVCRTD:pdblkup.obj
 0001:00045340       __ehhandler$??1concurrent_queue_base_v3@internal@tbb@@MAE@XZ 10046340 f   concurrent_queue.obj
 0001:0004535d       __unwindfunclet$?internal_pop@concurrent_queue_base_v3@internal@tbb@@IAEXPAX@Z$3 1004635d f   concurrent_queue.obj
 0001:0004536a       __ehhandler$?internal_pop@concurrent_queue_base_v3@internal@tbb@@IAEXPAX@Z 1004636a f   concurrent_queue.obj
 0001:00045391       __unwindfunclet$?internal_insert_item@concurrent_queue_base_v3@internal@tbb@@IAEXPBXW4copy_specifics@123@@Z$3 10046391 f   concurrent_queue.obj
 0001:0004539e       __ehhandler$?internal_insert_item@concurrent_queue_base_v3@internal@tbb@@IAEXPBXW4copy_specifics@123@@Z 1004639e f   concurrent_queue.obj
 0001:000453c5       __ehhandler$??1concurrent_queue_iterator_base_v3@internal@tbb@@IAE@XZ 100463c5 f   concurrent_queue.obj
 0001:000453e2       __unwindfunclet$?push@micro_queue@internal@tbb@@QAEXPBXIAAVconcurrent_queue_base_v3@23@W4copy_specifics@423@@Z$4 100463e2 f   concurrent_queue.obj
 0001:000453ef       __ehhandler$?push@micro_queue@internal@tbb@@QAEXPBXIAAVconcurrent_queue_base_v3@23@W4copy_specifics@423@@Z 100463ef f   concurrent_queue.obj
 0001:0004540c       __unwindfunclet$?pop@micro_queue@internal@tbb@@QAE_NPAXIAAVconcurrent_queue_base_v3@23@@Z$0 1004640c f   concurrent_queue.obj
 0001:00045419       __ehhandler$?pop@micro_queue@internal@tbb@@QAE_NPAXIAAVconcurrent_queue_base_v3@23@@Z 10046419 f   concurrent_queue.obj
 0001:00045436       __ehhandler$?assign@micro_queue@internal@tbb@@QAEAAU123@ABU123@AAVconcurrent_queue_base_v3@23@W4copy_specifics@423@@Z 10046436 f   concurrent_queue.obj
 0001:00045453       __unwindfunclet$?make_invalid@micro_queue@internal@tbb@@QAEXI@Z$0 10046453 f   concurrent_queue.obj
 0001:00045460       __ehhandler$?make_invalid@micro_queue@internal@tbb@@QAEXI@Z 10046460 f   concurrent_queue.obj
 0001:00045480       __unwindfunclet$??$notify_relaxed@Upredicate_leq@internal@tbb@@@concurrent_monitor@internal@tbb@@QAEXABUpredicate_leq@12@@Z$0 10046480 f   concurrent_queue.obj
 0001:00045488       __unwindfunclet$??$notify_relaxed@Upredicate_leq@internal@tbb@@@concurrent_monitor@internal@tbb@@QAEXABUpredicate_leq@12@@Z$1 10046488 f   concurrent_queue.obj
 0001:00045495       __ehhandler$??$notify_relaxed@Upredicate_leq@internal@tbb@@@concurrent_monitor@internal@tbb@@QAEXABUpredicate_leq@12@@Z 10046495 f   concurrent_queue.obj
 0001:000454c0       __unwindfunclet$??0concurrent_monitor@internal@tbb@@QAE@XZ$0 100464c0 f   concurrent_queue.obj
 0001:000454d0       __ehhandler$??0concurrent_monitor@internal@tbb@@QAE@XZ 100464d0 f   concurrent_queue.obj
 0001:000454f0       __ehhandler$??1circular_doubly_linked_list_with_sentinel@internal@tbb@@QAE@XZ 100464f0 f   concurrent_queue.obj
 0001:00045510       __ehhandler$??1micro_queue_pop_finalizer@internal@tbb@@QAE@XZ 10046510 f   concurrent_queue.obj
 0001:00045530       __ehhandler$??1scoped_lock@spin_mutex@tbb@@QAE@XZ 10046530 f   concurrent_queue.obj
 0001:00045550       __ehhandler$??1thread_context@concurrent_monitor@internal@tbb@@QAE@XZ 10046550 f   concurrent_queue.obj
 0001:00045570       __ehhandler$??1concurrent_vector_base_v3@internal@tbb@@IAE@XZ 10046570 f   concurrent_vector.obj
 0001:0004558d       __unwindfunclet$?internal_grow@concurrent_vector_base_v3@internal@tbb@@IAEXIIIP6AXPAXPBXI@Z1@Z$0 1004658d f   concurrent_vector.obj
 0001:0004559a       __ehhandler$?internal_grow@concurrent_vector_base_v3@internal@tbb@@IAEXIIIP6AXPAXPBXI@Z1@Z 1004659a f   concurrent_vector.obj
 0001:000455b7       __unwindfunclet$?internal_clear@concurrent_vector_base_v3@internal@tbb@@IAEIP6AXPAXI@Z@Z$0 100465b7 f   concurrent_vector.obj
 0001:000455c4       __ehhandler$?internal_clear@concurrent_vector_base_v3@internal@tbb@@IAEIP6AXPAXI@Z@Z 100465c4 f   concurrent_vector.obj
 0001:000455e1       __unwindfunclet$?internal_compact@concurrent_vector_base_v3@internal@tbb@@IAEPAXIPAXP6AX0I@ZP6AX0PBXI@Z@Z$2 100465e1 f   concurrent_vector.obj
 0001:000455e9       __unwindfunclet$?internal_compact@concurrent_vector_base_v3@internal@tbb@@IAEPAXIPAXP6AX0I@ZP6AX0PBXI@Z@Z$3 100465e9 f   concurrent_vector.obj
 0001:000455f1       __unwindfunclet$?internal_compact@concurrent_vector_base_v3@internal@tbb@@IAEPAXIPAXP6AX0I@ZP6AX0PBXI@Z@Z$4 100465f1 f   concurrent_vector.obj
 0001:000455fe       __ehhandler$?internal_compact@concurrent_vector_base_v3@internal@tbb@@IAEPAXIPAXP6AX0I@ZP6AX0PBXI@Z@Z 100465fe f   concurrent_vector.obj
 0001:0004561e       __unwindfunclet$?internal_resize@concurrent_vector_base_v3@internal@tbb@@IAEXIIIPBXP6AXPAXI@ZP6AX10I@Z@Z$0 1004661e f   concurrent_vector.obj
 0001:00045626       __unwindfunclet$?internal_resize@concurrent_vector_base_v3@internal@tbb@@IAEXIIIPBXP6AXPAXI@ZP6AX10I@Z@Z$1 10046626 f   concurrent_vector.obj
 0001:00045633       __ehhandler$?internal_resize@concurrent_vector_base_v3@internal@tbb@@IAEXIIIPBXP6AXPAXI@ZP6AX10I@Z@Z 10046633 f   concurrent_vector.obj
 0001:00045650       __unwindfunclet$?enable_segment@helper@concurrent_vector_base_v3@internal@tbb@@SAIAAV234@II_N@Z$0 10046650 f   concurrent_vector.obj
 0001:00045658       __unwindfunclet$?enable_segment@helper@concurrent_vector_base_v3@internal@tbb@@SAIAAV234@II_N@Z$1 10046658 f   concurrent_vector.obj
 0001:00045665       __ehhandler$?enable_segment@helper@concurrent_vector_base_v3@internal@tbb@@SAIAAV234@II_N@Z 10046665 f   concurrent_vector.obj
 0001:00045682       __unwindfunclet$?extend_segment_table@helper@concurrent_vector_base_v3@internal@tbb@@SAXAAV234@I@Z$0 10046682 f   concurrent_vector.obj
 0001:0004568f       __ehhandler$?extend_segment_table@helper@concurrent_vector_base_v3@internal@tbb@@SAXAAV234@I@Z 1004668f f   concurrent_vector.obj
 0001:000456b0       __ehhandler$??$store@$01@segment_t@concurrent_vector_base_v3@internal@tbb@@QAEXPAX@Z 100466b0 f   concurrent_vector.obj
 0001:000456d0       __ehhandler$??$store@$02@segment_t@concurrent_vector_base_v3@internal@tbb@@QAEXPAX@Z 100466d0 f   concurrent_vector.obj
 0001:000456f0       __unwindfunclet$??$uninitialized_fill_n@PAVsegment_t@concurrent_vector_base_v3@internal@tbb@@IV1234@@std@@YAPAVsegment_t@concurrent_vector_base_v3@internal@tbb@@PAV1234@IABV1234@@Z$0 100466f0 f   concurrent_vector.obj
 0001:000456fd       __ehhandler$??$uninitialized_fill_n@PAVsegment_t@concurrent_vector_base_v3@internal@tbb@@IV1234@@std@@YAPAVsegment_t@concurrent_vector_base_v3@internal@tbb@@PAV1234@IABV1234@@Z 100466fd f   concurrent_vector.obj
 0001:00045720       __ehhandler$??1helper@concurrent_vector_base_v3@internal@tbb@@QAE@XZ 10046720 f   concurrent_vector.obj
 0001:00045740       __ehhandler$??1segment_scope_guard@?1??enable_segment@helper@concurrent_vector_base_v3@internal@tbb@@SAIAAV345@II_N@Z@QAE@XZ 10046740 f   concurrent_vector.obj
 0001:00045760       __ehhandler$??1segment_t@concurrent_vector_base_v3@internal@tbb@@QAE@XZ 10046760 f   concurrent_vector.obj
 0001:00045780       __ehhandler$?swap@internal@tbb@@YAXAAVsegment_t@concurrent_vector_base_v3@12@0@Z 10046780 f   concurrent_vector.obj
 0001:000457a0       __ehhandler$??1filter@tbb@@UAE@XZ 100467a0 f   pipeline.obj
 0001:000457bd       __ehhandler$??1pipeline@tbb@@UAE@XZ 100467bd f   pipeline.obj
 0001:000457da       __unwindfunclet$?add_filter@pipeline@tbb@@QAEXAAVfilter@2@@Z$0 100467da f   pipeline.obj
 0001:000457e9       __unwindfunclet$?add_filter@pipeline@tbb@@QAEXAAVfilter@2@@Z$1 100467e9 f   pipeline.obj
 0001:000457f8       __unwindfunclet$?add_filter@pipeline@tbb@@QAEXAAVfilter@2@@Z$2 100467f8 f   pipeline.obj
 0001:00045807       __unwindfunclet$?add_filter@pipeline@tbb@@QAEXAAVfilter@2@@Z$3 10046807 f   pipeline.obj
 0001:0004581b       __ehhandler$?add_filter@pipeline@tbb@@QAEXAAVfilter@2@@Z 1004681b f   pipeline.obj
 0001:00045838       __unwindfunclet$?run@pipeline@tbb@@QAEXI@Z$0 10046838 f   pipeline.obj
 0001:00045848       __ehhandler$?run@pipeline@tbb@@QAEXI@Z 10046848 f   pipeline.obj
 0001:00045872       __unwindfunclet$?run@pipeline@tbb@@QAEXIAAVtask_group_context@2@@Z$0 10046872 f   pipeline.obj
 0001:0004587a       __unwindfunclet$?run@pipeline@tbb@@QAEXIAAVtask_group_context@2@@Z$1 1004687a f   pipeline.obj
 0001:00045890       __ehhandler$?run@pipeline@tbb@@QAEXIAAVtask_group_context@2@@Z 10046890 f   pipeline.obj
 0001:000458ad       __unwindfunclet$?execute@stage_task@internal@tbb@@UAEPAVtask@3@XZ$2 100468ad f   pipeline.obj
 0001:000458be       __unwindfunclet$?execute@stage_task@internal@tbb@@UAEPAVtask@3@XZ$3 100468be f   pipeline.obj
 0001:000458d4       __ehhandler$?execute@stage_task@internal@tbb@@UAEPAVtask@3@XZ 100468d4 f   pipeline.obj
 0001:00045900       __unwindfunclet$??$note_done@Vstage_task@internal@tbb@@@input_buffer@internal@tbb@@QAEXKAAVstage_task@12@@Z$0 10046900 f   pipeline.obj
 0001:0004590d       __ehhandler$??$note_done@Vstage_task@internal@tbb@@@input_buffer@internal@tbb@@QAEXKAAVstage_task@12@@Z 1004690d f   pipeline.obj
 0001:00045930       __unwindfunclet$??0pipeline_root_task@internal@tbb@@QAE@AAVpipeline@2@@Z$0 10046930 f   pipeline.obj
 0001:0004593d       __ehhandler$??0pipeline_root_task@internal@tbb@@QAE@AAVpipeline@2@@Z 1004693d f   pipeline.obj
 0001:00045960       __unwindfunclet$??0stage_task@internal@tbb@@QAE@AAVpipeline@2@@Z$0 10046960 f   pipeline.obj
 0001:0004596d       __ehhandler$??0stage_task@internal@tbb@@QAE@AAVpipeline@2@@Z 1004696d f   pipeline.obj
 0001:00045990       __ehhandler$??1input_buffer@internal@tbb@@QAE@XZ 10046990 f   pipeline.obj
 0001:000459b0       __ehhandler$??1pipeline_cleaner@internal@tbb@@QAE@XZ 100469b0 f   pipeline.obj
 0001:000459d0       __ehhandler$??1stage_task@internal@tbb@@UAE@XZ 100469d0 f   pipeline.obj
 0001:000459f0       __ehhandler$??3@YAXPAXABVallocate_additional_child_of_proxy@internal@tbb@@@Z 100469f0 f   pipeline.obj
 0001:00045a10       __ehhandler$??3@YAXPAXABVallocate_child_proxy@internal@tbb@@@Z 10046a10 f   pipeline.obj
 0001:00045a30       __ehhandler$??3@YAXPAXABVallocate_root_with_context_proxy@internal@tbb@@@Z 10046a30 f   pipeline.obj
 0001:00045a50       __unwindfunclet$?create_sema@input_buffer@internal@tbb@@AAEXI@Z$0 10046a50 f   pipeline.obj
 0001:00045a64       __ehhandler$?create_sema@input_buffer@internal@tbb@@AAEXI@Z 10046a64 f   pipeline.obj
 0001:00045a90       __unwindfunclet$?execute@pipeline_root_task@internal@tbb@@EAEPAVtask@3@XZ$0 10046a90 f   pipeline.obj
 0001:00045aa1       __unwindfunclet$?execute@pipeline_root_task@internal@tbb@@EAEPAVtask@3@XZ$1 10046aa1 f   pipeline.obj
 0001:00045aa9       __unwindfunclet$?execute@pipeline_root_task@internal@tbb@@EAEPAVtask@3@XZ$2 10046aa9 f   pipeline.obj
 0001:00045abf       __ehhandler$?execute@pipeline_root_task@internal@tbb@@EAEPAVtask@3@XZ 10046abf f   pipeline.obj
 0001:00045ae0       __unwindfunclet$?put_token@input_buffer@internal@tbb@@QAE_NAAUtask_info@23@_N@Z$0 10046ae0 f   pipeline.obj
 0001:00045aed       __ehhandler$?put_token@input_buffer@internal@tbb@@QAE_NAAUtask_info@23@_N@Z 10046aed f   pipeline.obj
 0001:00045b10       __unwindfunclet$?return_item@input_buffer@internal@tbb@@QAE_NAAUtask_info@23@_N@Z$0 10046b10 f   pipeline.obj
 0001:00045b1d       __ehhandler$?return_item@input_buffer@internal@tbb@@QAE_NAAUtask_info@23@_N@Z 10046b1d f   pipeline.obj
 0001:00045b40       __unwindfunclet$?spawn_stage_task@stage_task@internal@tbb@@QAEXABUtask_info@23@@Z$0 10046b40 f   pipeline.obj
 0001:00045b56       __ehhandler$?spawn_stage_task@stage_task@internal@tbb@@QAEXABUtask_info@23@@Z 10046b56 f   pipeline.obj
 0001:00045b80       __unwindfunclet$?lock@reader_writer_lock@interface5@tbb@@QAEXXZ$0 10046b80 f   reader_writer_lock.obj
 0001:00045b90       __ehhandler$?lock@reader_writer_lock@interface5@tbb@@QAEXXZ 10046b90 f   reader_writer_lock.obj
 0001:00045bad       __unwindfunclet$?try_lock@reader_writer_lock@interface5@tbb@@QAE_NXZ$0 10046bad f   reader_writer_lock.obj
 0001:00045bbd       __ehhandler$?try_lock@reader_writer_lock@interface5@tbb@@QAE_NXZ 10046bbd f   reader_writer_lock.obj
 0001:00045bda       __unwindfunclet$?lock_read@reader_writer_lock@interface5@tbb@@QAEXXZ$0 10046bda f   reader_writer_lock.obj
 0001:00045be7       __ehhandler$?lock_read@reader_writer_lock@interface5@tbb@@QAEXXZ 10046be7 f   reader_writer_lock.obj
 0001:00045c10       __ehhandler$??1scoped_lock@reader_writer_lock@interface5@tbb@@QAE@XZ 10046c10 f   reader_writer_lock.obj
 0001:00045c30       __ehhandler$??1scoped_lock_read@reader_writer_lock@interface5@tbb@@QAE@XZ 10046c30 f   reader_writer_lock.obj
 0001:00045c50       __ehhandler$??3scoped_lock@reader_writer_lock@interface5@tbb@@SAXPAX@Z 10046c50 f   reader_writer_lock.obj
 0001:00045c70       __ehhandler$?hardware_concurrency@tbb_thread_v3@internal@tbb@@SAIXZ 10046c70 f   tbb_thread.obj
 0001:00045c90       __ehhandler$?get_id@tbb_thread_v3@internal@tbb@@QBE?AVid@123@XZ 10046c90 f   tbb_thread.obj
 0001:00045cb0       __ehhandler$??1concurrent_monitor@internal@tbb@@QAE@XZ 10046cb0 f   concurrent_monitor.obj
 0001:00045ccd       __unwindfunclet$?prepare_wait@concurrent_monitor@internal@tbb@@QAEXAAVthread_context@123@I@Z$0 10046ccd f   concurrent_monitor.obj
 0001:00045cda       __ehhandler$?prepare_wait@concurrent_monitor@internal@tbb@@QAEXAAVthread_context@123@I@Z 10046cda f   concurrent_monitor.obj
 0001:00045cf7       __unwindfunclet$?cancel_wait@concurrent_monitor@internal@tbb@@QAEXAAVthread_context@123@@Z$0 10046cf7 f   concurrent_monitor.obj
 0001:00045d04       __ehhandler$?cancel_wait@concurrent_monitor@internal@tbb@@QAEXAAVthread_context@123@@Z 10046d04 f   concurrent_monitor.obj
 0001:00045d21       __unwindfunclet$?notify_one_relaxed@concurrent_monitor@internal@tbb@@QAEXXZ$0 10046d21 f   concurrent_monitor.obj
 0001:00045d2e       __ehhandler$?notify_one_relaxed@concurrent_monitor@internal@tbb@@QAEXXZ 10046d2e f   concurrent_monitor.obj
 0001:00045d4b       __unwindfunclet$?notify_all_relaxed@concurrent_monitor@internal@tbb@@QAEXXZ$0 10046d4b f   concurrent_monitor.obj
 0001:00045d53       __unwindfunclet$?notify_all_relaxed@concurrent_monitor@internal@tbb@@QAEXXZ$1 10046d53 f   concurrent_monitor.obj
 0001:00045d60       __ehhandler$?notify_all_relaxed@concurrent_monitor@internal@tbb@@QAEXXZ 10046d60 f   concurrent_monitor.obj
 0001:00045d7d       __unwindfunclet$?abort_all_relaxed@concurrent_monitor@internal@tbb@@QAEXXZ$0 10046d7d f   concurrent_monitor.obj
 0001:00045d85       __unwindfunclet$?abort_all_relaxed@concurrent_monitor@internal@tbb@@QAEXXZ$1 10046d85 f   concurrent_monitor.obj
 0001:00045d92       __ehhandler$?abort_all_relaxed@concurrent_monitor@internal@tbb@@QAEXXZ 10046d92 f   concurrent_monitor.obj
 0001:00045db0       __unwindfunclet$?wake_some@private_server@rml@internal@tbb@@AAEXH@Z$1 10046db0 f   private_server.obj
 0001:00045dbd       __ehhandler$?wake_some@private_server@rml@internal@tbb@@AAEXH@Z 10046dbd f   private_server.obj
 0001:00045dda       __ehhandler$??1private_server@rml@internal@tbb@@EAE@XZ 10046dda f   private_server.obj
 0001:00045e00       __unwindfunclet$??0padded_private_worker@rml@internal@tbb@@QAE@AAVprivate_server@123@AAVtbb_client@123@I@Z$0 10046e00 f   private_server.obj
 0001:00045e0d       __ehhandler$??0padded_private_worker@rml@internal@tbb@@QAE@AAVprivate_server@123@AAVtbb_client@123@I@Z 10046e0d f   private_server.obj
 0001:00045e30       __unwindfunclet$??0private_worker@rml@internal@tbb@@IAE@AAVprivate_server@123@AAVtbb_client@123@I@Z$0 10046e30 f   private_server.obj
 0001:00045e40       __ehhandler$??0private_worker@rml@internal@tbb@@IAE@AAVprivate_server@123@AAVtbb_client@123@I@Z 10046e40 f   private_server.obj
 0001:00045e60       __unwindfunclet$??0thread_monitor@internal@rml@@QAE@XZ$0 10046e60 f   private_server.obj
 0001:00045e70       __ehhandler$??0thread_monitor@internal@rml@@QAE@XZ 10046e70 f   private_server.obj
 0001:00045e90       __unwindfunclet$?try_insert_in_asleep_list@private_server@rml@internal@tbb@@AAE_NAAVprivate_worker@234@@Z$0 10046e90 f   private_server.obj
 0001:00045e9d       __ehhandler$?try_insert_in_asleep_list@private_server@rml@internal@tbb@@AAE_NAAVprivate_worker@234@@Z 10046e9d f   private_server.obj
 0001:00045ec0       __ehhandler$??1task_group_context@tbb@@QAE@XZ 10046ec0 f   task_group_context.obj
 0001:00045edd       __ehhandler$?register_pending_exception@task_group_context@tbb@@QAEXXZ 10046edd f   task_group_context.obj
 0001:00045efa       __unwindfunclet$?register_with@task_group_context@tbb@@QAEXPAVgeneric_scheduler@internal@2@@Z$0 10046efa f   task_group_context.obj
 0001:00045f07       __ehhandler$?register_with@task_group_context@tbb@@QAEXPAVgeneric_scheduler@internal@2@@Z 10046f07 f   task_group_context.obj
 0001:00045f24       __unwindfunclet$?allocate@tbb_exception_ptr@internal@tbb@@SAPAV123@XZ$0 10046f24 f   task_group_context.obj
 0001:00045f31       __ehhandler$?allocate@tbb_exception_ptr@internal@tbb@@SAPAV123@XZ 10046f31 f   task_group_context.obj
 0001:00045f4e       __unwindfunclet$?allocate@tbb_exception_ptr@internal@tbb@@SAPAV123@ABVtbb_exception@3@@Z$0 10046f4e f   task_group_context.obj
